ARM GAS  /tmp/cc08otWR.s 			page 1


   1              		.cpu arm7tdmi
   2              		.fpu softvfp
   3              		.eabi_attribute 20, 1
   4              		.eabi_attribute 21, 1
   5              		.eabi_attribute 23, 3
   6              		.eabi_attribute 24, 1
   7              		.eabi_attribute 25, 1
   8              		.eabi_attribute 26, 1
   9              		.eabi_attribute 30, 2
  10              		.eabi_attribute 18, 4
  11              		.file	"AFSK.cpp"
  12              	@ GNU C++ (Sourcery G++ Lite 2011.03-42) version 4.5.2 (arm-none-eabi)
  13              	@	compiled by GNU C version 4.3.2, GMP version 4.3.2, MPFR version 2.4.2, MPC version 0.8.1
  14              	@ GGC heuristics: --param ggc-min-expand=100 --param ggc-min-heapsize=131072
  15              	@ options passed:  -I . -I../arm/arm7lib -iprefix
  16              	@ /home/elijah/CodeSourcery/Sourcery_G++_Lite/bin/../lib/gcc/arm-none-eabi/4.5.2/
  17              	@ -isysroot
  18              	@ /home/elijah/CodeSourcery/Sourcery_G++_Lite/bin/../arm-none-eabi -MD
  19              	@ AFSK.d -MF .dep/AFSK.o.d -MP -MQ AFSK.o -D__USES_INITFINI__
  20              	@ -D__CS_SOURCERYGXX_MAJ__=2011 -D__CS_SOURCERYGXX_MIN__=3
  21              	@ -D__CS_SOURCERYGXX_REV__=42 AFSK.cpp -mcpu=arm7tdmi -auxbase-strip AFSK.o
  22              	@ -gdwarf-2 -O2 -Wall -fno-rtti -fno-exceptions -fomit-frame-pointer
  23              	@ -ffunction-sections -fverbose-asm -fremove-local-statics
  24              	@ options enabled:  -falign-loops -fargument-alias -fauto-inc-dec
  25              	@ -fbranch-count-reg -fcaller-saves -fcommon -fcprop-registers
  26              	@ -fcrossjumping -fcse-follow-jumps -fdefer-pop
  27              	@ -fdelete-null-pointer-checks -fdwarf2-cfi-asm -fearly-inlining
  28              	@ -feliminate-unused-debug-types -fexpensive-optimizations
  29              	@ -fextension-elimination -fforward-propagate -ffunction-cse
  30              	@ -ffunction-sections -fgcse -fgcse-lm -fguess-branch-probability -fident
  31              	@ -fif-conversion -fif-conversion2 -findirect-inlining -finline
  32              	@ -finline-functions-called-once -finline-small-functions -fipa-cp
  33              	@ -fipa-pure-const -fipa-reference -fipa-sra -fira-share-save-slots
  34              	@ -fira-share-spill-slots -fivopts -fkeep-static-consts
  35              	@ -fleading-underscore -fmath-errno -fmerge-constants -fmerge-debug-strings
  36              	@ -fmove-loop-invariants -fomit-frame-pointer -foptimize-register-move
  37              	@ -foptimize-sibling-calls -fpeephole -fpeephole2 -fpromote-loop-indices
  38              	@ -freg-struct-return -fregmove -frename-registers -freorder-blocks
  39              	@ -freorder-functions -frerun-cse-after-loop
  40              	@ -fsched-critical-path-heuristic -fsched-dep-count-heuristic
  41              	@ -fsched-group-heuristic -fsched-interblock -fsched-last-insn-heuristic
  42              	@ -fsched-rank-heuristic -fsched-spec -fsched-spec-insn-heuristic
  43              	@ -fsched-stalled-insns-dep -fschedule-insns -fschedule-insns2
  44              	@ -fsection-anchors -fshow-column -fsigned-zeros -fsplit-ivs-in-unroller
  45              	@ -fsplit-wide-types -fstrict-aliasing -fstrict-overflow
  46              	@ -fstrict-volatile-bitfields -fthread-jumps -ftoplevel-reorder
  47              	@ -ftrapping-math -ftree-builtin-call-dce -ftree-ccp -ftree-ch
  48              	@ -ftree-copy-prop -ftree-copyrename -ftree-cselim -ftree-dce
  49              	@ -ftree-dominator-opts -ftree-dse -ftree-forwprop -ftree-fre
  50              	@ -ftree-if-to-switch-conversion -ftree-loop-im -ftree-loop-ivcanon
  51              	@ -ftree-loop-optimize -ftree-parallelize-loops= -ftree-phiprop -ftree-pre
  52              	@ -ftree-pta -ftree-reassoc -ftree-scev-cprop -ftree-sink
  53              	@ -ftree-slp-vectorize -ftree-sra -ftree-switch-conversion -ftree-ter
  54              	@ -ftree-vect-loop-version -ftree-vrp -funit-at-a-time -funroll-loops
  55              	@ -fvar-tracking -fvar-tracking-assignments -fverbose-asm -fweb
  56              	@ -fzero-initialized-in-bss -mlittle-endian -msched-prolog
  57              	@ -mthumb-interwork
ARM GAS  /tmp/cc08otWR.s 			page 2


  58              	
  65 0000 16040000 		.text
  65      02007503 
  65      00000201 
  65      FB0E0D00 
  65      01010101 
  66              	.Ltext0:
  67              	@ Compiler executable checksum: cfdaeede3ac8e9b2b599068efabc405c
  68              	
  69              		.cfi_sections	.debug_frame
  70              		.section	.text._ZN4AFSK11GetInstanceEv,"ax",%progbits
  71              		.align	2
  72              		.global	_ZN4AFSK11GetInstanceEv
  73              		.type	_ZN4AFSK11GetInstanceEv, %function
  74              	_ZN4AFSK11GetInstanceEv:
  75              	.LFB109:
  76              		.file 1 "AFSK.cpp"
   1:AFSK.cpp      **** /***************************************************************************
   2:AFSK.cpp      ****  *                                                                         *
   3:AFSK.cpp      ****  *  This program is free software; you can redistribute it and/or modify   *
   4:AFSK.cpp      ****  *  it under the terms of the GNU General Public License as published by   *
   5:AFSK.cpp      ****  *  the Free Software Foundation; either version 2 of the License, or      *
   6:AFSK.cpp      ****  *  (at your option) any later version.                                    *
   7:AFSK.cpp      ****  *                                                                         *
   8:AFSK.cpp      ****  *  This program is distributed in the hope that it will be useful,        *
   9:AFSK.cpp      ****  *  but WITHOUT ANY WARRANTY; without even the implied warranty of         *
  10:AFSK.cpp      ****  *  MERCHANTABILITY or FITNESS FOR A PARTICULAR PURPOSE.  See the          *
  11:AFSK.cpp      ****  *  GNU General Public License for more details.                           *
  12:AFSK.cpp      ****  *                                                                         *
  13:AFSK.cpp      ****  *  You should have received a copy of the GNU General Public License      *
  14:AFSK.cpp      ****  *  along with this program; if not, write to the Free Software            *
  15:AFSK.cpp      ****  *  Foundation, Inc., 59 Temple Place, Suite 330, Boston, MA  02111 USA    *
  16:AFSK.cpp      ****  *                                                                         *
  17:AFSK.cpp      ****  ***************************************************************************
  18:AFSK.cpp      ****  *                                                                         *
  19:AFSK.cpp      ****  *               (c) Copyright, 2001-2008, Michael Gray                    *
  20:AFSK.cpp      ****  *                                                                         *
  21:AFSK.cpp      ****  ***************************************************************************
  22:AFSK.cpp      ****  *                                                                         *
  23:AFSK.cpp      ****  * Filename:     AFSK.cpp                                                  *
  24:AFSK.cpp      ****  *                                                                         *
  25:AFSK.cpp      ****  ***************************************************************************/
  26:AFSK.cpp      **** 
  27:AFSK.cpp      **** #include "main.h"
  28:AFSK.cpp      **** 
  29:AFSK.cpp      **** /// Reserve memory for singleton object.
  30:AFSK.cpp      **** static AFSK afskSingletonObject;
  31:AFSK.cpp      **** 
  32:AFSK.cpp      **** /**
  33:AFSK.cpp      ****  *  Get a pointer to the Waveform waveform generation object.
  34:AFSK.cpp      ****  */
ARM GAS  /tmp/cc08otWR.s 			page 3


  35:AFSK.cpp      **** AFSK *AFSK::GetInstance()
  36:AFSK.cpp      **** {
  77              		.loc 1 36 0
  78              		.cfi_startproc
  79              		@ Function supports interworking.
  80              		@ args = 0, pretend = 0, frame = 0
  81              		@ frame_needed = 0, uses_anonymous_args = 0
  82              		@ link register save eliminated.
  37:AFSK.cpp      ****     return  &afskSingletonObject;
  38:AFSK.cpp      **** }
  83              		.loc 1 38 0
  84 0000 00001FE5 		ldr	r0, .L2	@,
  85 0004 1EFF2FE1 		bx	lr	@
  86              	.L3:
  87              		.align	2
  88              	.L2:
  89 0008 00000000 		.word	.LANCHOR0
  90              		.cfi_endproc
  91              	.LFE109:
  92              		.size	_ZN4AFSK11GetInstanceEv, .-_ZN4AFSK11GetInstanceEv
  93              		.section	.text._ZN4AFSKC2Ev,"ax",%progbits
  94              		.align	2
  95              		.global	_ZN4AFSKC2Ev
  96              		.type	_ZN4AFSKC2Ev, %function
  97              	_ZN4AFSKC2Ev:
  98              	.LFB111:
  39:AFSK.cpp      **** 
  40:AFSK.cpp      **** /// Default destination address to transmit if one is not specified.
  41:AFSK.cpp      **** const char DEFAULT_DEST_ADDRESS[] = { "APRS" };
  42:AFSK.cpp      **** 
  43:AFSK.cpp      **** /**
  44:AFSK.cpp      ****  * Constructor.
  45:AFSK.cpp      ****  */
  46:AFSK.cpp      **** AFSK::AFSK()
  99              		.loc 1 46 0
 100              		.cfi_startproc
 101              		@ Function supports interworking.
 102              		@ args = 0, pretend = 0, frame = 0
 103              		@ frame_needed = 0, uses_anonymous_args = 0
 104              	.LVL0:
 105 0000 30402DE9 		stmfd	sp!, {r4, r5, lr}	@,
 106              	.LCFI0:
 107              		.cfi_def_cfa_offset 12
 108 0004 0CD04DE2 		sub	sp, sp, #12	@,,
 109              	.LCFI1:
 110              		.cfi_def_cfa_offset 24
 111              		.loc 1 46 0
 112 0008 0040A0E1 		mov	r4, r0	@ this, this
 113              		.cfi_offset 14, -4
 114              		.cfi_offset 5, -8
 115              		.cfi_offset 4, -12
 116              	.LBB4:
 117 000c FEFFFFEB 		bl	_ZN4AX25C1Ev	@
 118              	.LVL1:
  47:AFSK.cpp      **** {
  48:AFSK.cpp      ****     this->modem = CMX867A::GetInstance();
 119              		.loc 1 48 0
ARM GAS  /tmp/cc08otWR.s 			page 4


 120 0010 FEFFFFEB 		bl	_ZN7CMX867A11GetInstanceEv	@
  49:AFSK.cpp      **** 
  50:AFSK.cpp      ****     this->txFlag = false;
 121              		.loc 1 50 0
 122 0014 0050A0E3 		mov	r5, #0	@ tmp137,
  48:AFSK.cpp      ****     this->modem = CMX867A::GetInstance();
 123              		.loc 1 48 0
 124 0018 000184E5 		str	r0, [r4, #256]	@, this_1(D)->modem
  51:AFSK.cpp      ****     this->txDoneFlag = false;
  52:AFSK.cpp      **** 
  53:AFSK.cpp      ****     // Set the preamble time to 200mS.
  54:AFSK.cpp      ****     ax25.SetPreambleCount (30);
 125              		.loc 1 54 0
 126 001c 1E10A0E3 		mov	r1, #30	@,
 127 0020 0400A0E1 		mov	r0, r4	@, this
  50:AFSK.cpp      ****     this->txFlag = false;
 128              		.loc 1 50 0
 129 0024 0451C4E5 		strb	r5, [r4, #260]	@ tmp137, this_1(D)->txFlag
  51:AFSK.cpp      ****     this->txDoneFlag = false;
 130              		.loc 1 51 0
 131 0028 0C51C4E5 		strb	r5, [r4, #268]	@ tmp137, this_1(D)->txDoneFlag
 132              		.loc 1 54 0
 133 002c FEFFFFEB 		bl	_ZN4AX2516SetPreambleCountEm	@
  55:AFSK.cpp      **** 
  56:AFSK.cpp      ****     // Set the source, destination, and DIGI paths.
  57:AFSK.cpp      ****     ax25.SetSourceAddress ("KD7LMO", 11);
 134              		.loc 1 57 0
 135 0030 0400A0E1 		mov	r0, r4	@, this
 136 0034 40109FE5 		ldr	r1, .L6	@,
 137 0038 0B20A0E3 		mov	r2, #11	@,
 138 003c FEFFFFEB 		bl	_ZN4AX2516SetSourceAddressEPKcm	@
  58:AFSK.cpp      ****     ax25.SetDestAddress ("APRS", 0);
 139              		.loc 1 58 0
 140 0040 0400A0E1 		mov	r0, r4	@, this
 141 0044 0520A0E1 		mov	r2, r5	@, tmp137
 142 0048 30109FE5 		ldr	r1, .L6+4	@,
 143 004c FEFFFFEB 		bl	_ZN4AX2514SetDestAddressEPKcm	@
  59:AFSK.cpp      ****     ax25.SetDigiPath ("GATE", 0, "WIDE2", 2);
 144              		.loc 1 59 0
 145 0050 0400A0E1 		mov	r0, r4	@, this
 146 0054 02C0A0E3 		mov	ip, #2	@ tmp145,
 147 0058 24109FE5 		ldr	r1, .L6+8	@,
 148 005c 0520A0E1 		mov	r2, r5	@, tmp137
 149 0060 20309FE5 		ldr	r3, .L6+12	@,
 150 0064 00C08DE5 		str	ip, [sp, #0]	@ tmp145,
 151 0068 FEFFFFEB 		bl	_ZN4AX2511SetDigiPathEPKcmS1_m	@
 152              	.LBE4:
  60:AFSK.cpp      **** }
 153              		.loc 1 60 0
 154 006c 0400A0E1 		mov	r0, r4	@, this
 155 0070 0CD08DE2 		add	sp, sp, #12	@,,
 156 0074 3040BDE8 		ldmfd	sp!, {r4, r5, lr}
 157 0078 1EFF2FE1 		bx	lr
 158              	.L7:
 159              		.align	2
 160              	.L6:
 161 007c 00000000 		.word	.LC0
ARM GAS  /tmp/cc08otWR.s 			page 5


 162 0080 08000000 		.word	.LC1
 163 0084 10000000 		.word	.LC2
 164 0088 18000000 		.word	.LC3
 165              		.cfi_endproc
 166              	.LFE111:
 167              		.size	_ZN4AFSKC2Ev, .-_ZN4AFSKC2Ev
 168              		.global	_ZN4AFSKC1Ev
 169              		.set	_ZN4AFSKC1Ev,_ZN4AFSKC2Ev
 170              		.section	.text._ZN4AFSK8TransmitEPKcS1_,"ax",%progbits
 171              		.align	2
 172              		.global	_ZN4AFSK8TransmitEPKcS1_
 173              		.type	_ZN4AFSK8TransmitEPKcS1_, %function
 174              	_ZN4AFSK8TransmitEPKcS1_:
 175              	.LFB113:
  61:AFSK.cpp      **** 
  62:AFSK.cpp      **** 
  63:AFSK.cpp      **** /**
  64:AFSK.cpp      ****  * Generate and transmit a text string with AX.25 encoding and A-FSK modulation.
  65:AFSK.cpp      ****  *
  66:AFSK.cpp      ****  * @param destAddress pointer to NULL terminated string that contains destination address
  67:AFSK.cpp      ****  * @param text pointer to NULL terminated string to send
  68:AFSK.cpp      ****  */
  69:AFSK.cpp      **** void AFSK::Transmit (const char *text, const char *destAddress)
  70:AFSK.cpp      **** {
 176              		.loc 1 70 0
 177              		.cfi_startproc
 178              		@ Function supports interworking.
 179              		@ args = 0, pretend = 0, frame = 0
 180              		@ frame_needed = 0, uses_anonymous_args = 0
 181              	.LVL2:
 182 0000 38402DE9 		stmfd	sp!, {r3, r4, r5, lr}	@,
 183              	.LCFI2:
 184              		.cfi_def_cfa_offset 16
  71:AFSK.cpp      ****     if (this->txFlag)
 185              		.loc 1 71 0
 186 0004 0431D0E5 		ldrb	r3, [r0, #260]	@ zero_extendqisi2	@ this_1(D)->txFlag, this_1(D)->txFlag
 187              		.cfi_offset 14, -4
 188              		.cfi_offset 5, -8
 189              		.cfi_offset 4, -12
 190              		.cfi_offset 3, -16
 191 0008 000053E3 		cmp	r3, #0	@ this_1(D)->txFlag,
  70:AFSK.cpp      **** {
 192              		.loc 1 70 0
 193 000c 0150A0E1 		mov	r5, r1	@ text, text
 194 0010 0040A0E1 		mov	r4, r0	@ this, this
 195 0014 0210A0E1 		mov	r1, r2	@ destAddress, destAddress
 196              	.LVL3:
 197              		.loc 1 71 0
 198 0018 0F00001A 		bne	.L8	@,
 199              	.LVL4:
  72:AFSK.cpp      ****         return;
  73:AFSK.cpp      **** 
  74:AFSK.cpp      ****     if (destAddress == NULL)
 200              		.loc 1 74 0
 201 001c 000052E3 		cmp	r2, #0	@ destAddress,
  75:AFSK.cpp      ****         ax25.SetDestAddress (DEFAULT_DEST_ADDRESS, 0);
  76:AFSK.cpp      ****     else
ARM GAS  /tmp/cc08otWR.s 			page 6


  77:AFSK.cpp      ****         ax25.SetDestAddress (destAddress, 0);
 202              		.loc 1 77 0
 203 0020 0320A011 		movne	r2, r3	@, this_1(D)->txFlag
  75:AFSK.cpp      ****         ax25.SetDestAddress (DEFAULT_DEST_ADDRESS, 0);
 204              		.loc 1 75 0
 205 0024 38109F05 		ldreq	r1, .L13	@,
 206              	.LVL5:
 207              		.loc 1 77 0
 208 0028 FEFFFFEB 		bl	_ZN4AX2514SetDestAddressEPKcm	@
 209              	.LVL6:
  78:AFSK.cpp      **** 
  79:AFSK.cpp      ****     // Generate the AX.25 stream.
  80:AFSK.cpp      ****     ax25.GenerateMessage (text);
 210              		.loc 1 80 0
 211 002c 0400A0E1 		mov	r0, r4	@, this
 212 0030 0510A0E1 		mov	r1, r5	@, text
 213 0034 FEFFFFEB 		bl	_ZN4AX2515GenerateMessageEPKc	@
  81:AFSK.cpp      **** 
  82:AFSK.cpp      ****     // Set a pointer to the first byte in the message.
  83:AFSK.cpp      ****     this->messageIndex = 0;
 214              		.loc 1 83 0
 215 0038 0020A0E3 		mov	r2, #0	@ tmp142,
  84:AFSK.cpp      **** 
  85:AFSK.cpp      ****     IOPorts::StatusLED (IOPorts::LEDRed, true);
 216              		.loc 1 85 0
 217 003c 0200A0E1 		mov	r0, r2	@, tmp142
 218 0040 0110A0E3 		mov	r1, #1	@,
  83:AFSK.cpp      ****     this->messageIndex = 0;
 219              		.loc 1 83 0
 220 0044 082184E5 		str	r2, [r4, #264]	@ tmp142, this_1(D)->messageIndex
 221              		.loc 1 85 0
 222 0048 FEFFFFEB 		bl	_ZN7IOPorts9StatusLEDENS_10STATUS_LEDEb	@
  86:AFSK.cpp      ****     IOPorts::RadioPTT(true);
 223              		.loc 1 86 0
 224 004c 0100A0E3 		mov	r0, #1	@,
 225 0050 FEFFFFEB 		bl	_ZN7IOPorts8RadioPTTEb	@
  87:AFSK.cpp      **** 
  88:AFSK.cpp      ****     this->txFlag = true;
 226              		.loc 1 88 0
 227 0054 0130A0E3 		mov	r3, #1	@ tmp143,
 228 0058 0431C4E5 		strb	r3, [r4, #260]	@ tmp143, this_1(D)->txFlag
 229              	.L8:
  89:AFSK.cpp      **** }
 230              		.loc 1 89 0
 231 005c 3840BDE8 		ldmfd	sp!, {r3, r4, r5, lr}
 232 0060 1EFF2FE1 		bx	lr
 233              	.L14:
 234              		.align	2
 235              	.L13:
 236 0064 00000000 		.word	.LANCHOR1
 237              		.cfi_endproc
 238              	.LFE113:
 239              		.size	_ZN4AFSK8TransmitEPKcS1_, .-_ZN4AFSK8TransmitEPKcS1_
 240              		.section	.text._ZN4AFSK6UpdateEv,"ax",%progbits
 241              		.align	2
 242              		.global	_ZN4AFSK6UpdateEv
 243              		.type	_ZN4AFSK6UpdateEv, %function
ARM GAS  /tmp/cc08otWR.s 			page 7


 244              	_ZN4AFSK6UpdateEv:
 245              	.LFB114:
  90:AFSK.cpp      **** 
  91:AFSK.cpp      **** /**
  92:AFSK.cpp      ****  * Method that is periodically called in the same thread as the transmit methods.
  93:AFSK.cpp      ****  */
  94:AFSK.cpp      **** void AFSK::Update()
  95:AFSK.cpp      **** {
 246              		.loc 1 95 0
 247              		.cfi_startproc
 248              		@ Function supports interworking.
 249              		@ args = 0, pretend = 0, frame = 0
 250              		@ frame_needed = 0, uses_anonymous_args = 0
 251              	.LVL7:
 252 0000 38402DE9 		stmfd	sp!, {r3, r4, r5, lr}	@,
 253              	.LCFI3:
 254              		.cfi_def_cfa_offset 16
  96:AFSK.cpp      ****     // Quit if we don't have any data to transmit.
  97:AFSK.cpp      ****     if (!this->txFlag)
 255              		.loc 1 97 0
 256 0004 0431D0E5 		ldrb	r3, [r0, #260]	@ zero_extendqisi2	@ this_1(D)->txFlag, this_1(D)->txFlag
 257              		.cfi_offset 14, -4
 258              		.cfi_offset 5, -8
 259              		.cfi_offset 4, -12
 260              		.cfi_offset 3, -16
 261 0008 000053E3 		cmp	r3, #0	@ this_1(D)->txFlag,
  95:AFSK.cpp      **** {
 262              		.loc 1 95 0
 263 000c 0040A0E1 		mov	r4, r0	@ this, this
 264              		.loc 1 97 0
 265 0010 0100001A 		bne	.L18	@,
 266              	.LVL8:
 267              	.L15:
  98:AFSK.cpp      ****         return;
  99:AFSK.cpp      **** 
 100:AFSK.cpp      ****     // Determine if the MODEM is ready for another byte.
 101:AFSK.cpp      ****     if (!this->modem->IsTxDataReady())
 102:AFSK.cpp      ****         return;
 103:AFSK.cpp      **** 
 104:AFSK.cpp      ****     // If we are the end of the message, shut down the radio.
 105:AFSK.cpp      ****     if (this->messageIndex == ax25.Length())
 106:AFSK.cpp      ****     {
 107:AFSK.cpp      ****         IOPorts::RadioPTT(false);
 108:AFSK.cpp      ****         IOPorts::StatusLED (IOPorts::LEDRed, false);
 109:AFSK.cpp      **** 
 110:AFSK.cpp      ****         this->txFlag = false;
 111:AFSK.cpp      **** 
 112:AFSK.cpp      ****         return;
 113:AFSK.cpp      ****     } // END if
 114:AFSK.cpp      **** 
 115:AFSK.cpp      ****     // Send the next byte in the stream.
 116:AFSK.cpp      ****     this->modem->SendByte(ax25.Stream()[this->messageIndex]);
 117:AFSK.cpp      **** 
 118:AFSK.cpp      ****     // And select the next byte.
 119:AFSK.cpp      ****     ++this->messageIndex;
 120:AFSK.cpp      **** }
 268              		.loc 1 120 0
ARM GAS  /tmp/cc08otWR.s 			page 8


 269 0014 3840BDE8 		ldmfd	sp!, {r3, r4, r5, lr}
 270 0018 1EFF2FE1 		bx	lr
 271              	.L18:
 101:AFSK.cpp      ****     if (!this->modem->IsTxDataReady())
 272              		.loc 1 101 0
 273 001c 000190E5 		ldr	r0, [r0, #256]	@, this_1(D)->modem
 274 0020 FEFFFFEB 		bl	_ZN7CMX867A13IsTxDataReadyEv	@
 275 0024 000050E3 		cmp	r0, #0	@,
 276 0028 F9FFFF0A 		beq	.L15	@,
 105:AFSK.cpp      ****     if (this->messageIndex == ax25.Length())
 277              		.loc 1 105 0
 278 002c 0400A0E1 		mov	r0, r4	@, this
 279 0030 085194E5 		ldr	r5, [r4, #264]	@ D.10239, this_1(D)->messageIndex
 280 0034 FEFFFFEB 		bl	_ZN4AX256LengthEv	@
 281 0038 000055E1 		cmp	r5, r0	@ D.10239,
 282 003c 0A00000A 		beq	.L19	@,
 116:AFSK.cpp      ****     this->modem->SendByte(ax25.Stream()[this->messageIndex]);
 283              		.loc 1 116 0
 284 0040 0400A0E1 		mov	r0, r4	@, this
 285 0044 005194E5 		ldr	r5, [r4, #256]	@ D.10234, this_1(D)->modem
 286 0048 FEFFFFEB 		bl	_ZN4AX256StreamEv	@
 287 004c 08C194E5 		ldr	ip, [r4, #264]	@ this_1(D)->messageIndex, this_1(D)->messageIndex
 288 0050 0C10D0E7 		ldrb	r1, [r0, ip]	@ zero_extendqisi2	@ tmp153,* this_1(D)->messageIndex
 289 0054 0500A0E1 		mov	r0, r5	@, D.10234
 290 0058 FEFFFFEB 		bl	_ZN7CMX867A8SendByteEh	@
 119:AFSK.cpp      ****     ++this->messageIndex;
 291              		.loc 1 119 0
 292 005c 082194E5 		ldr	r2, [r4, #264]	@ this_1(D)->messageIndex, this_1(D)->messageIndex
 293 0060 011082E2 		add	r1, r2, #1	@ tmp155, this_1(D)->messageIndex,
 294 0064 081184E5 		str	r1, [r4, #264]	@ tmp155, this_1(D)->messageIndex
 295 0068 E9FFFFEA 		b	.L15	@
 296              	.L19:
 107:AFSK.cpp      ****         IOPorts::RadioPTT(false);
 297              		.loc 1 107 0
 298 006c 0000A0E3 		mov	r0, #0	@,
 299 0070 FEFFFFEB 		bl	_ZN7IOPorts8RadioPTTEb	@
 108:AFSK.cpp      ****         IOPorts::StatusLED (IOPorts::LEDRed, false);
 300              		.loc 1 108 0
 301 0074 0000A0E3 		mov	r0, #0	@,
 302 0078 0010A0E1 		mov	r1, r0	@,
 303 007c FEFFFFEB 		bl	_ZN7IOPorts9StatusLEDENS_10STATUS_LEDEb	@
 110:AFSK.cpp      ****         this->txFlag = false;
 304              		.loc 1 110 0
 305 0080 0000A0E3 		mov	r0, #0	@ tmp150,
 306 0084 0401C4E5 		strb	r0, [r4, #260]	@ tmp150, this_1(D)->txFlag
 112:AFSK.cpp      ****         return;
 307              		.loc 1 112 0
 308 0088 E1FFFFEA 		b	.L15	@
 309              		.cfi_endproc
 310              	.LFE114:
 311              		.size	_ZN4AFSK6UpdateEv, .-_ZN4AFSK6UpdateEv
 312              		.section	.text._ZN4AFSK10IsTransmitEv,"ax",%progbits
 313              		.align	2
 314              		.global	_ZN4AFSK10IsTransmitEv
 315              		.type	_ZN4AFSK10IsTransmitEv, %function
 316              	_ZN4AFSK10IsTransmitEv:
 317              	.LFB115:
ARM GAS  /tmp/cc08otWR.s 			page 9


 121:AFSK.cpp      **** 
 122:AFSK.cpp      **** /**
 123:AFSK.cpp      ****  * Indicates if a transmission is in progress.
 124:AFSK.cpp      ****  *
 125:AFSK.cpp      ****  * @return true if in transmit mode; otherwise false
 126:AFSK.cpp      ****  */
 127:AFSK.cpp      **** bool_t AFSK::IsTransmit()
 128:AFSK.cpp      **** {
 318              		.loc 1 128 0
 319              		.cfi_startproc
 320              		@ Function supports interworking.
 321              		@ args = 0, pretend = 0, frame = 0
 322              		@ frame_needed = 0, uses_anonymous_args = 0
 323              		@ link register save eliminated.
 324              	.LVL9:
 129:AFSK.cpp      ****     return this->txFlag;
 130:AFSK.cpp      **** }
 325              		.loc 1 130 0
 326 0000 0401D0E5 		ldrb	r0, [r0, #260]	@ zero_extendqisi2	@, this_1(D)->txFlag
 327              	.LVL10:
 328 0004 1EFF2FE1 		bx	lr	@
 329              		.cfi_endproc
 330              	.LFE115:
 331              		.size	_ZN4AFSK10IsTransmitEv, .-_ZN4AFSK10IsTransmitEv
 332              		.section	.text._GLOBAL__I__ZN4AFSK11GetInstanceEv,"ax",%progbits
 333              		.align	2
 334              		.type	_GLOBAL__I__ZN4AFSK11GetInstanceEv, %function
 335              	_GLOBAL__I__ZN4AFSK11GetInstanceEv:
 336              	.LFB117:
 337              		.loc 1 130 0
 338              		.cfi_startproc
 339              		@ Function supports interworking.
 340              		@ args = 0, pretend = 0, frame = 0
 341              		@ frame_needed = 0, uses_anonymous_args = 0
 342              		@ link register save eliminated.
 343              	.LVL11:
 344              	.LBB5:
 345              	.LBB6:
  30:AFSK.cpp      **** static AFSK afskSingletonObject;
 346              		.loc 1 30 0
 347 0000 00001FE5 		ldr	r0, .L22	@,
 348              	.LBE6:
 349              	.LBE5:
 350              		.loc 1 130 0
 351              	.LBB8:
 352              	.LBB7:
  30:AFSK.cpp      **** static AFSK afskSingletonObject;
 353              		.loc 1 30 0
 354 0004 FEFFFFEA 		b	_ZN4AFSKC1Ev	@
 355              	.L23:
 356              		.align	2
 357              	.L22:
 358 0008 00000000 		.word	.LANCHOR0
 359              	.LBE7:
 360              	.LBE8:
 361              		.cfi_endproc
 362              	.LFE117:
ARM GAS  /tmp/cc08otWR.s 			page 10


 363              		.size	_GLOBAL__I__ZN4AFSK11GetInstanceEv, .-_GLOBAL__I__ZN4AFSK11GetInstanceEv
 364              		.section	.init_array,"aw",%init_array
 365              		.align	2
 366 0000 00000000 		.word	_GLOBAL__I__ZN4AFSK11GetInstanceEv(target1)
 367              		.section	.rodata
 368              		.align	2
 369              		.set	.LANCHOR1,. + 0
 370              		.type	_ZL20DEFAULT_DEST_ADDRESS, %object
 371              		.size	_ZL20DEFAULT_DEST_ADDRESS, 5
 372              	_ZL20DEFAULT_DEST_ADDRESS:
 373 0000 41505253 		.ascii	"APRS\000"
 373      00
 374 0005 000000   		.section	.rodata.str1.4,"aMS",%progbits,1
 375              		.align	2
 376              	.LC0:
 377 0000 4B44374C 		.ascii	"KD7LMO\000"
 377      4D4F00
 378 0007 00       		.space	1
 379              	.LC1:
 380 0008 41505253 		.ascii	"APRS\000"
 380      00
 381 000d 000000   		.space	3
 382              	.LC2:
 383 0010 47415445 		.ascii	"GATE\000"
 383      00
 384 0015 000000   		.space	3
 385              	.LC3:
 386 0018 57494445 		.ascii	"WIDE2\000"
 386      3200
 387 001e 0000     		.bss
 388              		.align	2
 389              		.set	.LANCHOR0,. + 0
 390              		.type	_ZL19afskSingletonObject, %object
 391              		.size	_ZL19afskSingletonObject, 272
 392              	_ZL19afskSingletonObject:
 393 0000 00000000 		.space	272
 393      00000000 
 393      00000000 
 393      00000000 
 393      00000000 
 394              		.text
 395              	.Letext0: