ARM GAS  /tmp/ccwv63ZI.s 			page 1


   1              		.cpu arm7tdmi
   2              		.fpu softvfp
   3              		.eabi_attribute 20, 1
   4              		.eabi_attribute 21, 1
   5              		.eabi_attribute 23, 3
   6              		.eabi_attribute 24, 1
   7              		.eabi_attribute 25, 1
   8              		.eabi_attribute 26, 1
   9              		.eabi_attribute 30, 2
  10              		.eabi_attribute 18, 4
  11              		.file	"APRSBeacon.cpp"
  12              	@ GNU C++ (Sourcery G++ Lite 2011.03-42) version 4.5.2 (arm-none-eabi)
  13              	@	compiled by GNU C version 4.3.2, GMP version 4.3.2, MPFR version 2.4.2, MPC version 0.8.1
  14              	@ GGC heuristics: --param ggc-min-expand=100 --param ggc-min-heapsize=131072
  15              	@ options passed:  -I . -I../arm/arm7lib -iprefix
  16              	@ /home/elijah/CodeSourcery/Sourcery_G++_Lite/bin/../lib/gcc/arm-none-eabi/4.5.2/
  17              	@ -isysroot
  18              	@ /home/elijah/CodeSourcery/Sourcery_G++_Lite/bin/../arm-none-eabi -MD
  19              	@ APRSBeacon.d -MF .dep/APRSBeacon.o.d -MP -MQ APRSBeacon.o
  20              	@ -D__USES_INITFINI__ -D__CS_SOURCERYGXX_MAJ__=2011
  21              	@ -D__CS_SOURCERYGXX_MIN__=3 -D__CS_SOURCERYGXX_REV__=42 APRSBeacon.cpp
  22              	@ -mcpu=arm7tdmi -auxbase-strip APRSBeacon.o -gdwarf-2 -O2 -Wall -fno-rtti
  23              	@ -fno-exceptions -fomit-frame-pointer -ffunction-sections -fverbose-asm
  24              	@ -fremove-local-statics
  25              	@ options enabled:  -falign-loops -fargument-alias -fauto-inc-dec
  26              	@ -fbranch-count-reg -fcaller-saves -fcommon -fcprop-registers
  27              	@ -fcrossjumping -fcse-follow-jumps -fdefer-pop
  28              	@ -fdelete-null-pointer-checks -fdwarf2-cfi-asm -fearly-inlining
  29              	@ -feliminate-unused-debug-types -fexpensive-optimizations
  30              	@ -fextension-elimination -fforward-propagate -ffunction-cse
  31              	@ -ffunction-sections -fgcse -fgcse-lm -fguess-branch-probability -fident
  32              	@ -fif-conversion -fif-conversion2 -findirect-inlining -finline
  33              	@ -finline-functions-called-once -finline-small-functions -fipa-cp
  34              	@ -fipa-pure-const -fipa-reference -fipa-sra -fira-share-save-slots
  35              	@ -fira-share-spill-slots -fivopts -fkeep-static-consts
  36              	@ -fleading-underscore -fmath-errno -fmerge-constants -fmerge-debug-strings
  37              	@ -fmove-loop-invariants -fomit-frame-pointer -foptimize-register-move
  38              	@ -foptimize-sibling-calls -fpeephole -fpeephole2 -fpromote-loop-indices
  39              	@ -freg-struct-return -fregmove -frename-registers -freorder-blocks
  40              	@ -freorder-functions -frerun-cse-after-loop
  41              	@ -fsched-critical-path-heuristic -fsched-dep-count-heuristic
  42              	@ -fsched-group-heuristic -fsched-interblock -fsched-last-insn-heuristic
  43              	@ -fsched-rank-heuristic -fsched-spec -fsched-spec-insn-heuristic
  44              	@ -fsched-stalled-insns-dep -fschedule-insns -fschedule-insns2
  45              	@ -fsection-anchors -fshow-column -fsigned-zeros -fsplit-ivs-in-unroller
  46              	@ -fsplit-wide-types -fstrict-aliasing -fstrict-overflow
  47              	@ -fstrict-volatile-bitfields -fthread-jumps -ftoplevel-reorder
  48              	@ -ftrapping-math -ftree-builtin-call-dce -ftree-ccp -ftree-ch
  49              	@ -ftree-copy-prop -ftree-copyrename -ftree-cselim -ftree-dce
  50              	@ -ftree-dominator-opts -ftree-dse -ftree-forwprop -ftree-fre
  51              	@ -ftree-if-to-switch-conversion -ftree-loop-im -ftree-loop-ivcanon
  52              	@ -ftree-loop-optimize -ftree-parallelize-loops= -ftree-phiprop -ftree-pre
  53              	@ -ftree-pta -ftree-reassoc -ftree-scev-cprop -ftree-sink
  54              	@ -ftree-slp-vectorize -ftree-sra -ftree-switch-conversion -ftree-ter
  55              	@ -ftree-vect-loop-version -ftree-vrp -funit-at-a-time -funroll-loops
  56              	@ -fvar-tracking -fvar-tracking-assignments -fverbose-asm -fweb
  57              	@ -fzero-initialized-in-bss -mlittle-endian -msched-prolog
ARM GAS  /tmp/ccwv63ZI.s 			page 2


  58              	@ -mthumb-interwork
  59              	
  66 0000 BD050000 		.text
  66      0200FF03 
  66      00000201 
  66      FB0E0D00 
  66      01010101 
  67              	.Ltext0:
  68              	@ Compiler executable checksum: cfdaeede3ac8e9b2b599068efabc405c
  69              	
  70              		.cfi_sections	.debug_frame
  71              		.section	.text._ZN7CMX867A8SPIWriteEh,"ax",%progbits
  72              		.align	2
  73              		.global	_ZN7CMX867A8SPIWriteEh
  74              		.type	_ZN7CMX867A8SPIWriteEh, %function
  75              	_ZN7CMX867A8SPIWriteEh:
  76              	.LFB117:
  77              		.file 1 "APRSBeacon.cpp"
   1:APRSBeacon.cpp **** /***************************************************************************
   2:APRSBeacon.cpp ****  *                                                                         *
   3:APRSBeacon.cpp ****  *  This program is free software; you can redistribute it and/or modify   *
   4:APRSBeacon.cpp ****  *  it under the terms of the GNU General Public License as published by   *
   5:APRSBeacon.cpp ****  *  the Free Software Foundation; either version 2 of the License, or      *
   6:APRSBeacon.cpp ****  *  (at your option) any later version.                                    *
   7:APRSBeacon.cpp ****  *                                                                         *
   8:APRSBeacon.cpp ****  *  This program is distributed in the hope that it will be useful,        *
   9:APRSBeacon.cpp ****  *  but WITHOUT ANY WARRANTY; without even the implied warranty of         *
  10:APRSBeacon.cpp ****  *  MERCHANTABILITY or FITNESS FOR A PARTICULAR PURPOSE.  See the          *
  11:APRSBeacon.cpp ****  *  GNU General Public License for more details.                           *
  12:APRSBeacon.cpp ****  *                                                                         *
  13:APRSBeacon.cpp ****  *  You should have received a copy of the GNU General Public License      *
  14:APRSBeacon.cpp ****  *  along with this program; if not, write to the Free Software            *
  15:APRSBeacon.cpp ****  *  Foundation, Inc., 59 Temple Place, Suite 330, Boston, MA  02111 USA    *
  16:APRSBeacon.cpp ****  *                                                                         *
  17:APRSBeacon.cpp ****  ***************************************************************************
  18:APRSBeacon.cpp ****  *                                                                         *
  19:APRSBeacon.cpp ****  *               (c) Copyright, 2001-2008, Michael Gray                    *
  20:APRSBeacon.cpp ****  *                                                                         *
  21:APRSBeacon.cpp ****  ***************************************************************************
  22:APRSBeacon.cpp ****  *                                                                         *
  23:APRSBeacon.cpp ****  * Filename:     APRSBeacon.cpp                                            *
  24:APRSBeacon.cpp ****  *                                                                         *
  25:APRSBeacon.cpp ****  ***************************************************************************/
  26:APRSBeacon.cpp **** 
  27:APRSBeacon.cpp **** #include "main.h"
  28:APRSBeacon.cpp **** 
  29:APRSBeacon.cpp **** bool_t GPSLassen::HasData()
  30:APRSBeacon.cpp **** {
  31:APRSBeacon.cpp ****     return UART1::GetInstance()->IsCharReady();
  32:APRSBeacon.cpp **** }
  33:APRSBeacon.cpp **** uint8_t GPSLassen::ReadData()
ARM GAS  /tmp/ccwv63ZI.s 			page 3


  34:APRSBeacon.cpp **** {
  35:APRSBeacon.cpp ****     return UART1::GetInstance()->ReadChar();
  36:APRSBeacon.cpp **** }
  37:APRSBeacon.cpp **** 
  38:APRSBeacon.cpp **** void GPSLassen::WriteData(uint8_t data)
  39:APRSBeacon.cpp **** {
  40:APRSBeacon.cpp ****     UART1::GetInstance()->WriteChar (data);
  41:APRSBeacon.cpp **** }
  42:APRSBeacon.cpp **** 
  43:APRSBeacon.cpp **** void M25P80::IOSetCS(bool_t state)
  44:APRSBeacon.cpp **** {
  45:APRSBeacon.cpp ****     SPI1::GetInstance()->SetCS (state);
  46:APRSBeacon.cpp **** }
  47:APRSBeacon.cpp **** 
  48:APRSBeacon.cpp **** uint8_t M25P80::SPIRead()
  49:APRSBeacon.cpp **** {
  50:APRSBeacon.cpp ****     return SPI1::GetInstance()->Read();
  51:APRSBeacon.cpp **** }
  52:APRSBeacon.cpp **** 
  53:APRSBeacon.cpp **** void M25P80::SPIWrite(uint8_t data)
  54:APRSBeacon.cpp **** {
  55:APRSBeacon.cpp ****     SPI1::GetInstance()->Write(data);
  56:APRSBeacon.cpp **** }
  57:APRSBeacon.cpp **** 
  58:APRSBeacon.cpp **** void CMX867A::IOSetCS(bool_t state)
  59:APRSBeacon.cpp **** {
  60:APRSBeacon.cpp ****     SPI0::GetInstance()->SetCS(state);
  61:APRSBeacon.cpp **** }
  62:APRSBeacon.cpp **** 
  63:APRSBeacon.cpp **** uint8_t CMX867A::SPIRead()
  64:APRSBeacon.cpp **** {
  65:APRSBeacon.cpp ****     return SPI0::GetInstance()->Read();
  66:APRSBeacon.cpp **** }
  67:APRSBeacon.cpp **** 
  68:APRSBeacon.cpp **** void CMX867A::SPIWrite(uint8_t data)
  69:APRSBeacon.cpp **** {
  78              		.loc 1 69 0
  79              		.cfi_startproc
  80              		@ Function supports interworking.
  81              		@ args = 0, pretend = 0, frame = 0
  82              		@ frame_needed = 0, uses_anonymous_args = 0
  83              	.LVL0:
  84 0000 10402DE9 		stmfd	sp!, {r4, lr}	@,
  85              	.LCFI0:
  86              		.cfi_def_cfa_offset 8
  87              		.loc 1 69 0
  88 0004 0140A0E1 		mov	r4, r1	@ data, data
  89              		.cfi_offset 14, -4
  90              		.cfi_offset 4, -8
  70:APRSBeacon.cpp ****     SPI0::GetInstance()->Write(data);
  91              		.loc 1 70 0
  92 0008 FEFFFFEB 		bl	_ZN4SPI011GetInstanceEv	@
  93              	.LVL1:
  94 000c 0410A0E1 		mov	r1, r4	@, data
  95 0010 FEFFFFEB 		bl	_ZN4SPI05WriteEh	@
  71:APRSBeacon.cpp **** }
  96              		.loc 1 71 0
ARM GAS  /tmp/ccwv63ZI.s 			page 4


  97 0014 1040BDE8 		ldmfd	sp!, {r4, lr}
  98 0018 1EFF2FE1 		bx	lr
  99              		.cfi_endproc
 100              	.LFE117:
 101              		.size	_ZN7CMX867A8SPIWriteEh, .-_ZN7CMX867A8SPIWriteEh
 102              		.section	.text._ZN7CMX867A7SPIReadEv,"ax",%progbits
 103              		.align	2
 104              		.global	_ZN7CMX867A7SPIReadEv
 105              		.type	_ZN7CMX867A7SPIReadEv, %function
 106              	_ZN7CMX867A7SPIReadEv:
 107              	.LFB116:
  64:APRSBeacon.cpp **** {
 108              		.loc 1 64 0
 109              		.cfi_startproc
 110              		@ Function supports interworking.
 111              		@ args = 0, pretend = 0, frame = 0
 112              		@ frame_needed = 0, uses_anonymous_args = 0
 113              	.LVL2:
 114 0000 08402DE9 		stmfd	sp!, {r3, lr}	@,
 115              	.LCFI1:
 116              		.cfi_def_cfa_offset 8
  65:APRSBeacon.cpp ****     return SPI0::GetInstance()->Read();
 117              		.loc 1 65 0
 118              		.cfi_offset 14, -4
 119              		.cfi_offset 3, -8
 120 0004 FEFFFFEB 		bl	_ZN4SPI011GetInstanceEv	@
 121              	.LVL3:
 122 0008 FEFFFFEB 		bl	_ZN4SPI04ReadEv	@
  66:APRSBeacon.cpp **** }
 123              		.loc 1 66 0
 124 000c 0840BDE8 		ldmfd	sp!, {r3, lr}
 125 0010 1EFF2FE1 		bx	lr
 126              		.cfi_endproc
 127              	.LFE116:
 128              		.size	_ZN7CMX867A7SPIReadEv, .-_ZN7CMX867A7SPIReadEv
 129              		.section	.text._ZN7CMX867A7IOSetCSEb,"ax",%progbits
 130              		.align	2
 131              		.global	_ZN7CMX867A7IOSetCSEb
 132              		.type	_ZN7CMX867A7IOSetCSEb, %function
 133              	_ZN7CMX867A7IOSetCSEb:
 134              	.LFB115:
  59:APRSBeacon.cpp **** {
 135              		.loc 1 59 0
 136              		.cfi_startproc
 137              		@ Function supports interworking.
 138              		@ args = 0, pretend = 0, frame = 0
 139              		@ frame_needed = 0, uses_anonymous_args = 0
 140              	.LVL4:
 141 0000 10402DE9 		stmfd	sp!, {r4, lr}	@,
 142              	.LCFI2:
 143              		.cfi_def_cfa_offset 8
  59:APRSBeacon.cpp **** {
 144              		.loc 1 59 0
 145 0004 0140A0E1 		mov	r4, r1	@ state, state
 146              		.cfi_offset 14, -4
 147              		.cfi_offset 4, -8
  60:APRSBeacon.cpp ****     SPI0::GetInstance()->SetCS(state);
ARM GAS  /tmp/ccwv63ZI.s 			page 5


 148              		.loc 1 60 0
 149 0008 FEFFFFEB 		bl	_ZN4SPI011GetInstanceEv	@
 150              	.LVL5:
 151 000c 0410A0E1 		mov	r1, r4	@, state
 152 0010 FEFFFFEB 		bl	_ZN4SPI05SetCSEb	@
  61:APRSBeacon.cpp **** }
 153              		.loc 1 61 0
 154 0014 1040BDE8 		ldmfd	sp!, {r4, lr}
 155 0018 1EFF2FE1 		bx	lr
 156              		.cfi_endproc
 157              	.LFE115:
 158              		.size	_ZN7CMX867A7IOSetCSEb, .-_ZN7CMX867A7IOSetCSEb
 159              		.section	.text._ZN6M25P808SPIWriteEh,"ax",%progbits
 160              		.align	2
 161              		.global	_ZN6M25P808SPIWriteEh
 162              		.type	_ZN6M25P808SPIWriteEh, %function
 163              	_ZN6M25P808SPIWriteEh:
 164              	.LFB114:
  54:APRSBeacon.cpp **** {
 165              		.loc 1 54 0
 166              		.cfi_startproc
 167              		@ Function supports interworking.
 168              		@ args = 0, pretend = 0, frame = 0
 169              		@ frame_needed = 0, uses_anonymous_args = 0
 170              	.LVL6:
 171 0000 10402DE9 		stmfd	sp!, {r4, lr}	@,
 172              	.LCFI3:
 173              		.cfi_def_cfa_offset 8
  54:APRSBeacon.cpp **** {
 174              		.loc 1 54 0
 175 0004 0140A0E1 		mov	r4, r1	@ data, data
 176              		.cfi_offset 14, -4
 177              		.cfi_offset 4, -8
  55:APRSBeacon.cpp ****     SPI1::GetInstance()->Write(data);
 178              		.loc 1 55 0
 179 0008 FEFFFFEB 		bl	_ZN4SPI111GetInstanceEv	@
 180              	.LVL7:
 181 000c 0410A0E1 		mov	r1, r4	@, data
 182 0010 FEFFFFEB 		bl	_ZN4SPI15WriteEm	@
  56:APRSBeacon.cpp **** }
 183              		.loc 1 56 0
 184 0014 1040BDE8 		ldmfd	sp!, {r4, lr}
 185 0018 1EFF2FE1 		bx	lr
 186              		.cfi_endproc
 187              	.LFE114:
 188              		.size	_ZN6M25P808SPIWriteEh, .-_ZN6M25P808SPIWriteEh
 189              		.section	.text._ZN6M25P807SPIReadEv,"ax",%progbits
 190              		.align	2
 191              		.global	_ZN6M25P807SPIReadEv
 192              		.type	_ZN6M25P807SPIReadEv, %function
 193              	_ZN6M25P807SPIReadEv:
 194              	.LFB113:
  49:APRSBeacon.cpp **** {
 195              		.loc 1 49 0
 196              		.cfi_startproc
 197              		@ Function supports interworking.
 198              		@ args = 0, pretend = 0, frame = 0
ARM GAS  /tmp/ccwv63ZI.s 			page 6


 199              		@ frame_needed = 0, uses_anonymous_args = 0
 200              	.LVL8:
 201 0000 08402DE9 		stmfd	sp!, {r3, lr}	@,
 202              	.LCFI4:
 203              		.cfi_def_cfa_offset 8
  50:APRSBeacon.cpp ****     return SPI1::GetInstance()->Read();
 204              		.loc 1 50 0
 205              		.cfi_offset 14, -4
 206              		.cfi_offset 3, -8
 207 0004 FEFFFFEB 		bl	_ZN4SPI111GetInstanceEv	@
 208              	.LVL9:
 209 0008 FEFFFFEB 		bl	_ZN4SPI14ReadEv	@
  51:APRSBeacon.cpp **** }
 210              		.loc 1 51 0
 211 000c FF0000E2 		and	r0, r0, #255	@,,
 212 0010 0840BDE8 		ldmfd	sp!, {r3, lr}
 213 0014 1EFF2FE1 		bx	lr
 214              		.cfi_endproc
 215              	.LFE113:
 216              		.size	_ZN6M25P807SPIReadEv, .-_ZN6M25P807SPIReadEv
 217              		.section	.text._ZN6M25P807IOSetCSEb,"ax",%progbits
 218              		.align	2
 219              		.global	_ZN6M25P807IOSetCSEb
 220              		.type	_ZN6M25P807IOSetCSEb, %function
 221              	_ZN6M25P807IOSetCSEb:
 222              	.LFB112:
  44:APRSBeacon.cpp **** {
 223              		.loc 1 44 0
 224              		.cfi_startproc
 225              		@ Function supports interworking.
 226              		@ args = 0, pretend = 0, frame = 0
 227              		@ frame_needed = 0, uses_anonymous_args = 0
 228              	.LVL10:
 229 0000 10402DE9 		stmfd	sp!, {r4, lr}	@,
 230              	.LCFI5:
 231              		.cfi_def_cfa_offset 8
  44:APRSBeacon.cpp **** {
 232              		.loc 1 44 0
 233 0004 0140A0E1 		mov	r4, r1	@ state, state
 234              		.cfi_offset 14, -4
 235              		.cfi_offset 4, -8
  45:APRSBeacon.cpp ****     SPI1::GetInstance()->SetCS (state);
 236              		.loc 1 45 0
 237 0008 FEFFFFEB 		bl	_ZN4SPI111GetInstanceEv	@
 238              	.LVL11:
 239 000c 0410A0E1 		mov	r1, r4	@, state
 240 0010 FEFFFFEB 		bl	_ZN4SPI15SetCSEb	@
  46:APRSBeacon.cpp **** }
 241              		.loc 1 46 0
 242 0014 1040BDE8 		ldmfd	sp!, {r4, lr}
 243 0018 1EFF2FE1 		bx	lr
 244              		.cfi_endproc
 245              	.LFE112:
 246              		.size	_ZN6M25P807IOSetCSEb, .-_ZN6M25P807IOSetCSEb
 247              		.section	.text._ZN9GPSLassen9WriteDataEh,"ax",%progbits
 248              		.align	2
 249              		.global	_ZN9GPSLassen9WriteDataEh
ARM GAS  /tmp/ccwv63ZI.s 			page 7


 250              		.type	_ZN9GPSLassen9WriteDataEh, %function
 251              	_ZN9GPSLassen9WriteDataEh:
 252              	.LFB111:
  39:APRSBeacon.cpp **** {
 253              		.loc 1 39 0
 254              		.cfi_startproc
 255              		@ Function supports interworking.
 256              		@ args = 0, pretend = 0, frame = 0
 257              		@ frame_needed = 0, uses_anonymous_args = 0
 258              	.LVL12:
 259 0000 10402DE9 		stmfd	sp!, {r4, lr}	@,
 260              	.LCFI6:
 261              		.cfi_def_cfa_offset 8
  39:APRSBeacon.cpp **** {
 262              		.loc 1 39 0
 263 0004 0140A0E1 		mov	r4, r1	@ data, data
 264              		.cfi_offset 14, -4
 265              		.cfi_offset 4, -8
  40:APRSBeacon.cpp ****     UART1::GetInstance()->WriteChar (data);
 266              		.loc 1 40 0
 267 0008 FEFFFFEB 		bl	_ZN5UART111GetInstanceEv	@
 268              	.LVL13:
 269 000c 0410A0E1 		mov	r1, r4	@, data
 270 0010 FEFFFFEB 		bl	_ZN5UART19WriteCharEh	@
  41:APRSBeacon.cpp **** }
 271              		.loc 1 41 0
 272 0014 1040BDE8 		ldmfd	sp!, {r4, lr}
 273 0018 1EFF2FE1 		bx	lr
 274              		.cfi_endproc
 275              	.LFE111:
 276              		.size	_ZN9GPSLassen9WriteDataEh, .-_ZN9GPSLassen9WriteDataEh
 277              		.section	.text._ZN9GPSLassen8ReadDataEv,"ax",%progbits
 278              		.align	2
 279              		.global	_ZN9GPSLassen8ReadDataEv
 280              		.type	_ZN9GPSLassen8ReadDataEv, %function
 281              	_ZN9GPSLassen8ReadDataEv:
 282              	.LFB110:
  34:APRSBeacon.cpp **** {
 283              		.loc 1 34 0
 284              		.cfi_startproc
 285              		@ Function supports interworking.
 286              		@ args = 0, pretend = 0, frame = 0
 287              		@ frame_needed = 0, uses_anonymous_args = 0
 288              	.LVL14:
 289 0000 08402DE9 		stmfd	sp!, {r3, lr}	@,
 290              	.LCFI7:
 291              		.cfi_def_cfa_offset 8
  35:APRSBeacon.cpp ****     return UART1::GetInstance()->ReadChar();
 292              		.loc 1 35 0
 293              		.cfi_offset 14, -4
 294              		.cfi_offset 3, -8
 295 0004 FEFFFFEB 		bl	_ZN5UART111GetInstanceEv	@
 296              	.LVL15:
 297 0008 FEFFFFEB 		bl	_ZN5UART18ReadCharEv	@
  36:APRSBeacon.cpp **** }
 298              		.loc 1 36 0
 299 000c 0840BDE8 		ldmfd	sp!, {r3, lr}
ARM GAS  /tmp/ccwv63ZI.s 			page 8


 300 0010 1EFF2FE1 		bx	lr
 301              		.cfi_endproc
 302              	.LFE110:
 303              		.size	_ZN9GPSLassen8ReadDataEv, .-_ZN9GPSLassen8ReadDataEv
 304              		.section	.text._ZN9GPSLassen7HasDataEv,"ax",%progbits
 305              		.align	2
 306              		.global	_ZN9GPSLassen7HasDataEv
 307              		.type	_ZN9GPSLassen7HasDataEv, %function
 308              	_ZN9GPSLassen7HasDataEv:
 309              	.LFB109:
  30:APRSBeacon.cpp **** {
 310              		.loc 1 30 0
 311              		.cfi_startproc
 312              		@ Function supports interworking.
 313              		@ args = 0, pretend = 0, frame = 0
 314              		@ frame_needed = 0, uses_anonymous_args = 0
 315              	.LVL16:
 316 0000 08402DE9 		stmfd	sp!, {r3, lr}	@,
 317              	.LCFI8:
 318              		.cfi_def_cfa_offset 8
  31:APRSBeacon.cpp ****     return UART1::GetInstance()->IsCharReady();
 319              		.loc 1 31 0
 320              		.cfi_offset 14, -4
 321              		.cfi_offset 3, -8
 322 0004 FEFFFFEB 		bl	_ZN5UART111GetInstanceEv	@
 323              	.LVL17:
 324 0008 FEFFFFEB 		bl	_ZN5UART111IsCharReadyEv	@
  32:APRSBeacon.cpp **** }
 325              		.loc 1 32 0
 326 000c 0840BDE8 		ldmfd	sp!, {r3, lr}
 327 0010 1EFF2FE1 		bx	lr
 328              		.cfi_endproc
 329              	.LFE109:
 330              		.size	_ZN9GPSLassen7HasDataEv, .-_ZN9GPSLassen7HasDataEv
 331              		.section	.text._ZN10APRSBeacon11GetInstanceEv,"ax",%progbits
 332              		.align	2
 333              		.global	_ZN10APRSBeacon11GetInstanceEv
 334              		.type	_ZN10APRSBeacon11GetInstanceEv, %function
 335              	_ZN10APRSBeacon11GetInstanceEv:
 336              	.LFB118:
  72:APRSBeacon.cpp **** 
  73:APRSBeacon.cpp **** /// Reserve memory for singleton object.
  74:APRSBeacon.cpp **** static APRSBeacon APRSBeaconSingletonObject;
  75:APRSBeacon.cpp **** 
  76:APRSBeacon.cpp **** /**
  77:APRSBeacon.cpp ****  *  Get a pointer to the HF-APRS control object.
  78:APRSBeacon.cpp ****  */
  79:APRSBeacon.cpp **** APRSBeacon *APRSBeacon::GetInstance()
  80:APRSBeacon.cpp **** {
 337              		.loc 1 80 0
 338              		.cfi_startproc
 339              		@ Function supports interworking.
 340              		@ args = 0, pretend = 0, frame = 0
 341              		@ frame_needed = 0, uses_anonymous_args = 0
 342              		@ link register save eliminated.
  81:APRSBeacon.cpp ****     return  &APRSBeaconSingletonObject;
  82:APRSBeacon.cpp **** }
ARM GAS  /tmp/ccwv63ZI.s 			page 9


 343              		.loc 1 82 0
 344 0000 00001FE5 		ldr	r0, .L11	@,
 345 0004 1EFF2FE1 		bx	lr	@
 346              	.L12:
 347              		.align	2
 348              	.L11:
 349 0008 00000000 		.word	.LANCHOR0
 350              		.cfi_endproc
 351              	.LFE118:
 352              		.size	_ZN10APRSBeacon11GetInstanceEv, .-_ZN10APRSBeacon11GetInstanceEv
 353              		.section	.text._ZN10APRSBeaconC2Ev,"ax",%progbits
 354              		.align	2
 355              		.global	_ZN10APRSBeaconC2Ev
 356              		.type	_ZN10APRSBeaconC2Ev, %function
 357              	_ZN10APRSBeaconC2Ev:
 358              	.LFB120:
  83:APRSBeacon.cpp **** 
  84:APRSBeacon.cpp **** /**
  85:APRSBeacon.cpp ****  * Constructor.
  86:APRSBeacon.cpp ****  */
  87:APRSBeacon.cpp **** APRSBeacon::APRSBeacon()
 359              		.loc 1 87 0
 360              		.cfi_startproc
 361              		@ Function supports interworking.
 362              		@ args = 0, pretend = 0, frame = 0
 363              		@ frame_needed = 0, uses_anonymous_args = 0
 364              		@ link register save eliminated.
 365              	.LVL18:
 366              	.LBB10:
  88:APRSBeacon.cpp **** {
  89:APRSBeacon.cpp ****     this->peakAltitude = 0;
 367              		.loc 1 89 0
 368 0000 0020A0E3 		mov	r2, #0	@ tmp135,
 369 0004 0C2080E5 		str	r2, [r0, #12]	@ tmp135, this_1(D)->peakAltitude
  90:APRSBeacon.cpp ****     this->startGPSTime = 0;
 370              		.loc 1 90 0
 371 0008 102080E5 		str	r2, [r0, #16]	@ tmp135, this_1(D)->startGPSTime
  91:APRSBeacon.cpp ****     this->statusLEDOffTick = 0;
 372              		.loc 1 91 0
 373 000c 142080E5 		str	r2, [r0, #20]	@ tmp135, this_1(D)->statusLEDOffTick
 374              	.LBE10:
  92:APRSBeacon.cpp **** }
 375              		.loc 1 92 0
 376 0010 1EFF2FE1 		bx	lr	@
 377              		.cfi_endproc
 378              	.LFE120:
 379              		.size	_ZN10APRSBeaconC2Ev, .-_ZN10APRSBeaconC2Ev
 380              		.global	_ZN10APRSBeaconC1Ev
 381              		.set	_ZN10APRSBeaconC1Ev,_ZN10APRSBeaconC2Ev
 382              		.section	.text._ZN10APRSBeacon12StatusPacketEPK7GPSDataPc,"ax",%progbits
 383              		.align	2
 384              		.global	_ZN10APRSBeacon12StatusPacketEPK7GPSDataPc
 385              		.type	_ZN10APRSBeacon12StatusPacketEPK7GPSDataPc, %function
 386              	_ZN10APRSBeacon12StatusPacketEPK7GPSDataPc:
 387              	.LFB122:
  93:APRSBeacon.cpp **** 
  94:APRSBeacon.cpp **** /**
ARM GAS  /tmp/ccwv63ZI.s 			page 10


  95:APRSBeacon.cpp ****  * Generate a plain text status packet.
  96:APRSBeacon.cpp ****  *
  97:APRSBeacon.cpp ****  * @param gps pointer to current GPS fix object
  98:APRSBeacon.cpp ****  * @param text pointer to NULL terminated string with status packet
  99:APRSBeacon.cpp ****  */
 100:APRSBeacon.cpp **** void APRSBeacon::StatusPacket(const GPSData *gps, char *text)
 101:APRSBeacon.cpp **** {
 388              		.loc 1 101 0
 389              		.cfi_startproc
 390              		@ Function supports interworking.
 391              		@ args = 0, pretend = 0, frame = 104
 392              		@ frame_needed = 0, uses_anonymous_args = 0
 393              	.LVL19:
 394 0000 70402DE9 		stmfd	sp!, {r4, r5, r6, lr}	@,
 395              	.LCFI9:
 396              		.cfi_def_cfa_offset 16
 397              	.LBB11:
 102:APRSBeacon.cpp ****     uint32_t time;
 103:APRSBeacon.cpp ****     char buffer[100];
 104:APRSBeacon.cpp **** 
 105:APRSBeacon.cpp ****     // Generate the GPRMC message.
 106:APRSBeacon.cpp ****     if (this->startGPSTime == 0)
 398              		.loc 1 106 0
 399 0004 103090E5 		ldr	r3, [r0, #16]	@ this_3(D)->startGPSTime, this_3(D)->startGPSTime
 400 0008 000053E3 		cmp	r3, #0	@ this_3(D)->startGPSTime,
 401              	.LBE11:
 101:APRSBeacon.cpp **** {
 402              		.loc 1 101 0
 403 000c 70D04DE2 		sub	sp, sp, #112	@,,
 404              	.LCFI10:
 405              		.cfi_def_cfa_offset 128
 101:APRSBeacon.cpp **** {
 406              		.loc 1 101 0
 407 0010 0060A0E1 		mov	r6, r0	@ this, this
 408              		.cfi_offset 14, -4
 409              		.cfi_offset 6, -8
 410              		.cfi_offset 5, -12
 411              		.cfi_offset 4, -16
 412 0014 0150A0E1 		mov	r5, r1	@ gps, gps
 413 0018 0240A0E1 		mov	r4, r2	@ text, text
 414              	.LBB12:
 415              		.loc 1 106 0
 416 001c 3A00001A 		bne	.L16	@,
 107:APRSBeacon.cpp ****         strcpy (text, ">Balloon -:--:-- ");
 417              		.loc 1 107 0
 418 0020 0200A0E1 		mov	r0, r2	@, text
 419              	.LVL20:
 420 0024 34119FE5 		ldr	r1, .L22	@,
 421              	.LVL21:
 422 0028 1220A0E3 		mov	r2, #18	@,
 423              	.LVL22:
 424 002c FEFFFFEB 		bl	memcpy	@
 425              	.LVL23:
 426              	.L17:
 108:APRSBeacon.cpp ****     else {
 109:APRSBeacon.cpp ****         time = gps->TimeSinceEpoch() - this->startGPSTime;
 110:APRSBeacon.cpp **** 
ARM GAS  /tmp/ccwv63ZI.s 			page 11


 111:APRSBeacon.cpp ****         sprintf (text, ">Balloon %ld:%02ld:%02ld ", time / 3600, ((time / 60) % 60), time % 60);
 112:APRSBeacon.cpp ****     } // END if-else
 113:APRSBeacon.cpp **** 
 114:APRSBeacon.cpp ****     sprintf (buffer, "%ld' %ld'pk ", gps->AltitudeFeet(), this->peakAltitude);
 427              		.loc 1 114 0
 428 0030 0500A0E1 		mov	r0, r5	@, gps
 429 0034 FEFFFFEB 		bl	_ZNK7GPSData12AltitudeFeetEv	@
 430 0038 0C3096E5 		ldr	r3, [r6, #12]	@, this_3(D)->peakAltitude
 431 003c 0020A0E1 		mov	r2, r0	@ D.10371,
 432 0040 1C119FE5 		ldr	r1, .L22+4	@,
 433 0044 0C008DE2 		add	r0, sp, #12	@,,
 434 0048 FEFFFFEB 		bl	sprintf	@
 115:APRSBeacon.cpp ****     strcat (text, buffer);
 435              		.loc 1 115 0
 436 004c 0C108DE2 		add	r1, sp, #12	@,,
 437 0050 0400A0E1 		mov	r0, r4	@, text
 438 0054 FEFFFFEB 		bl	strcat	@
 116:APRSBeacon.cpp **** 
 117:APRSBeacon.cpp ****     // DOP and number of tracked birds.
 118:APRSBeacon.cpp ****     sprintf (buffer, "%u.%01u%cdop %utrk ", gps->dop / 10, gps->dop % 10, (gps->fixType == GPSData:
 439              		.loc 1 118 0
 440 0058 B4C3D5E1 		ldrh	ip, [r5, #52]	@ D.10373, gps_6(D)->dop
 441 005c 04219FE5 		ldr	r2, .L22+8	@ tmp196,
 442 0060 9C1282E0 		umull	r1, r2, ip, r2	@, tmp195, D.10373, tmp196
 443 0064 A221A0E1 		mov	r2, r2, lsr #3	@ tmp194, tmp195,
 444 0068 023182E0 		add	r3, r2, r2, asl #2	@, tmp203, D.10375, D.10375,
 445 006c 3AE0D5E5 		ldrb	lr, [r5, #58]	@ zero_extendqisi2	@ D.10379, gps_6(D)->fixType
 446 0070 83104CE0 		sub	r1, ip, r3, asl #1	@ tmp205, D.10373, tmp203,
 447 0074 0108A0E1 		mov	r0, r1, asl #16	@ tmp206, tmp205,
 448 0078 00005EE3 		cmp	lr, #0	@ D.10379,
 449 007c 2038A0E1 		mov	r3, r0, lsr #16	@ D.10377, tmp206,
 450 0080 2DE0A003 		moveq	lr, #45	@ iftmp.7,
 451 0084 0200000A 		beq	.L18	@,
 452              		.loc 1 118 0 is_stmt 0 discriminator 1
 453 0088 02005EE3 		cmp	lr, #2	@ D.10379,
 454 008c 70E0A013 		movne	lr, #112	@ iftmp.7,
 455 0090 68E0A003 		moveq	lr, #104	@ iftmp.7,
 456              	.L18:
 457              		.loc 1 118 0 discriminator 6
 458 0094 B6C3D5E1 		ldrh	ip, [r5, #54]	@ gps_6(D)->trackedSats, gps_6(D)->trackedSats
 459 0098 0C008DE2 		add	r0, sp, #12	@,,
 460 009c C8109FE5 		ldr	r1, .L22+12	@,
 461 00a0 00E08DE5 		str	lr, [sp, #0]	@ iftmp.7,
 462 00a4 04C08DE5 		str	ip, [sp, #4]	@ gps_6(D)->trackedSats,
 463 00a8 FEFFFFEB 		bl	sprintf	@
 119:APRSBeacon.cpp ****     strcat (text, buffer);
 464              		.loc 1 119 0 is_stmt 1 discriminator 6
 465 00ac 0C108DE2 		add	r1, sp, #12	@,,
 466 00b0 0400A0E1 		mov	r0, r4	@, text
 467 00b4 FEFFFFEB 		bl	strcat	@
 120:APRSBeacon.cpp **** 
 121:APRSBeacon.cpp ****     // Internal temperature.
 122:APRSBeacon.cpp ****     sprintf (buffer, "%lddegF ", LM92::GetInstance()->ReadTempF() / 10);
 468              		.loc 1 122 0 discriminator 6
 469 00b8 FEFFFFEB 		bl	_ZN4LM9211GetInstanceEv	@
 470 00bc FEFFFFEB 		bl	_ZN4LM929ReadTempFEv	@
 471 00c0 A8109FE5 		ldr	r1, .L22+16	@ tmp215,
ARM GAS  /tmp/ccwv63ZI.s 			page 12


 472 00c4 9031C1E0 		smull	r3, r1, r0, r1	@, tmp214, D.10390, tmp215
 473 00c8 C00FA0E1 		mov	r0, r0, asr #31	@ tmp217, D.10390,
 474 00cc 412160E0 		rsb	r2, r0, r1, asr #2	@,, tmp217, tmp214,
 475 00d0 0C008DE2 		add	r0, sp, #12	@,,
 476 00d4 98109FE5 		ldr	r1, .L22+20	@,
 477 00d8 FEFFFFEB 		bl	sprintf	@
 123:APRSBeacon.cpp ****     strcat (text, buffer);
 478              		.loc 1 123 0 discriminator 6
 479 00dc 0C108DE2 		add	r1, sp, #12	@,,
 480 00e0 0400A0E1 		mov	r0, r4	@, text
 481 00e4 FEFFFFEB 		bl	strcat	@
 124:APRSBeacon.cpp **** 
 125:APRSBeacon.cpp ****     strcat (text, "www.kd7lmo.net\015");
 482              		.loc 1 125 0 discriminator 6
 483 00e8 0400A0E1 		mov	r0, r4	@, text
 484 00ec FEFFFFEB 		bl	strlen	@
 485 00f0 80109FE5 		ldr	r1, .L22+24	@,
 486 00f4 000084E0 		add	r0, r4, r0	@, text,
 487 00f8 1020A0E3 		mov	r2, #16	@,
 488 00fc FEFFFFEB 		bl	memcpy	@
 489              	.LBE12:
 126:APRSBeacon.cpp **** }
 490              		.loc 1 126 0 discriminator 6
 491 0100 70D08DE2 		add	sp, sp, #112	@,,
 492 0104 7040BDE8 		ldmfd	sp!, {r4, r5, r6, lr}
 493 0108 1EFF2FE1 		bx	lr
 494              	.L16:
 495              	.LBB13:
 109:APRSBeacon.cpp ****         time = gps->TimeSinceEpoch() - this->startGPSTime;
 496              		.loc 1 109 0
 497 010c 0100A0E1 		mov	r0, r1	@, gps
 498 0110 FEFFFFEB 		bl	_ZNK7GPSData14TimeSinceEpochEv	@
 499 0114 102096E5 		ldr	r2, [r6, #16]	@ this_3(D)->startGPSTime, this_3(D)->startGPSTime
 111:APRSBeacon.cpp ****         sprintf (text, ">Balloon %ld:%02ld:%02ld ", time / 3600, ((time / 60) % 60), time % 60);
 500              		.loc 1 111 0
 501 0118 5C309FE5 		ldr	r3, .L22+28	@ tmp173,
 109:APRSBeacon.cpp ****         time = gps->TimeSinceEpoch() - this->startGPSTime;
 502              		.loc 1 109 0
 503 011c 000062E0 		rsb	r0, r2, r0	@ time, this_3(D)->startGPSTime,
 504              	.LVL24:
 111:APRSBeacon.cpp ****         sprintf (text, ">Balloon %ld:%02ld:%02ld ", time / 3600, ((time / 60) % 60), time % 60);
 505              		.loc 1 111 0
 506 0120 93108EE0 		umull	r1, lr, r3, r0	@, tmp172, tmp173, time
 507 0124 AEE2A0E1 		mov	lr, lr, lsr #5	@ tmp171, tmp172,
 508 0128 9E2383E0 		umull	r2, r3, lr, r3	@, tmp175, tmp171, tmp173
 509 012c 4C209FE5 		ldr	r2, .L22+32	@ tmp170,
 510 0130 901282E0 		umull	r1, r2, r0, r2	@, tmp169, time, tmp170
 511 0134 A3C2A0E1 		mov	ip, r3, lsr #5	@ tmp174, tmp175,
 512 0138 0E126EE0 		rsb	r1, lr, lr, asl #4	@, tmp187, tmp171, tmp171,
 513 013c 0C326CE0 		rsb	r3, ip, ip, asl #4	@, tmp179, tmp174, tmp174,
 514 0140 A225A0E1 		mov	r2, r2, lsr #11	@, tmp169,
 515 0144 01C140E0 		sub	ip, r0, r1, asl #2	@ tmp189, time, tmp187,
 516 0148 03314EE0 		sub	r3, lr, r3, asl #2	@, tmp171, tmp179,
 517 014c 0400A0E1 		mov	r0, r4	@, text
 518              	.LVL25:
 519 0150 2C109FE5 		ldr	r1, .L22+36	@,
 520 0154 00C08DE5 		str	ip, [sp, #0]	@ tmp189,
ARM GAS  /tmp/ccwv63ZI.s 			page 13


 521 0158 FEFFFFEB 		bl	sprintf	@
 522 015c B3FFFFEA 		b	.L17	@
 523              	.L23:
 524              		.align	2
 525              	.L22:
 526 0160 00000000 		.word	.LC0
 527 0164 30000000 		.word	.LC2
 528 0168 CDCCCCCC 		.word	-858993459
 529 016c 40000000 		.word	.LC3
 530 0170 67666666 		.word	1717986919
 531 0174 54000000 		.word	.LC4
 532 0178 60000000 		.word	.LC5
 533 017c 89888888 		.word	-2004318071
 534 0180 C5B3A291 		.word	-1851608123
 535 0184 14000000 		.word	.LC1
 536              	.LBE13:
 537              		.cfi_endproc
 538              	.LFE122:
 539              		.size	_ZN10APRSBeacon12StatusPacketEPK7GPSDataPc, .-_ZN10APRSBeacon12StatusPacketEPK7GPSDataPc
 540              		.section	.text._ZN10APRSBeacon15ScheduleMessageEv,"ax",%progbits
 541              		.align	2
 542              		.global	_ZN10APRSBeacon15ScheduleMessageEv
 543              		.type	_ZN10APRSBeacon15ScheduleMessageEv, %function
 544              	_ZN10APRSBeacon15ScheduleMessageEv:
 545              	.LFB123:
 127:APRSBeacon.cpp **** 
 128:APRSBeacon.cpp **** /**
 129:APRSBeacon.cpp ****  * Generate an APRS packet based on the current GPS time.
 130:APRSBeacon.cpp ****  */
 131:APRSBeacon.cpp **** void APRSBeacon::ScheduleMessage()
 132:APRSBeacon.cpp **** {
 546              		.loc 1 132 0
 547              		.cfi_startproc
 548              		@ Function supports interworking.
 549              		@ args = 0, pretend = 0, frame = 184
 550              		@ frame_needed = 0, uses_anonymous_args = 0
 551              	.LVL26:
 552 0000 70402DE9 		stmfd	sp!, {r4, r5, r6, lr}	@,
 553              	.LCFI11:
 554              		.cfi_def_cfa_offset 16
 555 0004 0060A0E1 		mov	r6, r0	@ this, this
 556              		.cfi_offset 14, -4
 557              		.cfi_offset 6, -8
 558              		.cfi_offset 5, -12
 559              		.cfi_offset 4, -16
 560 0008 D0D04DE2 		sub	sp, sp, #208	@,,
 561              	.LCFI12:
 562              		.cfi_def_cfa_offset 224
 563              	.LBB14:
 133:APRSBeacon.cpp ****     char buffer[150];
 134:APRSBeacon.cpp ****     MICEncoder micEncoder;
 135:APRSBeacon.cpp **** 
 136:APRSBeacon.cpp ****     this->gps->Update();
 564              		.loc 1 136 0
 565 000c 000090E5 		ldr	r0, [r0, #0]	@, this_3(D)->gps
 566              	.LVL27:
 567 0010 FEFFFFEB 		bl	_ZN9GPSLassen6UpdateEv	@
ARM GAS  /tmp/ccwv63ZI.s 			page 14


 137:APRSBeacon.cpp **** 
 138:APRSBeacon.cpp ****     if (SystemControl::GetTick() > this->statusLEDOffTick)
 568              		.loc 1 138 0
 569 0014 FEFFFFEB 		bl	_ZN13SystemControl7GetTickEv	@
 570 0018 143096E5 		ldr	r3, [r6, #20]	@ this_3(D)->statusLEDOffTick, this_3(D)->statusLEDOffTick
 571 001c 030050E1 		cmp	r0, r3	@, this_3(D)->statusLEDOffTick
 572 0020 5400008A 		bhi	.L40	@,
 573              	.L25:
 574              	.LBB15:
 139:APRSBeacon.cpp ****         IOPorts::StatusLED(IOPorts::LEDGreen, false);
 140:APRSBeacon.cpp **** 
 141:APRSBeacon.cpp ****     if (this->gps->IsDataReady())
 575              		.loc 1 141 0
 576 0024 000096E5 		ldr	r0, [r6, #0]	@, this_3(D)->gps
 577 0028 FEFFFFEB 		bl	_ZN9GPSLassen11IsDataReadyEv	@
 578 002c 000050E3 		cmp	r0, #0	@,
 579 0030 0200001A 		bne	.L41	@,
 580              	.LVL28:
 581              	.L24:
 582              	.LBE15:
 583              	.LBE14:
 142:APRSBeacon.cpp ****     {
 143:APRSBeacon.cpp ****         // Get a pointer to the GPS data set.
 144:APRSBeacon.cpp ****         GPSData *gpsData = this->gps->Data();
 145:APRSBeacon.cpp **** 
 146:APRSBeacon.cpp ****         // Log the fix information.
 147:APRSBeacon.cpp ****         Log::GetInstance()->GPSFix (gpsData);
 148:APRSBeacon.cpp **** 
 149:APRSBeacon.cpp ****         // Process certain elements when we have a 3D fix.
 150:APRSBeacon.cpp ****         if (gpsData->fixType == GPSData::Fix3D)
 151:APRSBeacon.cpp ****         {
 152:APRSBeacon.cpp ****             // Record the peak altitude.
 153:APRSBeacon.cpp ****             if (gpsData->AltitudeFeet() > this->peakAltitude)
 154:APRSBeacon.cpp ****                 this->peakAltitude = gpsData->AltitudeFeet();
 155:APRSBeacon.cpp **** 
 156:APRSBeacon.cpp ****             // Record the starting time.
 157:APRSBeacon.cpp ****             if (this->startGPSTime == 0)
 158:APRSBeacon.cpp ****             {
 159:APRSBeacon.cpp ****                 this->startGPSTime = gpsData->TimeSinceEpoch();
 160:APRSBeacon.cpp ****                 Log::GetInstance()->TimeStamp(gpsData);
 161:APRSBeacon.cpp ****             }
 162:APRSBeacon.cpp ****         }
 163:APRSBeacon.cpp **** 
 164:APRSBeacon.cpp ****         IOPorts::StatusLED(IOPorts::LEDGreen, true);
 165:APRSBeacon.cpp **** 
 166:APRSBeacon.cpp ****         if (gpsData->fixType == GPSData::NoFix)
 167:APRSBeacon.cpp ****             this->statusLEDOffTick = SystemControl::GetTick() + 800;
 168:APRSBeacon.cpp ****         else
 169:APRSBeacon.cpp ****             this->statusLEDOffTick = SystemControl::GetTick() + 100;
 170:APRSBeacon.cpp **** 
 171:APRSBeacon.cpp ****         switch (gpsData->seconds)
 172:APRSBeacon.cpp ****         {
 173:APRSBeacon.cpp ****             case 0:
 174:APRSBeacon.cpp ****             case 30:
 175:APRSBeacon.cpp ****                 StatusPacket (this->gps->Data(), buffer);
 176:APRSBeacon.cpp ****                 this->afsk->Transmit (buffer);
 177:APRSBeacon.cpp ****                 break;
ARM GAS  /tmp/ccwv63ZI.s 			page 15


 178:APRSBeacon.cpp **** 
 179:APRSBeacon.cpp ****             case 5:
 180:APRSBeacon.cpp ****             case 25:
 181:APRSBeacon.cpp ****             case 35:
 182:APRSBeacon.cpp ****             case 55:
 183:APRSBeacon.cpp ****                 micEncoder.Encode (this->gps->Data());
 184:APRSBeacon.cpp ****                 this->afsk->Transmit (micEncoder.GetInformationField(), micEncoder.GetDestAddress()
 185:APRSBeacon.cpp ****                 break;
 186:APRSBeacon.cpp ****         } // END switch
 187:APRSBeacon.cpp **** 
 188:APRSBeacon.cpp ****         // Engineering data set reported
 189:APRSBeacon.cpp ****         sprintf (buffer, "%ld %s %02d:%02d:%02d %d/%d/%d ", SystemControl::GetTick(), (gpsData->fix
 190:APRSBeacon.cpp ****         UART0::GetInstance()->Write (buffer);
 191:APRSBeacon.cpp **** 
 192:APRSBeacon.cpp ****         sprintf (buffer, "%ld %ld %ld %ld %d %d 0x%x ", gpsData->weekNumber, gpsData->timeOfWeek, g
 193:APRSBeacon.cpp ****         UART0::GetInstance()->Write (buffer);
 194:APRSBeacon.cpp **** 
 195:APRSBeacon.cpp ****         sprintf (buffer, "%d deg @ %ld knots ", gpsData->heading, gpsData->SpeedKnots());
 196:APRSBeacon.cpp ****         UART0::GetInstance()->Write (buffer);
 197:APRSBeacon.cpp **** 
 198:APRSBeacon.cpp ****         sprintf (buffer, "%ld", gpsData->AltitudeFeet());
 199:APRSBeacon.cpp ****         UART0::GetInstance()->WriteLine (buffer);
 200:APRSBeacon.cpp ****     } // END if
 201:APRSBeacon.cpp **** }
 584              		.loc 1 201 0
 585 0034 D0D08DE2 		add	sp, sp, #208	@,,
 586 0038 7040BDE8 		ldmfd	sp!, {r4, r5, r6, lr}
 587 003c 1EFF2FE1 		bx	lr
 588              	.LVL29:
 589              	.L41:
 590              	.LBB20:
 591              	.LBB18:
 592              	.LBB16:
 144:APRSBeacon.cpp ****         GPSData *gpsData = this->gps->Data();
 593              		.loc 1 144 0
 594 0040 000096E5 		ldr	r0, [r6, #0]	@, this_3(D)->gps
 595 0044 FEFFFFEB 		bl	_ZN9GPSLassen4DataEv	@
 596 0048 0040A0E1 		mov	r4, r0	@ gpsData,
 597              	.LVL30:
 147:APRSBeacon.cpp ****         Log::GetInstance()->GPSFix (gpsData);
 598              		.loc 1 147 0
 599 004c FEFFFFEB 		bl	_ZN3Log11GetInstanceEv	@
 600              	.LVL31:
 601 0050 0410A0E1 		mov	r1, r4	@, gpsData
 602 0054 FEFFFFEB 		bl	_ZN3Log6GPSFixEPK7GPSData	@
 150:APRSBeacon.cpp ****         if (gpsData->fixType == GPSData::Fix3D)
 603              		.loc 1 150 0
 604 0058 3A00D4E5 		ldrb	r0, [r4, #58]	@ zero_extendqisi2	@ gpsData_11->fixType, gpsData_11->fixType
 605 005c 030050E3 		cmp	r0, #3	@ gpsData_11->fixType,
 606 0060 AB00000A 		beq	.L42	@,
 607              	.L27:
 164:APRSBeacon.cpp ****         IOPorts::StatusLED(IOPorts::LEDGreen, true);
 608              		.loc 1 164 0
 609 0064 0100A0E3 		mov	r0, #1	@,
 610 0068 0010A0E1 		mov	r1, r0	@,
 611 006c FEFFFFEB 		bl	_ZN7IOPorts9StatusLEDENS_10STATUS_LEDEb	@
 166:APRSBeacon.cpp ****         if (gpsData->fixType == GPSData::NoFix)
ARM GAS  /tmp/ccwv63ZI.s 			page 16


 612              		.loc 1 166 0
 613 0070 3A50D4E5 		ldrb	r5, [r4, #58]	@ zero_extendqisi2	@ gpsData_11->fixType, gpsData_11->fixType
 614 0074 000055E3 		cmp	r5, #0	@ gpsData_11->fixType,
 615 0078 4200000A 		beq	.L43	@,
 169:APRSBeacon.cpp ****             this->statusLEDOffTick = SystemControl::GetTick() + 100;
 616              		.loc 1 169 0
 617 007c FEFFFFEB 		bl	_ZN13SystemControl7GetTickEv	@
 618 0080 643080E2 		add	r3, r0, #100	@ tmp207,,
 619 0084 143086E5 		str	r3, [r6, #20]	@ tmp207, this_3(D)->statusLEDOffTick
 620              	.L30:
 171:APRSBeacon.cpp ****         switch (gpsData->seconds)
 621              		.loc 1 171 0
 622 0088 BAE0D4E1 		ldrh	lr, [r4, #10]	@ gpsData_11->seconds, gpsData_11->seconds
 623 008c 37005EE3 		cmp	lr, #55	@ gpsData_11->seconds,
 624 0090 0EF19F97 		ldrls	pc, [pc, lr, asl #2]	@ gpsData_11->seconds
 625 0094 4E0000EA 		b	.L39	@
 626              	.L34:
 627 0098 E4020000 		.word	.L32
 628 009c D4010000 		.word	.L39
 629 00a0 D4010000 		.word	.L39
 630 00a4 D4010000 		.word	.L39
 631 00a8 D4010000 		.word	.L39
 632 00ac 98010000 		.word	.L33
 633 00b0 D4010000 		.word	.L39
 634 00b4 D4010000 		.word	.L39
 635 00b8 D4010000 		.word	.L39
 636 00bc D4010000 		.word	.L39
 637 00c0 D4010000 		.word	.L39
 638 00c4 D4010000 		.word	.L39
 639 00c8 D4010000 		.word	.L39
 640 00cc D4010000 		.word	.L39
 641 00d0 D4010000 		.word	.L39
 642 00d4 D4010000 		.word	.L39
 643 00d8 D4010000 		.word	.L39
 644 00dc D4010000 		.word	.L39
 645 00e0 D4010000 		.word	.L39
 646 00e4 D4010000 		.word	.L39
 647 00e8 D4010000 		.word	.L39
 648 00ec D4010000 		.word	.L39
 649 00f0 D4010000 		.word	.L39
 650 00f4 D4010000 		.word	.L39
 651 00f8 D4010000 		.word	.L39
 652 00fc 98010000 		.word	.L33
 653 0100 D4010000 		.word	.L39
 654 0104 D4010000 		.word	.L39
 655 0108 D4010000 		.word	.L39
 656 010c D4010000 		.word	.L39
 657 0110 E4020000 		.word	.L32
 658 0114 D4010000 		.word	.L39
 659 0118 D4010000 		.word	.L39
 660 011c D4010000 		.word	.L39
 661 0120 D4010000 		.word	.L39
 662 0124 98010000 		.word	.L33
 663 0128 D4010000 		.word	.L39
 664 012c D4010000 		.word	.L39
 665 0130 D4010000 		.word	.L39
 666 0134 D4010000 		.word	.L39
ARM GAS  /tmp/ccwv63ZI.s 			page 17


 667 0138 D4010000 		.word	.L39
 668 013c D4010000 		.word	.L39
 669 0140 D4010000 		.word	.L39
 670 0144 D4010000 		.word	.L39
 671 0148 D4010000 		.word	.L39
 672 014c D4010000 		.word	.L39
 673 0150 D4010000 		.word	.L39
 674 0154 D4010000 		.word	.L39
 675 0158 D4010000 		.word	.L39
 676 015c D4010000 		.word	.L39
 677 0160 D4010000 		.word	.L39
 678 0164 D4010000 		.word	.L39
 679 0168 D4010000 		.word	.L39
 680 016c D4010000 		.word	.L39
 681 0170 D4010000 		.word	.L39
 682 0174 98010000 		.word	.L33
 683              	.LVL32:
 684              	.L40:
 685              	.LBE16:
 686              	.LBE18:
 139:APRSBeacon.cpp ****         IOPorts::StatusLED(IOPorts::LEDGreen, false);
 687              		.loc 1 139 0
 688 0178 0100A0E3 		mov	r0, #1	@,
 689 017c 0010A0E3 		mov	r1, #0	@,
 690 0180 FEFFFFEB 		bl	_ZN7IOPorts9StatusLEDENS_10STATUS_LEDEb	@
 691 0184 A6FFFFEA 		b	.L25	@
 692              	.LVL33:
 693              	.L43:
 694              	.LBB19:
 695              	.LBB17:
 167:APRSBeacon.cpp ****             this->statusLEDOffTick = SystemControl::GetTick() + 800;
 696              		.loc 1 167 0
 697 0188 FEFFFFEB 		bl	_ZN13SystemControl7GetTickEv	@
 698 018c 32CE80E2 		add	ip, r0, #800	@ tmp206,,
 699 0190 14C086E5 		str	ip, [r6, #20]	@ tmp206, this_3(D)->statusLEDOffTick
 700 0194 BBFFFFEA 		b	.L30	@
 701              	.L33:
 183:APRSBeacon.cpp ****                 micEncoder.Encode (this->gps->Data());
 702              		.loc 1 183 0
 703 0198 000096E5 		ldr	r0, [r6, #0]	@, this_3(D)->gps
 704 019c FEFFFFEB 		bl	_ZN9GPSLassen4DataEv	@
 705 01a0 0010A0E1 		mov	r1, r0	@ D.10319,
 706 01a4 B4008DE2 		add	r0, sp, #180	@,,
 707 01a8 FEFFFFEB 		bl	_ZN10MICEncoder6EncodeEPK7GPSData	@
 184:APRSBeacon.cpp ****                 this->afsk->Transmit (micEncoder.GetInformationField(), micEncoder.GetDestAddress()
 708              		.loc 1 184 0
 709 01ac B4008DE2 		add	r0, sp, #180	@,,
 710 01b0 086096E5 		ldr	r6, [r6, #8]	@ D.10318, this_3(D)->afsk
 711              	.LVL34:
 712 01b4 FEFFFFEB 		bl	_ZN10MICEncoder19GetInformationFieldEv	@
 713 01b8 0050A0E1 		mov	r5, r0	@ D.10320,
 714 01bc B4008DE2 		add	r0, sp, #180	@,,
 715 01c0 FEFFFFEB 		bl	_ZN10MICEncoder14GetDestAddressEv	@
 716 01c4 0510A0E1 		mov	r1, r5	@, D.10320
 717 01c8 0020A0E1 		mov	r2, r0	@ D.10321,
 718 01cc 0600A0E1 		mov	r0, r6	@, D.10318
 719 01d0 FEFFFFEB 		bl	_ZN4AFSK8TransmitEPKcS1_	@
ARM GAS  /tmp/ccwv63ZI.s 			page 18


 720              	.L39:
 721 01d4 1C508DE2 		add	r5, sp, #28	@ tmp242,,
 722              	.L31:
 189:APRSBeacon.cpp ****         sprintf (buffer, "%ld %s %02d:%02d:%02d %d/%d/%d ", SystemControl::GetTick(), (gpsData->fix
 723              		.loc 1 189 0
 724 01d8 FEFFFFEB 		bl	_ZN13SystemControl7GetTickEv	@
 725 01dc 3A10D4E5 		ldrb	r1, [r4, #58]	@ zero_extendqisi2	@ D.10290, gpsData_11->fixType
 726 01e0 000051E3 		cmp	r1, #0	@ D.10290,
 727 01e4 0020A0E1 		mov	r2, r0	@ D.10323,
 728 01e8 70319F05 		ldreq	r3, .L45	@ iftmp.4,
 729 01ec 0300000A 		beq	.L35	@,
 189:APRSBeacon.cpp ****         sprintf (buffer, "%ld %s %02d:%02d:%02d %d/%d/%d ", SystemControl::GetTick(), (gpsData->fix
 730              		.loc 1 189 0 is_stmt 0 discriminator 1
 731 01f0 6C019FE5 		ldr	r0, .L45+4	@ tmp243,
 732 01f4 020051E3 		cmp	r1, #2	@ D.10290,
 733 01f8 68319FE5 		ldr	r3, .L45+8	@ tmp244,
 734 01fc 0030A011 		movne	r3, r0	@ iftmp.4, tmp243
 735              	.L35:
 189:APRSBeacon.cpp ****         sprintf (buffer, "%ld %s %02d:%02d:%02d %d/%d/%d ", SystemControl::GetTick(), (gpsData->fix
 736              		.loc 1 189 0 discriminator 6
 737 0200 08E0D4E5 		ldrb	lr, [r4, #8]	@ zero_extendqisi2	@ gpsData_11->hours, gpsData_11->hours
 738 0204 00E08DE5 		str	lr, [sp, #0]	@ gpsData_11->hours,
 739 0208 09C0D4E5 		ldrb	ip, [r4, #9]	@ zero_extendqisi2	@ gpsData_11->minutes, gpsData_11->minutes
 740 020c 04C08DE5 		str	ip, [sp, #4]	@ gpsData_11->minutes,
 741 0210 BA00D4E1 		ldrh	r0, [r4, #10]	@ gpsData_11->seconds, gpsData_11->seconds
 742 0214 08008DE5 		str	r0, [sp, #8]	@ gpsData_11->seconds,
 743 0218 0C60D4E5 		ldrb	r6, [r4, #12]	@ zero_extendqisi2	@ gpsData_11->month, gpsData_11->month
 744 021c 0C608DE5 		str	r6, [sp, #12]	@ gpsData_11->month,
 745 0220 0D10D4E5 		ldrb	r1, [r4, #13]	@ zero_extendqisi2	@ gpsData_11->day, gpsData_11->day
 746 0224 10108DE5 		str	r1, [sp, #16]	@ gpsData_11->day,
 747 0228 BEE0D4E1 		ldrh	lr, [r4, #14]	@ gpsData_11->year, gpsData_11->year
 748 022c 38119FE5 		ldr	r1, .L45+12	@,
 749 0230 0500A0E1 		mov	r0, r5	@, tmp242
 750 0234 14E08DE5 		str	lr, [sp, #20]	@ gpsData_11->year,
 751 0238 FEFFFFEB 		bl	sprintf	@
 190:APRSBeacon.cpp ****         UART0::GetInstance()->Write (buffer);
 752              		.loc 1 190 0 is_stmt 1 discriminator 6
 753 023c FEFFFFEB 		bl	_ZN5UART011GetInstanceEv	@
 754 0240 0510A0E1 		mov	r1, r5	@, tmp242
 755 0244 FEFFFFEB 		bl	_ZN5UART05WriteEPKc	@
 192:APRSBeacon.cpp ****         sprintf (buffer, "%ld %ld %ld %ld %d %d 0x%x ", gpsData->weekNumber, gpsData->timeOfWeek, g
 756              		.loc 1 192 0 discriminator 6
 757 0248 10C094E5 		ldr	ip, [r4, #16]	@ gpsData_11->latitude, gpsData_11->latitude
 758 024c 042094E5 		ldr	r2, [r4, #4]	@ gpsData_11->weekNumber, gpsData_11->weekNumber
 759 0250 003094E5 		ldr	r3, [r4, #0]	@ gpsData_11->timeOfWeek, gpsData_11->timeOfWeek
 760 0254 00C08DE5 		str	ip, [sp, #0]	@ gpsData_11->latitude,
 761 0258 140094E5 		ldr	r0, [r4, #20]	@ gpsData_11->longitude, gpsData_11->longitude
 762 025c 04008DE5 		str	r0, [sp, #4]	@ gpsData_11->longitude,
 763 0260 B463D4E1 		ldrh	r6, [r4, #52]	@ gpsData_11->dop, gpsData_11->dop
 764 0264 08608DE5 		str	r6, [sp, #8]	@ gpsData_11->dop,
 765 0268 B613D4E1 		ldrh	r1, [r4, #54]	@ gpsData_11->trackedSats, gpsData_11->trackedSats
 766 026c 0C108DE5 		str	r1, [sp, #12]	@ gpsData_11->trackedSats,
 767 0270 BCC3D4E1 		ldrh	ip, [r4, #60]	@ gpsData_11->navType, gpsData_11->navType
 768 0274 F4109FE5 		ldr	r1, .L45+16	@,
 769 0278 0500A0E1 		mov	r0, r5	@, tmp242
 770 027c 10C08DE5 		str	ip, [sp, #16]	@ gpsData_11->navType,
 771 0280 FEFFFFEB 		bl	sprintf	@
ARM GAS  /tmp/ccwv63ZI.s 			page 19


 193:APRSBeacon.cpp ****         UART0::GetInstance()->Write (buffer);
 772              		.loc 1 193 0 discriminator 6
 773 0284 FEFFFFEB 		bl	_ZN5UART011GetInstanceEv	@
 774 0288 0510A0E1 		mov	r1, r5	@, tmp242
 775 028c FEFFFFEB 		bl	_ZN5UART05WriteEPKc	@
 195:APRSBeacon.cpp ****         sprintf (buffer, "%d deg @ %ld knots ", gpsData->heading, gpsData->SpeedKnots());
 776              		.loc 1 195 0 discriminator 6
 777 0290 0400A0E1 		mov	r0, r4	@, gpsData
 778 0294 BA62D4E1 		ldrh	r6, [r4, #42]	@ D.10356, gpsData_11->heading
 779 0298 FEFFFFEB 		bl	_ZNK7GPSData10SpeedKnotsEv	@
 780 029c 0620A0E1 		mov	r2, r6	@, D.10356
 781 02a0 0030A0E1 		mov	r3, r0	@ D.10357,
 782 02a4 C8109FE5 		ldr	r1, .L45+20	@,
 783 02a8 0500A0E1 		mov	r0, r5	@, tmp242
 784 02ac FEFFFFEB 		bl	sprintf	@
 196:APRSBeacon.cpp ****         UART0::GetInstance()->Write (buffer);
 785              		.loc 1 196 0 discriminator 6
 786 02b0 FEFFFFEB 		bl	_ZN5UART011GetInstanceEv	@
 787 02b4 0510A0E1 		mov	r1, r5	@, tmp242
 788 02b8 FEFFFFEB 		bl	_ZN5UART05WriteEPKc	@
 198:APRSBeacon.cpp ****         sprintf (buffer, "%ld", gpsData->AltitudeFeet());
 789              		.loc 1 198 0 discriminator 6
 790 02bc 0400A0E1 		mov	r0, r4	@, gpsData
 791 02c0 FEFFFFEB 		bl	_ZNK7GPSData12AltitudeFeetEv	@
 792 02c4 AC109FE5 		ldr	r1, .L45+24	@,
 793 02c8 0020A0E1 		mov	r2, r0	@ D.10359,
 794 02cc 0500A0E1 		mov	r0, r5	@, tmp242
 795 02d0 FEFFFFEB 		bl	sprintf	@
 199:APRSBeacon.cpp ****         UART0::GetInstance()->WriteLine (buffer);
 796              		.loc 1 199 0 discriminator 6
 797 02d4 FEFFFFEB 		bl	_ZN5UART011GetInstanceEv	@
 798 02d8 0510A0E1 		mov	r1, r5	@, tmp242
 799 02dc FEFFFFEB 		bl	_ZN5UART09WriteLineEPKcz	@
 800 02e0 53FFFFEA 		b	.L24	@
 801              	.LVL35:
 802              	.L32:
 175:APRSBeacon.cpp ****                 StatusPacket (this->gps->Data(), buffer);
 803              		.loc 1 175 0
 804 02e4 000096E5 		ldr	r0, [r6, #0]	@, this_3(D)->gps
 805 02e8 FEFFFFEB 		bl	_ZN9GPSLassen4DataEv	@
 806 02ec 1C508DE2 		add	r5, sp, #28	@ tmp242,,
 807 02f0 0010A0E1 		mov	r1, r0	@ D.10317,
 808 02f4 0520A0E1 		mov	r2, r5	@, tmp242
 809 02f8 0600A0E1 		mov	r0, r6	@, this
 810 02fc FEFFFFEB 		bl	_ZN10APRSBeacon12StatusPacketEPK7GPSDataPc	@
 176:APRSBeacon.cpp ****                 this->afsk->Transmit (buffer);
 811              		.loc 1 176 0
 812 0300 080096E5 		ldr	r0, [r6, #8]	@, this_3(D)->afsk
 813 0304 0510A0E1 		mov	r1, r5	@, tmp242
 814 0308 0020A0E3 		mov	r2, #0	@,
 815 030c FEFFFFEB 		bl	_ZN4AFSK8TransmitEPKcS1_	@
 177:APRSBeacon.cpp ****                 break;
 816              		.loc 1 177 0
 817 0310 B0FFFFEA 		b	.L31	@
 818              	.L42:
 153:APRSBeacon.cpp ****             if (gpsData->AltitudeFeet() > this->peakAltitude)
 819              		.loc 1 153 0
ARM GAS  /tmp/ccwv63ZI.s 			page 20


 820 0314 0400A0E1 		mov	r0, r4	@, gpsData
 821 0318 FEFFFFEB 		bl	_ZNK7GPSData12AltitudeFeetEv	@
 822 031c 0C1096E5 		ldr	r1, [r6, #12]	@ this_3(D)->peakAltitude, this_3(D)->peakAltitude
 823 0320 010050E1 		cmp	r0, r1	@, this_3(D)->peakAltitude
 824 0324 090000CA 		bgt	.L44	@,
 825              	.L28:
 157:APRSBeacon.cpp ****             if (this->startGPSTime == 0)
 826              		.loc 1 157 0
 827 0328 102096E5 		ldr	r2, [r6, #16]	@ this_3(D)->startGPSTime, this_3(D)->startGPSTime
 828 032c 000052E3 		cmp	r2, #0	@ this_3(D)->startGPSTime,
 829 0330 4BFFFF1A 		bne	.L27	@,
 159:APRSBeacon.cpp ****                 this->startGPSTime = gpsData->TimeSinceEpoch();
 830              		.loc 1 159 0
 831 0334 0400A0E1 		mov	r0, r4	@, gpsData
 832 0338 FEFFFFEB 		bl	_ZNK7GPSData14TimeSinceEpochEv	@
 833 033c 100086E5 		str	r0, [r6, #16]	@, this_3(D)->startGPSTime
 160:APRSBeacon.cpp ****                 Log::GetInstance()->TimeStamp(gpsData);
 834              		.loc 1 160 0
 835 0340 FEFFFFEB 		bl	_ZN3Log11GetInstanceEv	@
 836 0344 0410A0E1 		mov	r1, r4	@, gpsData
 837 0348 FEFFFFEB 		bl	_ZN3Log9TimeStampEPK7GPSData	@
 838 034c 44FFFFEA 		b	.L27	@
 839              	.L44:
 154:APRSBeacon.cpp ****                 this->peakAltitude = gpsData->AltitudeFeet();
 840              		.loc 1 154 0
 841 0350 0400A0E1 		mov	r0, r4	@, gpsData
 842 0354 FEFFFFEB 		bl	_ZNK7GPSData12AltitudeFeetEv	@
 843 0358 0C0086E5 		str	r0, [r6, #12]	@, this_3(D)->peakAltitude
 844 035c F1FFFFEA 		b	.L28	@
 845              	.L46:
 846              		.align	2
 847              	.L45:
 848 0360 78000000 		.word	.LC7
 849 0364 70000000 		.word	.LC6
 850 0368 80000000 		.word	.LC8
 851 036c 88000000 		.word	.LC9
 852 0370 A8000000 		.word	.LC10
 853 0374 C4000000 		.word	.LC11
 854 0378 D8000000 		.word	.LC12
 855              	.LBE17:
 856              	.LBE19:
 857              	.LBE20:
 858              		.cfi_endproc
 859              	.LFE123:
 860              		.size	_ZN10APRSBeacon15ScheduleMessageEv, .-_ZN10APRSBeacon15ScheduleMessageEv
 861              		.section	.text._ZN10APRSBeacon3RunEv,"ax",%progbits
 862              		.align	2
 863              		.global	_ZN10APRSBeacon3RunEv
 864              		.type	_ZN10APRSBeacon3RunEv, %function
 865              	_ZN10APRSBeacon3RunEv:
 866              	.LFB124:
 202:APRSBeacon.cpp **** 
 203:APRSBeacon.cpp **** /**
 204:APRSBeacon.cpp ****  * Start and run the mission application.
 205:APRSBeacon.cpp ****  */
 206:APRSBeacon.cpp **** void APRSBeacon::Run()
 207:APRSBeacon.cpp **** {
ARM GAS  /tmp/ccwv63ZI.s 			page 21


 867              		.loc 1 207 0
 868              		.cfi_startproc
 869              		@ Function supports interworking.
 870              		@ args = 0, pretend = 0, frame = 0
 871              		@ frame_needed = 0, uses_anonymous_args = 0
 872              	.LVL36:
 873 0000 10402DE9 		stmfd	sp!, {r4, lr}	@,
 874              	.LCFI13:
 875              		.cfi_def_cfa_offset 8
 876              		.loc 1 207 0
 877 0004 0040A0E1 		mov	r4, r0	@ this, this
 878              		.cfi_offset 14, -4
 879              		.cfi_offset 4, -8
 208:APRSBeacon.cpp ****     // Set the system clock to the minimum speed required for USB operation.
 209:APRSBeacon.cpp ****     SystemControl::GetInstance()->Enable(SystemControl::Clock24MHz, SystemControl::Timer1Base);
 880              		.loc 1 209 0
 881 0008 FEFFFFEB 		bl	_ZN13SystemControl11GetInstanceEv	@
 882              	.LVL37:
 883 000c 0120A0E3 		mov	r2, #1	@,
 884 0010 0210A0E3 		mov	r1, #2	@,
 885 0014 FEFFFFEB 		bl	_ZN13SystemControl6EnableENS_14ClockFrequencyENS_18SystemTickTimeBaseE	@
 210:APRSBeacon.cpp **** 
 211:APRSBeacon.cpp ****     // Set the GPIO to the default state.
 212:APRSBeacon.cpp ****     IOPorts::Enable();
 886              		.loc 1 212 0
 887 0018 FEFFFFEB 		bl	_ZN7IOPorts6EnableEv	@
 213:APRSBeacon.cpp **** 
 214:APRSBeacon.cpp ****     // Turn on both LEDs.
 215:APRSBeacon.cpp ****     IOPorts::StatusLED (IOPorts::LEDYellow, true);
 888              		.loc 1 215 0
 889 001c 0110A0E3 		mov	r1, #1	@,
 890 0020 0200A0E3 		mov	r0, #2	@,
 891 0024 FEFFFFEB 		bl	_ZN7IOPorts9StatusLEDENS_10STATUS_LEDEb	@
 216:APRSBeacon.cpp **** 
 217:APRSBeacon.cpp ****     // UART 0 is the console serial port, UART 1 is the GPS engine.
 218:APRSBeacon.cpp ****     UART0::GetInstance()->Enable(UART0::BaudRate57600);
 892              		.loc 1 218 0
 893 0028 FEFFFFEB 		bl	_ZN5UART011GetInstanceEv	@
 894 002c E11CA0E3 		mov	r1, #57600	@,
 895 0030 FEFFFFEB 		bl	_ZN5UART06EnableEN8UARTBase8BaudRateE	@
 219:APRSBeacon.cpp ****     //UART1::GetInstance()->Enable(UART1::BaudRate9600, UART1::Control8O1);
 220:APRSBeacon.cpp **** 
 221:APRSBeacon.cpp ****     // SPI 0 is the CMX867A MODEM, SPI 1 is the M25P80 flash memory.
 222:APRSBeacon.cpp ****     SPI0::GetInstance()->Enable();
 896              		.loc 1 222 0
 897 0034 FEFFFFEB 		bl	_ZN4SPI011GetInstanceEv	@
 898 0038 0010A0E3 		mov	r1, #0	@,
 899 003c FEFFFFEB 		bl	_ZN4SPI06EnableEb	@
 223:APRSBeacon.cpp ****     //SPI1::GetInstance()->Enable(SPI1::MaxClock, SPI1::DataSize_8Bits, SPI1::CPOL0_CPHA0);
 224:APRSBeacon.cpp **** 
 225:APRSBeacon.cpp ****     // I2C Bus 0 is the temp sensor, real time clock, and 3D MEMS sensor.
 226:APRSBeacon.cpp ****     //I2C0::GetInstance()->Enable();
 227:APRSBeacon.cpp **** 
 228:APRSBeacon.cpp ****     // Enable and set the output DAC voltage to 0 VDC.
 229:APRSBeacon.cpp ****     DAC::GetInstance()->Enable();
 900              		.loc 1 229 0
 901 0040 FEFFFFEB 		bl	_ZN3DAC11GetInstanceEv	@
ARM GAS  /tmp/ccwv63ZI.s 			page 22


 902 0044 FEFFFFEB 		bl	_ZN3DAC6EnableEv	@
 230:APRSBeacon.cpp ****     DAC::GetInstance()->Set (0);
 903              		.loc 1 230 0
 904 0048 FEFFFFEB 		bl	_ZN3DAC11GetInstanceEv	@
 905 004c 0010A0E3 		mov	r1, #0	@,
 906 0050 FEFFFFEB 		bl	_ZN3DAC3SetEm	@
 231:APRSBeacon.cpp **** 
 232:APRSBeacon.cpp ****     // CMX867A MODEM
 233:APRSBeacon.cpp ****     CMX867A::GetInstance()->Enable();
 907              		.loc 1 233 0
 908 0054 FEFFFFEB 		bl	_ZN7CMX867A11GetInstanceEv	@
 909 0058 FEFFFFEB 		bl	_ZN7CMX867A6EnableEv	@
 234:APRSBeacon.cpp **** 
 235:APRSBeacon.cpp ****     // Temperature sensor.
 236:APRSBeacon.cpp ****     //LM92::GetInstance()->Enable();
 237:APRSBeacon.cpp **** 
 238:APRSBeacon.cpp ****     // Setup the flash memory for logging.
 239:APRSBeacon.cpp ****     //Log::GetInstance()->Enable();
 240:APRSBeacon.cpp **** 
 241:APRSBeacon.cpp ****     // Get the engineering control object and enable it.
 242:APRSBeacon.cpp ****     eng = Engineering::GetInstance();
 910              		.loc 1 242 0
 911 005c FEFFFFEB 		bl	_ZN11Engineering11GetInstanceEv	@
 912 0060 040084E5 		str	r0, [r4, #4]	@, this_8(D)->eng
 243:APRSBeacon.cpp ****     eng->Enable();
 913              		.loc 1 243 0
 914 0064 FEFFFFEB 		bl	_ZN11Engineering6EnableEv	@
 244:APRSBeacon.cpp **** 
 245:APRSBeacon.cpp ****     // Objects used for the application
 246:APRSBeacon.cpp ****     this->afsk = AFSK::GetInstance();
 915              		.loc 1 246 0
 916 0068 FEFFFFEB 		bl	_ZN4AFSK11GetInstanceEv	@
 917 006c 080084E5 		str	r0, [r4, #8]	@, this_8(D)->afsk
 247:APRSBeacon.cpp ****     //this->gps = GPSLassen::GetInstance();
 248:APRSBeacon.cpp **** 
 249:APRSBeacon.cpp ****     // Turn on the radio and give it time to boot.
 250:APRSBeacon.cpp ****     IOPorts::RadioPower(true);
 918              		.loc 1 250 0
 919 0070 0100A0E3 		mov	r0, #1	@,
 920 0074 FEFFFFEB 		bl	_ZN7IOPorts10RadioPowerEb	@
 251:APRSBeacon.cpp ****     SystemControl::Sleep(100);
 921              		.loc 1 251 0
 922 0078 6400A0E3 		mov	r0, #100	@,
 923 007c FEFFFFEB 		bl	_ZN13SystemControl5SleepEm	@
 252:APRSBeacon.cpp **** 
 253:APRSBeacon.cpp ****     // Show a startup message on the serial port.
 254:APRSBeacon.cpp ****     UART0::GetInstance()->WriteLine ("System booted");
 924              		.loc 1 254 0
 925 0080 FEFFFFEB 		bl	_ZN5UART011GetInstanceEv	@
 926 0084 48109FE5 		ldr	r1, .L53	@,
 927 0088 FEFFFFEB 		bl	_ZN5UART09WriteLineEPKcz	@
 255:APRSBeacon.cpp **** 
 256:APRSBeacon.cpp ****     // Turn off the LEDs.
 257:APRSBeacon.cpp ****     IOPorts::StatusLED (IOPorts::LEDYellow, false);
 928              		.loc 1 257 0
 929 008c 0200A0E3 		mov	r0, #2	@,
 930 0090 0010A0E3 		mov	r1, #0	@,
ARM GAS  /tmp/ccwv63ZI.s 			page 23


 931 0094 FEFFFFEB 		bl	_ZN7IOPorts9StatusLEDENS_10STATUS_LEDEb	@
 258:APRSBeacon.cpp **** 
 259:APRSBeacon.cpp ****     // Transmit a startup message.
 260:APRSBeacon.cpp ****     this->afsk->Transmit (">APRS Beacon v1.1");
 932              		.loc 1 260 0
 933 0098 080094E5 		ldr	r0, [r4, #8]	@, this_8(D)->afsk
 934 009c 34109FE5 		ldr	r1, .L53+4	@,
 935 00a0 0020A0E3 		mov	r2, #0	@,
 936 00a4 FEFFFFEB 		bl	_ZN4AFSK8TransmitEPKcS1_	@
 937              	.L52:
 261:APRSBeacon.cpp **** 
 262:APRSBeacon.cpp ****     //Log::GetInstance()->SystemBooted();
 263:APRSBeacon.cpp **** 
 264:APRSBeacon.cpp ****     for (;;)
 265:APRSBeacon.cpp ****     {
 266:APRSBeacon.cpp ****         // Check the serial port for engineering commands.
 267:APRSBeacon.cpp ****         eng->ProcessCommand();
 938              		.loc 1 267 0
 939 00a8 040094E5 		ldr	r0, [r4, #4]	@, this_8(D)->eng
 940 00ac FEFFFFEB 		bl	_ZN11Engineering14ProcessCommandEv	@
 268:APRSBeacon.cpp **** 
 269:APRSBeacon.cpp ****         // Update the waveform state machine as required.
 270:APRSBeacon.cpp ****         this->afsk->Update();
 941              		.loc 1 270 0
 942 00b0 080094E5 		ldr	r0, [r4, #8]	@, this_8(D)->afsk
 943 00b4 FEFFFFEB 		bl	_ZN4AFSK6UpdateEv	@
 271:APRSBeacon.cpp **** 
 272:APRSBeacon.cpp ****         if (!this->afsk->IsTransmit())
 944              		.loc 1 272 0
 945 00b8 080094E5 		ldr	r0, [r4, #8]	@, this_8(D)->afsk
 946 00bc FEFFFFEB 		bl	_ZN4AFSK10IsTransmitEv	@
 947 00c0 000050E3 		cmp	r0, #0	@,
 948 00c4 F7FFFF1A 		bne	.L52	@,
 273:APRSBeacon.cpp ****             ScheduleMessage();
 949              		.loc 1 273 0
 950 00c8 0400A0E1 		mov	r0, r4	@, this
 951 00cc FEFFFFEB 		bl	_ZN10APRSBeacon15ScheduleMessageEv	@
 952 00d0 F4FFFFEA 		b	.L52	@
 953              	.L54:
 954              		.align	2
 955              	.L53:
 956 00d4 DC000000 		.word	.LC13
 957 00d8 EC000000 		.word	.LC14
 958              		.cfi_endproc
 959              	.LFE124:
 960              		.size	_ZN10APRSBeacon3RunEv, .-_ZN10APRSBeacon3RunEv
 961              		.section	.text._GLOBAL__I__ZN9GPSLassen7HasDataEv,"ax",%progbits
 962              		.align	2
 963              		.type	_GLOBAL__I__ZN9GPSLassen7HasDataEv, %function
 964              	_GLOBAL__I__ZN9GPSLassen7HasDataEv:
 965              	.LFB126:
 274:APRSBeacon.cpp ****     } // END for
 275:APRSBeacon.cpp **** }
 966              		.loc 1 275 0
 967              		.cfi_startproc
 968              		@ Function supports interworking.
 969              		@ args = 0, pretend = 0, frame = 0
ARM GAS  /tmp/ccwv63ZI.s 			page 24


 970              		@ frame_needed = 0, uses_anonymous_args = 0
 971              		@ link register save eliminated.
 972              	.LVL38:
 973              	.LBB21:
 974              	.LBB22:
 975              	.LBB23:
 976              	.LBB24:
  89:APRSBeacon.cpp ****     this->peakAltitude = 0;
 977              		.loc 1 89 0
 978 0000 10309FE5 		ldr	r3, .L57	@ tmp133,
 979 0004 0020A0E3 		mov	r2, #0	@ tmp134,
 980 0008 0C2083E5 		str	r2, [r3, #12]	@ tmp134, APRSBeaconSingletonObject.peakAltitude
  90:APRSBeacon.cpp ****     this->startGPSTime = 0;
 981              		.loc 1 90 0
 982 000c 102083E5 		str	r2, [r3, #16]	@ tmp134, APRSBeaconSingletonObject.startGPSTime
  91:APRSBeacon.cpp ****     this->statusLEDOffTick = 0;
 983              		.loc 1 91 0
 984 0010 142083E5 		str	r2, [r3, #20]	@ tmp134, APRSBeaconSingletonObject.statusLEDOffTick
 985              	.LBE24:
 986              	.LBE23:
 987              	.LBE22:
 988              	.LBE21:
 989              		.loc 1 275 0
 990 0014 1EFF2FE1 		bx	lr	@
 991              	.L58:
 992              		.align	2
 993              	.L57:
 994 0018 00000000 		.word	.LANCHOR0
 995              		.cfi_endproc
 996              	.LFE126:
 997              		.size	_GLOBAL__I__ZN9GPSLassen7HasDataEv, .-_GLOBAL__I__ZN9GPSLassen7HasDataEv
 998              		.section	.init_array,"aw",%init_array
 999              		.align	2
 1000 0000 00000000 		.word	_GLOBAL__I__ZN9GPSLassen7HasDataEv(target1)
 1001              		.global	_ZTV6M25P80
 1002              		.global	_ZTV9GPSLassen
 1003              		.global	_ZTV7CMX867A
 1004              		.section	.rodata
 1005              		.align	3
 1006              		.type	_ZTV6M25P80, %object
 1007              		.size	_ZTV6M25P80, 20
 1008              	_ZTV6M25P80:
 1009 0000 00000000 		.word	0
 1010 0004 00000000 		.word	0
 1011 0008 00000000 		.word	_ZN6M25P807IOSetCSEb
 1012 000c 00000000 		.word	_ZN6M25P807SPIReadEv
 1013 0010 00000000 		.word	_ZN6M25P808SPIWriteEh
 1014 0014 00000000 		.space	4
 1015              		.type	_ZTV9GPSLassen, %object
 1016              		.size	_ZTV9GPSLassen, 20
 1017              	_ZTV9GPSLassen:
 1018 0018 00000000 		.word	0
 1019 001c 00000000 		.word	0
 1020 0020 00000000 		.word	_ZN9GPSLassen7HasDataEv
 1021 0024 00000000 		.word	_ZN9GPSLassen8ReadDataEv
 1022 0028 00000000 		.word	_ZN9GPSLassen9WriteDataEh
 1023 002c 00000000 		.space	4
ARM GAS  /tmp/ccwv63ZI.s 			page 25


 1024              		.type	_ZTV7CMX867A, %object
 1025              		.size	_ZTV7CMX867A, 20
 1026              	_ZTV7CMX867A:
 1027 0030 00000000 		.word	0
 1028 0034 00000000 		.word	0
 1029 0038 00000000 		.word	_ZN7CMX867A7IOSetCSEb
 1030 003c 00000000 		.word	_ZN7CMX867A7SPIReadEv
 1031 0040 00000000 		.word	_ZN7CMX867A8SPIWriteEh
 1032 0044 00000000 		.section	.rodata.str1.4,"aMS",%progbits,1
 1033              		.align	2
 1034              	.LC0:
 1035 0000 3E42616C 		.ascii	">Balloon -:--:-- \000"
 1035      6C6F6F6E 
 1035      202D3A2D 
 1035      2D3A2D2D 
 1035      2000
 1036 0012 0000     		.space	2
 1037              	.LC1:
 1038 0014 3E42616C 		.ascii	">Balloon %ld:%02ld:%02ld \000"
 1038      6C6F6F6E 
 1038      20256C64 
 1038      3A253032 
 1038      6C643A25 
 1039 002e 0000     		.space	2
 1040              	.LC2:
 1041 0030 256C6427 		.ascii	"%ld' %ld'pk \000"
 1041      20256C64 
 1041      27706B20 
 1041      00
 1042 003d 000000   		.space	3
 1043              	.LC3:
 1044 0040 25752E25 		.ascii	"%u.%01u%cdop %utrk \000"
 1044      30317525 
 1044      63646F70 
 1044      20257574 
 1044      726B2000 
 1045              	.LC4:
 1046 0054 256C6464 		.ascii	"%lddegF \000"
 1046      65674620 
 1046      00
 1047 005d 000000   		.space	3
 1048              	.LC5:
 1049 0060 7777772E 		.ascii	"www.kd7lmo.net\015\000"
 1049      6B64376C 
 1049      6D6F2E6E 
 1049      65740D00 
 1050              	.LC6:
 1051 0070 33442066 		.ascii	"3D fix\000"
 1051      697800
 1052 0077 00       		.space	1
 1053              	.LC7:
 1054 0078 6E6F2066 		.ascii	"no fix\000"
 1054      697800
 1055 007f 00       		.space	1
 1056              	.LC8:
 1057 0080 32442066 		.ascii	"2D fix\000"
 1057      697800
ARM GAS  /tmp/ccwv63ZI.s 			page 26


 1058 0087 00       		.space	1
 1059              	.LC9:
 1060 0088 256C6420 		.ascii	"%ld %s %02d:%02d:%02d %d/%d/%d \000"
 1060      25732025 
 1060      3032643A 
 1060      25303264 
 1060      3A253032 
 1061              	.LC10:
 1062 00a8 256C6420 		.ascii	"%ld %ld %ld %ld %d %d 0x%x \000"
 1062      256C6420 
 1062      256C6420 
 1062      256C6420 
 1062      25642025 
 1063              	.LC11:
 1064 00c4 25642064 		.ascii	"%d deg @ %ld knots \000"
 1064      65672040 
 1064      20256C64 
 1064      206B6E6F 
 1064      74732000 
 1065              	.LC12:
 1066 00d8 256C6400 		.ascii	"%ld\000"
 1067              	.LC13:
 1068 00dc 53797374 		.ascii	"System booted\000"
 1068      656D2062 
 1068      6F6F7465 
 1068      6400
 1069 00ea 0000     		.space	2
 1070              	.LC14:
 1071 00ec 3E415052 		.ascii	">APRS Beacon v1.1\000"
 1071      53204265 
 1071      61636F6E 
 1071      2076312E 
 1071      3100
 1072 00fe 0000     		.bss
 1073              		.align	2
 1074              		.set	.LANCHOR0,. + 0
 1075              		.type	_ZL25APRSBeaconSingletonObject, %object
 1076              		.size	_ZL25APRSBeaconSingletonObject, 24
 1077              	_ZL25APRSBeaconSingletonObject:
 1078 0000 00000000 		.space	24
 1078      00000000 
 1078      00000000 
 1078      00000000 
 1078      00000000 
 1079              		.text
 1080              	.Letext0: