ARM GAS  /tmp/ccNlEhad.s 			page 1


   1              		.cpu arm7tdmi
   2              		.fpu softvfp
   3              		.eabi_attribute 20, 1
   4              		.eabi_attribute 21, 1
   5              		.eabi_attribute 23, 3
   6              		.eabi_attribute 24, 1
   7              		.eabi_attribute 25, 1
   8              		.eabi_attribute 26, 1
   9              		.eabi_attribute 30, 6
  10              		.eabi_attribute 18, 4
  11              		.file	"Engineering.cpp"
  12              	@ GNU C++ (Sourcery G++ Lite 2011.03-42) version 4.5.2 (arm-none-eabi)
  13              	@	compiled by GNU C version 4.3.2, GMP version 4.3.2, MPFR version 2.4.2, MPC version 0.8.1
  14              	@ GGC heuristics: --param ggc-min-expand=100 --param ggc-min-heapsize=131072
  15              	@ options passed:  -I . -I../arm/arm7lib -iprefix
  16              	@ /home/elijah/CodeSourcery/Sourcery_G++_Lite/bin/../lib/gcc/arm-none-eabi/4.5.2/
  17              	@ -isysroot
  18              	@ /home/elijah/CodeSourcery/Sourcery_G++_Lite/bin/../arm-none-eabi -MD
  19              	@ Engineering.d -MF .dep/Engineering.o.d -MP -MQ Engineering.o
  20              	@ -D__USES_INITFINI__ -D__CS_SOURCERYGXX_MAJ__=2011
  21              	@ -D__CS_SOURCERYGXX_MIN__=3 -D__CS_SOURCERYGXX_REV__=42 Engineering.cpp
  22              	@ -mcpu=arm7tdmi -auxbase-strip Engineering.o -gdwarf-2 -O0 -Wall -fno-rtti
  23              	@ -fno-exceptions -fomit-frame-pointer -ffunction-sections -fverbose-asm
  24              	@ options enabled:  -falign-loops -fargument-alias -fauto-inc-dec
  25              	@ -fbranch-count-reg -fcommon -fdelete-null-pointer-checks -fdwarf2-cfi-asm
  26              	@ -fearly-inlining -feliminate-unused-debug-types -ffunction-cse
  27              	@ -ffunction-sections -fgcse-lm -fident -finline-functions-called-once
  28              	@ -fira-share-save-slots -fira-share-spill-slots -fivopts
  29              	@ -fkeep-static-consts -fleading-underscore -fmath-errno
  30              	@ -fmerge-debug-strings -fmove-loop-invariants -fomit-frame-pointer
  31              	@ -fpeephole -fpromote-loop-indices -freg-struct-return
  32              	@ -fsched-critical-path-heuristic -fsched-dep-count-heuristic
  33              	@ -fsched-group-heuristic -fsched-interblock -fsched-last-insn-heuristic
  34              	@ -fsched-rank-heuristic -fsched-spec -fsched-spec-insn-heuristic
  35              	@ -fsched-stalled-insns-dep -fshow-column -fsigned-zeros
  36              	@ -fsplit-ivs-in-unroller -fstrict-volatile-bitfields -ftrapping-math
  37              	@ -ftree-cselim -ftree-forwprop -ftree-loop-im -ftree-loop-ivcanon
  38              	@ -ftree-loop-optimize -ftree-parallelize-loops= -ftree-phiprop -ftree-pta
  39              	@ -ftree-reassoc -ftree-scev-cprop -ftree-slp-vectorize
  40              	@ -ftree-vect-loop-version -funit-at-a-time -fverbose-asm
  41              	@ -fzero-initialized-in-bss -mlittle-endian -msched-prolog
  42              	@ -mthumb-interwork
  43              	
  50 0000 65050000 		.text
  50      0200C303 
  50      00000201 
  50      FB0E0D00 
  50      01010101 
  51              	.Ltext0:
  52              	@ Compiler executable checksum: cfdaeede3ac8e9b2b599068efabc405c
  53              	
ARM GAS  /tmp/ccNlEhad.s 			page 2


  54              		.cfi_sections	.debug_frame
  55              		.bss
  56              		.align	2
  57              	_ZL26engineeringSingletonObject:
  58 0000 00000000 		.space	12
  58      00000000 
  58      00000000 
  59              		.section	.text._ZN11Engineering11GetInstanceEv,"ax",%progbits
  60              		.align	2
  61              		.global	_ZN11Engineering11GetInstanceEv
  62              		.type	_ZN11Engineering11GetInstanceEv, %function
  63              	_ZN11Engineering11GetInstanceEv:
  64              	.LFB109:
  65              		.file 1 "Engineering.cpp"
   1:Engineering.cpp **** /***************************************************************************
   2:Engineering.cpp ****  *                                                                         *
   3:Engineering.cpp ****  *  This program is free software; you can redistribute it and/or modify   *
   4:Engineering.cpp ****  *  it under the terms of the GNU General Public License as published by   *
   5:Engineering.cpp ****  *  the Free Software Foundation; either version 2 of the License, or      *
   6:Engineering.cpp ****  *  (at your option) any later version.                                    *
   7:Engineering.cpp ****  *                                                                         *
   8:Engineering.cpp ****  *  This program is distributed in the hope that it will be useful,        *
   9:Engineering.cpp ****  *  but WITHOUT ANY WARRANTY; without even the implied warranty of         *
  10:Engineering.cpp ****  *  MERCHANTABILITY or FITNESS FOR A PARTICULAR PURPOSE.  See the          *
  11:Engineering.cpp ****  *  GNU General Public License for more details.                           *
  12:Engineering.cpp ****  *                                                                         *
  13:Engineering.cpp ****  *  You should have received a copy of the GNU General Public License      *
  14:Engineering.cpp ****  *  along with this program; if not, write to the Free Software            * 
  15:Engineering.cpp ****  *  Foundation, Inc., 59 Temple Place, Suite 330, Boston, MA  02111 USA    *
  16:Engineering.cpp ****  *                                                                         *
  17:Engineering.cpp ****  ***************************************************************************
  18:Engineering.cpp ****  *                                                                         *
  19:Engineering.cpp ****  *               (c) Copyright, 2001-2008, Michael Gray                    *
  20:Engineering.cpp ****  *                                                                         *
  21:Engineering.cpp ****  ***************************************************************************
  22:Engineering.cpp ****  *                                                                         *
  23:Engineering.cpp ****  * Filename:     Engineering.cpp                                           *
  24:Engineering.cpp ****  *                                                                         *
  25:Engineering.cpp ****  ***************************************************************************/
  26:Engineering.cpp **** 
  27:Engineering.cpp **** #include "main.h"
  28:Engineering.cpp **** 
  29:Engineering.cpp **** /// Reserve memory for singleton object.
  30:Engineering.cpp **** static Engineering engineeringSingletonObject;
  31:Engineering.cpp **** 
  32:Engineering.cpp **** /**
  33:Engineering.cpp ****  * Get a pointer to the DAC singleton object.
  34:Engineering.cpp ****  */
  35:Engineering.cpp **** Engineering *Engineering::GetInstance()
  36:Engineering.cpp **** {
  66              		.loc 1 36 0
  67              		.cfi_startproc
  68              		@ Function supports interworking.
  69              		@ args = 0, pretend = 0, frame = 0
  70              		@ frame_needed = 0, uses_anonymous_args = 0
  71              		@ link register save eliminated.
  37:Engineering.cpp ****     return &engineeringSingletonObject;
ARM GAS  /tmp/ccNlEhad.s 			page 3


  72              		.loc 1 37 0
  73 0000 04309FE5 		ldr	r3, .L2	@ D.10577,
  38:Engineering.cpp **** }
  74              		.loc 1 38 0
  75 0004 0300A0E1 		mov	r0, r3	@, <retval>
  76 0008 1EFF2FE1 		bx	lr	@
  77              	.L3:
  78              		.align	2
  79              	.L2:
  80 000c 00000000 		.word	_ZL26engineeringSingletonObject
  81              		.cfi_endproc
  82              	.LFE109:
  83              		.size	_ZN11Engineering11GetInstanceEv, .-_ZN11Engineering11GetInstanceEv
  84              		.section	.text._ZN11EngineeringC2Ev,"ax",%progbits
  85              		.align	2
  86              		.global	_ZN11EngineeringC2Ev
  87              		.type	_ZN11EngineeringC2Ev, %function
  88              	_ZN11EngineeringC2Ev:
  89              	.LFB111:
  39:Engineering.cpp **** 
  40:Engineering.cpp **** /**
  41:Engineering.cpp ****  *   Constructor.
  42:Engineering.cpp ****  */
  43:Engineering.cpp **** Engineering::Engineering()
  90              		.loc 1 43 0
  91              		.cfi_startproc
  92              		@ Function supports interworking.
  93              		@ args = 0, pretend = 0, frame = 8
  94              		@ frame_needed = 0, uses_anonymous_args = 0
  95              		@ link register save eliminated.
  96 0000 08D04DE2 		sub	sp, sp, #8	@,,
  97              	.LCFI0:
  98              		.cfi_def_cfa_offset 8
  99 0004 04008DE5 		str	r0, [sp, #4]	@ this, this
 100              	.LBB2:
  44:Engineering.cpp **** {
  45:Engineering.cpp ****     this->radioPower = true;    
 101              		.loc 1 45 0
 102 0008 04309DE5 		ldr	r3, [sp, #4]	@ tmp135, this
 103 000c 0120A0E3 		mov	r2, #1	@ tmp136,
 104 0010 0820C3E5 		strb	r2, [r3, #8]	@ tmp137, this_1(D)->radioPower
  46:Engineering.cpp ****     this->radioPTT = false;    
 105              		.loc 1 46 0
 106 0014 04309DE5 		ldr	r3, [sp, #4]	@ tmp138, this
 107 0018 0020A0E3 		mov	r2, #0	@ tmp139,
 108 001c 0920C3E5 		strb	r2, [r3, #9]	@ tmp140, this_1(D)->radioPTT
  47:Engineering.cpp ****     this->radioFreq = false;
 109              		.loc 1 47 0
 110 0020 04309DE5 		ldr	r3, [sp, #4]	@ tmp141, this
 111 0024 0020A0E3 		mov	r2, #0	@ tmp142,
 112 0028 0A20C3E5 		strb	r2, [r3, #10]	@ tmp143, this_1(D)->radioFreq
 113              	.LBE2:
  48:Engineering.cpp **** }
 114              		.loc 1 48 0
 115 002c 04309DE5 		ldr	r3, [sp, #4]	@ D.10575, this
 116 0030 0300A0E1 		mov	r0, r3	@, <retval>
 117 0034 08D08DE2 		add	sp, sp, #8	@,,
ARM GAS  /tmp/ccNlEhad.s 			page 4


 118 0038 1EFF2FE1 		bx	lr
 119              		.cfi_endproc
 120              	.LFE111:
 121              		.size	_ZN11EngineeringC2Ev, .-_ZN11EngineeringC2Ev
 122              		.global	_ZN11EngineeringC1Ev
 123              		.set	_ZN11EngineeringC1Ev,_ZN11EngineeringC2Ev
 124              		.section	.text._ZN11Engineering6EnableEv,"ax",%progbits
 125              		.align	2
 126              		.global	_ZN11Engineering6EnableEv
 127              		.type	_ZN11Engineering6EnableEv, %function
 128              	_ZN11Engineering6EnableEv:
 129              	.LFB113:
  49:Engineering.cpp **** 
  50:Engineering.cpp **** /**
  51:Engineering.cpp ****  * Configure the engineering mode for operation.
  52:Engineering.cpp ****  */
  53:Engineering.cpp **** void Engineering::Enable()
  54:Engineering.cpp **** {
 130              		.loc 1 54 0
 131              		.cfi_startproc
 132              		@ Function supports interworking.
 133              		@ args = 0, pretend = 0, frame = 8
 134              		@ frame_needed = 0, uses_anonymous_args = 0
 135 0000 04E02DE5 		str	lr, [sp, #-4]!	@,
 136              	.LCFI1:
 137              		.cfi_def_cfa_offset 4
 138 0004 0CD04DE2 		sub	sp, sp, #12	@,,
 139              	.LCFI2:
 140              		.cfi_def_cfa_offset 16
 141 0008 04008DE5 		str	r0, [sp, #4]	@ this, this
  55:Engineering.cpp ****     this->uart = UART0::GetInstance();
 142              		.loc 1 55 0
 143              		.cfi_offset 14, -4
 144 000c FEFFFFEB 		bl	_ZN5UART011GetInstanceEv	@
 145 0010 0020A0E1 		mov	r2, r0	@ D.10573,
 146 0014 04309DE5 		ldr	r3, [sp, #4]	@ tmp135, this
 147 0018 002083E5 		str	r2, [r3, #0]	@ D.10573, this_2(D)->uart
  56:Engineering.cpp ****     
  57:Engineering.cpp ****     this->gps = GPSLassen::GetInstance();
 148              		.loc 1 57 0
 149 001c FEFFFFEB 		bl	_ZN9GPSLassen11GetInstanceEv	@
 150 0020 0020A0E1 		mov	r2, r0	@ D.10574,
 151 0024 04309DE5 		ldr	r3, [sp, #4]	@ tmp136, this
 152 0028 042083E5 		str	r2, [r3, #4]	@ D.10574, this_2(D)->gps
  58:Engineering.cpp **** }
 153              		.loc 1 58 0
 154 002c 0CD08DE2 		add	sp, sp, #12	@,,
 155 0030 04E09DE4 		ldr	lr, [sp], #4
 156 0034 1EFF2FE1 		bx	lr
 157              		.cfi_endproc
 158              	.LFE113:
 159              		.size	_ZN11Engineering6EnableEv, .-_ZN11Engineering6EnableEv
 160              		.section	.rodata
 161              		.align	2
 162              	.LC0:
 163 0000 41505253 		.ascii	"APRS Beacon Engineering Console\000"
 163      20426561 
ARM GAS  /tmp/ccNlEhad.s 			page 5


 163      636F6E20 
 163      456E6769 
 163      6E656572 
 164              		.align	2
 165              	.LC1:
 166 0020 28532974 		.ascii	"(S)tatus\000"
 166      61747573 
 166      00
 167 0029 000000   		.align	2
 168              	.LC2:
 169 002c 28312920 		.ascii	"(1) Radio Power\000"
 169      52616469 
 169      6F20506F 
 169      77657200 
 170              		.align	2
 171              	.LC3:
 172 003c 28322920 		.ascii	"(2) Radio PTT\000"
 172      52616469 
 172      6F205054 
 172      5400
 173 004a 0000     		.align	2
 174              	.LC4:
 175 004c 28332920 		.ascii	"(3) Radio Freq\000"
 175      52616469 
 175      6F204672 
 175      657100
 176 005b 00       		.align	2
 177              	.LC5:
 178 005c 4379636C 		.ascii	"Cycle (d)ac output 0, 0.5, 1, 1.5, 2, 2.5, 3, 3.3 V"
 178      65202864 
 178      29616320 
 178      6F757470 
 178      75742030 
 179 008f 444300   		.ascii	"DC\000"
 180 0092 0000     		.align	2
 181              	.LC6:
 182 0094 28682965 		.ascii	"(h)elp\000"
 182      6C7000
 183 009b 00       		.align	2
 184              	.LC7:
 185 009c 00       		.ascii	"\000"
 186              		.section	.text._ZN11Engineering4MenuEv,"ax",%progbits
 187              		.align	2
 188              		.global	_ZN11Engineering4MenuEv
 189              		.type	_ZN11Engineering4MenuEv, %function
 190              	_ZN11Engineering4MenuEv:
 191              	.LFB114:
  59:Engineering.cpp **** 
  60:Engineering.cpp **** /**
  61:Engineering.cpp ****  * Display the command menu on the control port.
  62:Engineering.cpp ****  */
  63:Engineering.cpp **** void Engineering::Menu()
  64:Engineering.cpp **** {
 192              		.loc 1 64 0
 193              		.cfi_startproc
 194              		@ Function supports interworking.
 195              		@ args = 0, pretend = 0, frame = 8
ARM GAS  /tmp/ccNlEhad.s 			page 6


 196              		@ frame_needed = 0, uses_anonymous_args = 0
 197 0000 04E02DE5 		str	lr, [sp, #-4]!	@,
 198              	.LCFI3:
 199              		.cfi_def_cfa_offset 4
 200 0004 0CD04DE2 		sub	sp, sp, #12	@,,
 201              	.LCFI4:
 202              		.cfi_def_cfa_offset 16
 203 0008 04008DE5 		str	r0, [sp, #4]	@ this, this
  65:Engineering.cpp ****     uart->WriteLine ("APRS Beacon Engineering Console");
 204              		.loc 1 65 0
 205 000c 04309DE5 		ldr	r3, [sp, #4]	@ tmp141, this
 206 0010 003093E5 		ldr	r3, [r3, #0]	@ D.10565, this_1(D)->uart
 207 0014 0300A0E1 		mov	r0, r3	@, D.10565
 208 0018 98109FE5 		ldr	r1, .L8	@,
 209              		.cfi_offset 14, -4
 210 001c FEFFFFEB 		bl	_ZN5UART09WriteLineEPKcz	@
  66:Engineering.cpp ****     
  67:Engineering.cpp ****     uart->WriteLine ("(S)tatus");
 211              		.loc 1 67 0
 212 0020 04309DE5 		ldr	r3, [sp, #4]	@ tmp142, this
 213 0024 003093E5 		ldr	r3, [r3, #0]	@ D.10566, this_1(D)->uart
 214 0028 0300A0E1 		mov	r0, r3	@, D.10566
 215 002c 88109FE5 		ldr	r1, .L8+4	@,
 216 0030 FEFFFFEB 		bl	_ZN5UART09WriteLineEPKcz	@
  68:Engineering.cpp ****     uart->WriteLine ("(1) Radio Power");
 217              		.loc 1 68 0
 218 0034 04309DE5 		ldr	r3, [sp, #4]	@ tmp143, this
 219 0038 003093E5 		ldr	r3, [r3, #0]	@ D.10567, this_1(D)->uart
 220 003c 0300A0E1 		mov	r0, r3	@, D.10567
 221 0040 78109FE5 		ldr	r1, .L8+8	@,
 222 0044 FEFFFFEB 		bl	_ZN5UART09WriteLineEPKcz	@
  69:Engineering.cpp ****     uart->WriteLine ("(2) Radio PTT");
 223              		.loc 1 69 0
 224 0048 04309DE5 		ldr	r3, [sp, #4]	@ tmp144, this
 225 004c 003093E5 		ldr	r3, [r3, #0]	@ D.10568, this_1(D)->uart
 226 0050 0300A0E1 		mov	r0, r3	@, D.10568
 227 0054 68109FE5 		ldr	r1, .L8+12	@,
 228 0058 FEFFFFEB 		bl	_ZN5UART09WriteLineEPKcz	@
  70:Engineering.cpp ****     uart->WriteLine ("(3) Radio Freq");
 229              		.loc 1 70 0
 230 005c 04309DE5 		ldr	r3, [sp, #4]	@ tmp145, this
 231 0060 003093E5 		ldr	r3, [r3, #0]	@ D.10569, this_1(D)->uart
 232 0064 0300A0E1 		mov	r0, r3	@, D.10569
 233 0068 58109FE5 		ldr	r1, .L8+16	@,
 234 006c FEFFFFEB 		bl	_ZN5UART09WriteLineEPKcz	@
  71:Engineering.cpp ****     uart->WriteLine ("Cycle (d)ac output 0, 0.5, 1, 1.5, 2, 2.5, 3, 3.3 VDC");
 235              		.loc 1 71 0
 236 0070 04309DE5 		ldr	r3, [sp, #4]	@ tmp146, this
 237 0074 003093E5 		ldr	r3, [r3, #0]	@ D.10570, this_1(D)->uart
 238 0078 0300A0E1 		mov	r0, r3	@, D.10570
 239 007c 48109FE5 		ldr	r1, .L8+20	@,
 240 0080 FEFFFFEB 		bl	_ZN5UART09WriteLineEPKcz	@
  72:Engineering.cpp ****     uart->WriteLine ("(h)elp");
 241              		.loc 1 72 0
 242 0084 04309DE5 		ldr	r3, [sp, #4]	@ tmp147, this
 243 0088 003093E5 		ldr	r3, [r3, #0]	@ D.10571, this_1(D)->uart
 244 008c 0300A0E1 		mov	r0, r3	@, D.10571
ARM GAS  /tmp/ccNlEhad.s 			page 7


 245 0090 38109FE5 		ldr	r1, .L8+24	@,
 246 0094 FEFFFFEB 		bl	_ZN5UART09WriteLineEPKcz	@
  73:Engineering.cpp ****     uart->WriteLine("");
 247              		.loc 1 73 0
 248 0098 04309DE5 		ldr	r3, [sp, #4]	@ tmp148, this
 249 009c 003093E5 		ldr	r3, [r3, #0]	@ D.10572, this_1(D)->uart
 250 00a0 0300A0E1 		mov	r0, r3	@, D.10572
 251 00a4 28109FE5 		ldr	r1, .L8+28	@,
 252 00a8 FEFFFFEB 		bl	_ZN5UART09WriteLineEPKcz	@
  74:Engineering.cpp **** }
 253              		.loc 1 74 0
 254 00ac 0CD08DE2 		add	sp, sp, #12	@,,
 255 00b0 04E09DE4 		ldr	lr, [sp], #4
 256 00b4 1EFF2FE1 		bx	lr
 257              	.L9:
 258              		.align	2
 259              	.L8:
 260 00b8 00000000 		.word	.LC0
 261 00bc 20000000 		.word	.LC1
 262 00c0 2C000000 		.word	.LC2
 263 00c4 3C000000 		.word	.LC3
 264 00c8 4C000000 		.word	.LC4
 265 00cc 5C000000 		.word	.LC5
 266 00d0 94000000 		.word	.LC6
 267 00d4 9C000000 		.word	.LC7
 268              		.cfi_endproc
 269              	.LFE114:
 270              		.size	_ZN11Engineering4MenuEv, .-_ZN11Engineering4MenuEv
 271              		.section	.text._ZN11Engineering18MICEncoderTestCaseEP7GPSDatam,"ax",%progbits
 272              		.align	2
 273              		.global	_ZN11Engineering18MICEncoderTestCaseEP7GPSDatam
 274              		.type	_ZN11Engineering18MICEncoderTestCaseEP7GPSDatam, %function
 275              	_ZN11Engineering18MICEncoderTestCaseEP7GPSDatam:
 276              	.LFB115:
  75:Engineering.cpp **** 
  76:Engineering.cpp **** /**
  77:Engineering.cpp ****  * Set the GPS Data Set based on the desired unit test case.
  78:Engineering.cpp ****  * 
  79:Engineering.cpp ****  * @param gps pointer to GPS Data Set to populate
  80:Engineering.cpp ****  * @param testCase number in the range 0 to 5
  81:Engineering.cpp ****  */
  82:Engineering.cpp **** void Engineering::MICEncoderTestCase (GPSData *gps, uint32_t testCase)
  83:Engineering.cpp **** {
 277              		.loc 1 83 0
 278              		.cfi_startproc
 279              		@ Function supports interworking.
 280              		@ args = 0, pretend = 0, frame = 16
 281              		@ frame_needed = 0, uses_anonymous_args = 0
 282              		@ link register save eliminated.
 283 0000 10D04DE2 		sub	sp, sp, #16	@,,
 284              	.LCFI5:
 285              		.cfi_def_cfa_offset 16
 286 0004 0C008DE5 		str	r0, [sp, #12]	@ this, this
 287 0008 08108DE5 		str	r1, [sp, #8]	@ gps, gps
 288 000c 04208DE5 		str	r2, [sp, #4]	@ testCase, testCase
  84:Engineering.cpp ****     switch (testCase)
 289              		.loc 1 84 0
ARM GAS  /tmp/ccNlEhad.s 			page 8


 290 0010 04309DE5 		ldr	r3, [sp, #4]	@ tmp133, testCase
 291 0014 060053E3 		cmp	r3, #6	@ tmp133,
 292 0018 03F19F97 		ldrls	pc, [pc, r3, asl #2]	@ tmp133
 293 001c 760000EA 		b	.L10	@
 294              	.L19:
 295 0020 3C000000 		.word	.L12
 296 0024 7C000000 		.word	.L13
 297 0028 BC000000 		.word	.L14
 298 002c FC000000 		.word	.L15
 299 0030 3C010000 		.word	.L16
 300 0034 7C010000 		.word	.L17
 301 0038 BC010000 		.word	.L18
 302              	.L12:
  85:Engineering.cpp ****     {
  86:Engineering.cpp ****         // Home base.  N37 37.12' W111 44.03' 1760', 55MPH 95deg
  87:Engineering.cpp ****         case 0:
  88:Engineering.cpp ****             gps->latitude = 336187459;
 303              		.loc 1 88 0
 304 003c 08309DE5 		ldr	r3, [sp, #8]	@ tmp134, gps
 305 0040 BC219FE5 		ldr	r2, .L20	@ tmp135,
 306 0044 102083E5 		str	r2, [r3, #16]	@ tmp135, gps_2(D)->latitude
  89:Engineering.cpp ****             gps->longitude = -1117339150;
 307              		.loc 1 89 0
 308 0048 08309DE5 		ldr	r3, [sp, #8]	@ tmp136, gps
 309 004c B4219FE5 		ldr	r2, .L20+4	@ tmp137,
 310 0050 142083E5 		str	r2, [r3, #20]	@ tmp137, gps_2(D)->longitude
  90:Engineering.cpp ****             gps->altitude = 53645; 
 311              		.loc 1 90 0
 312 0054 08309DE5 		ldr	r3, [sp, #8]	@ tmp138, gps
 313 0058 AC219FE5 		ldr	r2, .L20+8	@ tmp139,
 314 005c 202083E5 		str	r2, [r3, #32]	@ tmp139, gps_2(D)->altitude
  91:Engineering.cpp ****             gps->speed = 2459; 
 315              		.loc 1 91 0
 316 0060 08309DE5 		ldr	r3, [sp, #8]	@ tmp140, gps
 317 0064 A4219FE5 		ldr	r2, .L20+12	@ tmp142,
 318 0068 B822C3E1 		strh	r2, [r3, #40]	@ movhi	@ tmp141, gps_2(D)->speed
  92:Engineering.cpp ****             gps->heading = 9500;
 319              		.loc 1 92 0
 320 006c 08309DE5 		ldr	r3, [sp, #8]	@ tmp143, gps
 321 0070 9C219FE5 		ldr	r2, .L20+16	@ tmp145,
 322 0074 BA22C3E1 		strh	r2, [r3, #42]	@ movhi	@ tmp144, gps_2(D)->heading
  93:Engineering.cpp ****             break;
 323              		.loc 1 93 0
 324 0078 5F0000EA 		b	.L10	@
 325              	.L13:
  94:Engineering.cpp ****             
  95:Engineering.cpp ****         // N/W coordinates at boundaries.  N33 30.00' W111 59.98' 123,450', 215MPH, 359deg
  96:Engineering.cpp ****         case 1:
  97:Engineering.cpp ****             gps->latitude = 335000000;
 326              		.loc 1 97 0
 327 007c 08309DE5 		ldr	r3, [sp, #8]	@ tmp146, gps
 328 0080 90219FE5 		ldr	r2, .L20+20	@ tmp147,
 329 0084 102083E5 		str	r2, [r3, #16]	@ tmp147, gps_2(D)->latitude
  98:Engineering.cpp ****             gps->longitude = -1119997222;
 330              		.loc 1 98 0
 331 0088 08309DE5 		ldr	r3, [sp, #8]	@ tmp148, gps
 332 008c 88219FE5 		ldr	r2, .L20+24	@ tmp149,
ARM GAS  /tmp/ccNlEhad.s 			page 9


 333 0090 142083E5 		str	r2, [r3, #20]	@ tmp149, gps_2(D)->longitude
  99:Engineering.cpp ****             gps->altitude = 3762756; 
 334              		.loc 1 99 0
 335 0094 08309DE5 		ldr	r3, [sp, #8]	@ tmp150, gps
 336 0098 80219FE5 		ldr	r2, .L20+28	@ tmp151,
 337 009c 202083E5 		str	r2, [r3, #32]	@ tmp151, gps_2(D)->altitude
 100:Engineering.cpp ****             gps->speed = 9611; 
 338              		.loc 1 100 0
 339 00a0 08309DE5 		ldr	r3, [sp, #8]	@ tmp152, gps
 340 00a4 78219FE5 		ldr	r2, .L20+32	@ tmp154,
 341 00a8 B822C3E1 		strh	r2, [r3, #40]	@ movhi	@ tmp153, gps_2(D)->speed
 101:Engineering.cpp ****             gps->heading = 35900;
 342              		.loc 1 101 0
 343 00ac 08309DE5 		ldr	r3, [sp, #8]	@ tmp155, gps
 344 00b0 70219FE5 		ldr	r2, .L20+36	@ tmp157,
 345 00b4 BA22C3E1 		strh	r2, [r3, #42]	@ movhi	@ tmp156, gps_2(D)->heading
 102:Engineering.cpp ****             break;  
 346              		.loc 1 102 0
 347 00b8 4F0000EA 		b	.L10	@
 348              	.L14:
 103:Engineering.cpp ****             
 104:Engineering.cpp ****         // N/W coordinates at boundaries. S21 45.67' W83 15.17, 25', 18MPH, 210deg 
 105:Engineering.cpp ****         case 2:
 106:Engineering.cpp ****             gps->latitude = -217611667;
 349              		.loc 1 106 0
 350 00bc 08309DE5 		ldr	r3, [sp, #8]	@ tmp158, gps
 351 00c0 64219FE5 		ldr	r2, .L20+40	@ tmp159,
 352 00c4 102083E5 		str	r2, [r3, #16]	@ tmp159, gps_2(D)->latitude
 107:Engineering.cpp ****             gps->longitude = -832527778;
 353              		.loc 1 107 0
 354 00c8 08309DE5 		ldr	r3, [sp, #8]	@ tmp160, gps
 355 00cc 5C219FE5 		ldr	r2, .L20+44	@ tmp161,
 356 00d0 142083E5 		str	r2, [r3, #20]	@ tmp161, gps_2(D)->longitude
 108:Engineering.cpp ****             gps->altitude = 762; 
 357              		.loc 1 108 0
 358 00d4 08309DE5 		ldr	r3, [sp, #8]	@ tmp162, gps
 359 00d8 54219FE5 		ldr	r2, .L20+48	@ tmp163,
 360 00dc 202083E5 		str	r2, [r3, #32]	@ tmp163, gps_2(D)->altitude
 109:Engineering.cpp ****             gps->speed = 805; 
 361              		.loc 1 109 0
 362 00e0 08309DE5 		ldr	r3, [sp, #8]	@ tmp164, gps
 363 00e4 4C219FE5 		ldr	r2, .L20+52	@ tmp166,
 364 00e8 B822C3E1 		strh	r2, [r3, #40]	@ movhi	@ tmp165, gps_2(D)->speed
 110:Engineering.cpp ****             gps->heading = 21010;
 365              		.loc 1 110 0
 366 00ec 08309DE5 		ldr	r3, [sp, #8]	@ tmp167, gps
 367 00f0 44219FE5 		ldr	r2, .L20+56	@ tmp169,
 368 00f4 BA22C3E1 		strh	r2, [r3, #42]	@ movhi	@ tmp168, gps_2(D)->heading
 111:Engineering.cpp ****             break;  
 369              		.loc 1 111 0
 370 00f8 3F0000EA 		b	.L10	@
 371              	.L15:
 112:Engineering.cpp ****             
 113:Engineering.cpp ****         // N/W coordinates at boundaries. N55 47.50'  E 35.775', 30,500', 116MPH, 210deg  
 114:Engineering.cpp ****         case 3:
 115:Engineering.cpp ****             gps->latitude = 557916667;
 372              		.loc 1 115 0
ARM GAS  /tmp/ccNlEhad.s 			page 10


 373 00fc 08309DE5 		ldr	r3, [sp, #8]	@ tmp170, gps
 374 0100 38219FE5 		ldr	r2, .L20+60	@ tmp171,
 375 0104 102083E5 		str	r2, [r3, #16]	@ tmp171, gps_2(D)->latitude
 116:Engineering.cpp ****             gps->longitude = 5963333;
 376              		.loc 1 116 0
 377 0108 08309DE5 		ldr	r3, [sp, #8]	@ tmp172, gps
 378 010c 30219FE5 		ldr	r2, .L20+64	@ tmp173,
 379 0110 142083E5 		str	r2, [r3, #20]	@ tmp173, gps_2(D)->longitude
 117:Engineering.cpp ****             gps->altitude = 929640; 
 380              		.loc 1 117 0
 381 0114 08309DE5 		ldr	r3, [sp, #8]	@ tmp174, gps
 382 0118 28219FE5 		ldr	r2, .L20+68	@ tmp175,
 383 011c 202083E5 		str	r2, [r3, #32]	@ tmp175, gps_2(D)->altitude
 118:Engineering.cpp ****             gps->speed = 5196; 
 384              		.loc 1 118 0
 385 0120 08309DE5 		ldr	r3, [sp, #8]	@ tmp176, gps
 386 0124 20219FE5 		ldr	r2, .L20+72	@ tmp178,
 387 0128 B822C3E1 		strh	r2, [r3, #40]	@ movhi	@ tmp177, gps_2(D)->speed
 119:Engineering.cpp ****             gps->heading = 550;
 388              		.loc 1 119 0
 389 012c 08309DE5 		ldr	r3, [sp, #8]	@ tmp179, gps
 390 0130 18219FE5 		ldr	r2, .L20+76	@ tmp181,
 391 0134 BA22C3E1 		strh	r2, [r3, #42]	@ movhi	@ tmp180, gps_2(D)->heading
 120:Engineering.cpp ****             break;             
 392              		.loc 1 120 0
 393 0138 2F0000EA 		b	.L10	@
 394              	.L16:
 121:Engineering.cpp ****             
 122:Engineering.cpp ****         // N45 00.00' W 79 45.00', 7000', 75MPH, 70.5deg 
 123:Engineering.cpp ****         case 4:
 124:Engineering.cpp ****             gps->latitude = 450000000;
 395              		.loc 1 124 0
 396 013c 08309DE5 		ldr	r3, [sp, #8]	@ tmp182, gps
 397 0140 0C219FE5 		ldr	r2, .L20+80	@ tmp183,
 398 0144 102083E5 		str	r2, [r3, #16]	@ tmp183, gps_2(D)->latitude
 125:Engineering.cpp ****             gps->longitude = -797500000;
 399              		.loc 1 125 0
 400 0148 08309DE5 		ldr	r3, [sp, #8]	@ tmp184, gps
 401 014c 04219FE5 		ldr	r2, .L20+84	@ tmp185,
 402 0150 142083E5 		str	r2, [r3, #20]	@ tmp185, gps_2(D)->longitude
 126:Engineering.cpp ****             gps->altitude = 213360;  
 403              		.loc 1 126 0
 404 0154 08309DE5 		ldr	r3, [sp, #8]	@ tmp186, gps
 405 0158 FC209FE5 		ldr	r2, .L20+88	@ tmp187,
 406 015c 202083E5 		str	r2, [r3, #32]	@ tmp187, gps_2(D)->altitude
 127:Engineering.cpp ****             gps->speed = 3352; 
 407              		.loc 1 127 0
 408 0160 08309DE5 		ldr	r3, [sp, #8]	@ tmp188, gps
 409 0164 F4209FE5 		ldr	r2, .L20+92	@ tmp190,
 410 0168 B822C3E1 		strh	r2, [r3, #40]	@ movhi	@ tmp189, gps_2(D)->speed
 128:Engineering.cpp ****             gps->heading = 7050;
 411              		.loc 1 128 0
 412 016c 08309DE5 		ldr	r3, [sp, #8]	@ tmp191, gps
 413 0170 EC209FE5 		ldr	r2, .L20+96	@ tmp193,
 414 0174 BA22C3E1 		strh	r2, [r3, #42]	@ movhi	@ tmp192, gps_2(D)->heading
 129:Engineering.cpp ****             break;    
 415              		.loc 1 129 0
ARM GAS  /tmp/ccNlEhad.s 			page 11


 416 0178 1F0000EA 		b	.L10	@
 417              	.L17:
 130:Engineering.cpp ****             
 131:Engineering.cpp ****         // N45 00.00' W 79 45.00', 7000', 110MPH, 70.5deg 
 132:Engineering.cpp ****         case 5:
 133:Engineering.cpp ****             gps->latitude = 557916667;
 418              		.loc 1 133 0
 419 017c 08309DE5 		ldr	r3, [sp, #8]	@ tmp194, gps
 420 0180 B8209FE5 		ldr	r2, .L20+60	@ tmp195,
 421 0184 102083E5 		str	r2, [r3, #16]	@ tmp195, gps_2(D)->latitude
 134:Engineering.cpp ****             gps->longitude = 5963333;
 422              		.loc 1 134 0
 423 0188 08309DE5 		ldr	r3, [sp, #8]	@ tmp196, gps
 424 018c B0209FE5 		ldr	r2, .L20+64	@ tmp197,
 425 0190 142083E5 		str	r2, [r3, #20]	@ tmp197, gps_2(D)->longitude
 135:Engineering.cpp ****             gps->altitude = 929640; 
 426              		.loc 1 135 0
 427 0194 08309DE5 		ldr	r3, [sp, #8]	@ tmp198, gps
 428 0198 A8209FE5 		ldr	r2, .L20+68	@ tmp199,
 429 019c 202083E5 		str	r2, [r3, #32]	@ tmp199, gps_2(D)->altitude
 136:Engineering.cpp ****             gps->speed = 5093; 
 430              		.loc 1 136 0
 431 01a0 08309DE5 		ldr	r3, [sp, #8]	@ tmp200, gps
 432 01a4 BC209FE5 		ldr	r2, .L20+100	@ tmp202,
 433 01a8 B822C3E1 		strh	r2, [r3, #40]	@ movhi	@ tmp201, gps_2(D)->speed
 137:Engineering.cpp ****             gps->heading = 550; 
 434              		.loc 1 137 0
 435 01ac 08309DE5 		ldr	r3, [sp, #8]	@ tmp203, gps
 436 01b0 98209FE5 		ldr	r2, .L20+76	@ tmp205,
 437 01b4 BA22C3E1 		strh	r2, [r3, #42]	@ movhi	@ tmp204, gps_2(D)->heading
 138:Engineering.cpp ****             break;
 438              		.loc 1 138 0
 439 01b8 0F0000EA 		b	.L10	@
 440              	.L18:
 139:Engineering.cpp ****             
 140:Engineering.cpp ****         // 
 141:Engineering.cpp ****         case 6:
 142:Engineering.cpp ****             gps->latitude = 336089640;
 441              		.loc 1 142 0
 442 01bc 08309DE5 		ldr	r3, [sp, #8]	@ tmp206, gps
 443 01c0 A4209FE5 		ldr	r2, .L20+104	@ tmp207,
 444 01c4 102083E5 		str	r2, [r3, #16]	@ tmp207, gps_2(D)->latitude
 143:Engineering.cpp ****             gps->longitude = -1117210150;
 445              		.loc 1 143 0
 446 01c8 08309DE5 		ldr	r3, [sp, #8]	@ tmp208, gps
 447 01cc 9C209FE5 		ldr	r2, .L20+108	@ tmp209,
 448 01d0 142083E5 		str	r2, [r3, #20]	@ tmp209, gps_2(D)->longitude
 144:Engineering.cpp ****             gps->altitude = 47100;; 
 449              		.loc 1 144 0
 450 01d4 08309DE5 		ldr	r3, [sp, #8]	@ tmp210, gps
 451 01d8 94209FE5 		ldr	r2, .L20+112	@ tmp211,
 452 01dc 202083E5 		str	r2, [r3, #32]	@ tmp211, gps_2(D)->altitude
 145:Engineering.cpp ****             gps->speed = 1104;
 453              		.loc 1 145 0
 454 01e0 08309DE5 		ldr	r3, [sp, #8]	@ tmp212, gps
 455 01e4 452EA0E3 		mov	r2, #1104	@ tmp214,
 456 01e8 B822C3E1 		strh	r2, [r3, #40]	@ movhi	@ tmp213, gps_2(D)->speed
ARM GAS  /tmp/ccNlEhad.s 			page 12


 146:Engineering.cpp ****             gps->heading = 28670; 
 457              		.loc 1 146 0
 458 01ec 08309DE5 		ldr	r3, [sp, #8]	@ tmp215, gps
 459 01f0 80209FE5 		ldr	r2, .L20+116	@ tmp217,
 460 01f4 BA22C3E1 		strh	r2, [r3, #42]	@ movhi	@ tmp216, gps_2(D)->heading
 147:Engineering.cpp ****             break;
 461              		.loc 1 147 0
 462 01f8 0000A0E1 		mov	r0, r0	@ nop
 463              	.L10:
 148:Engineering.cpp ****     } // END switch    
 149:Engineering.cpp **** }
 464              		.loc 1 149 0
 465 01fc 10D08DE2 		add	sp, sp, #16	@,,
 466 0200 1EFF2FE1 		bx	lr
 467              	.L21:
 468              		.align	2
 469              	.L20:
 470 0204 43D00914 		.word	336187459
 471 0208 F2C166BD 		.word	-1117339150
 472 020c 8DD10000 		.word	53645
 473 0210 9B090000 		.word	2459
 474 0214 1C250000 		.word	9500
 475 0218 C0B1F713 		.word	335000000
 476 021c DA323EBD 		.word	-1119997222
 477 0220 446A3900 		.word	3762756
 478 0224 8B250000 		.word	9611
 479 0228 3C8CFFFF 		.word	-29636
 480 022c 6D8207F3 		.word	-217611667
 481 0230 5EA260CE 		.word	-832527778
 482 0234 FA020000 		.word	762
 483 0238 25030000 		.word	805
 484 023c 12520000 		.word	21010
 485 0240 FB214121 		.word	557916667
 486 0244 45FE5A00 		.word	5963333
 487 0248 682F0E00 		.word	929640
 488 024c 4C140000 		.word	5196
 489 0250 26020000 		.word	550
 490 0254 8074D21A 		.word	450000000
 491 0258 A01D77D0 		.word	-797500000
 492 025c 70410300 		.word	213360
 493 0260 180D0000 		.word	3352
 494 0264 8A1B0000 		.word	7050
 495 0268 E5130000 		.word	5093
 496 026c 28520814 		.word	336089640
 497 0270 DAB968BD 		.word	-1117210150
 498 0274 FCB70000 		.word	47100
 499 0278 FE6F0000 		.word	28670
 500              		.cfi_endproc
 501              	.LFE115:
 502              		.size	_ZN11Engineering18MICEncoderTestCaseEP7GPSDatam, .-_ZN11Engineering18MICEncoderTestCaseEP7GP
 503              		.section	.rodata
 504 009d 000000   		.align	2
 505              	.LC8:
 506 00a0 7265626F 		.ascii	"rebooting\000"
 506      6F74696E 
 506      6700
 507 00aa 0000     		.align	2
ARM GAS  /tmp/ccNlEhad.s 			page 13


 508              	.LC9:
 509 00ac 57686963 		.ascii	"Which test case?\000"
 509      68207465 
 509      73742063 
 509      6173653F 
 509      00
 510 00bd 000000   		.align	2
 511              	.LC10:
 512 00c0 41726520 		.ascii	"Are you sure you want to erase the flash memory (ye"
 512      796F7520 
 512      73757265 
 512      20796F75 
 512      2077616E 
 513 00f3 73293F20 		.ascii	"s)? \000"
 513      00
 514              		.align	2
 515              	.LC11:
 516 00f8 45726173 		.ascii	"Erasing flash memory...\000"
 516      696E6720 
 516      666C6173 
 516      68206D65 
 516      6D6F7279 
 517              		.align	2
 518              	.LC12:
 519 0110 646F6E65 		.ascii	"done.\000"
 519      2E00
 520 0116 0000     		.align	2
 521              	.LC13:
 522 0118 256C6400 		.ascii	"%ld\000"
 523              		.align	2
 524              	.LC14:
 525 011c 53442049 		.ascii	"SD Init Error\012\015\000"
 525      6E697420 
 525      4572726F 
 525      720A0D00 
 526              		.align	2
 527              	.LC15:
 528 012c 556E6B6E 		.ascii	"Unknown command.  Press 'h' for help.\000"
 528      6F776E20 
 528      636F6D6D 
 528      616E642E 
 528      20205072 
 529              		.section	.text._ZN11Engineering14ProcessCommandEv,"ax",%progbits
 530              		.align	2
 531              		.global	_ZN11Engineering14ProcessCommandEv
 532              		.type	_ZN11Engineering14ProcessCommandEv, %function
 533              	_ZN11Engineering14ProcessCommandEv:
 534              	.LFB116:
 150:Engineering.cpp **** 
 151:Engineering.cpp **** /**
 152:Engineering.cpp ****  * Read and process any commands entered on the serial port.
 153:Engineering.cpp ****  */
 154:Engineering.cpp **** void Engineering::ProcessCommand()
 155:Engineering.cpp **** {
 535              		.loc 1 155 0
 536              		.cfi_startproc
 537              		@ Function supports interworking.
ARM GAS  /tmp/ccNlEhad.s 			page 14


 538              		@ args = 0, pretend = 0, frame = 312
 539              		@ frame_needed = 0, uses_anonymous_args = 0
 540 0000 30402DE9 		stmfd	sp!, {r4, r5, lr}	@,
 541              	.LCFI6:
 542              		.cfi_def_cfa_offset 12
 543 0004 4FDF4DE2 		sub	sp, sp, #316	@,,
 544              	.LCFI7:
 545              		.cfi_def_cfa_offset 328
 546 0008 04008DE5 		str	r0, [sp, #4]	@ this, this
 547              	.LBB3:
 156:Engineering.cpp ****     uint8_t value;
 157:Engineering.cpp ****     char buffer[160];
 158:Engineering.cpp ****     MICEncoder micEncoder;
 159:Engineering.cpp ****     GPSData gpsData;
 548              		.loc 1 159 0
 549 000c AC308DE2 		add	r3, sp, #172	@ tmp200,,
 550 0010 0300A0E1 		mov	r0, r3	@, tmp200
 551              		.cfi_offset 14, -4
 552              		.cfi_offset 5, -8
 553              		.cfi_offset 4, -12
 554 0014 FEFFFFEB 		bl	_ZN7GPSDataC1Ev	@
 160:Engineering.cpp ****     
 161:Engineering.cpp ****     while (uart->IsCharReady())
 555              		.loc 1 161 0
 556 0018 7A0100EA 		b	.L23	@
 557              	.L53:
 162:Engineering.cpp ****     {
 163:Engineering.cpp ****         value = uart->ReadChar();
 558              		.loc 1 163 0
 559 001c 04309DE5 		ldr	r3, [sp, #4]	@ tmp201, this
 560 0020 003093E5 		ldr	r3, [r3, #0]	@ D.10455, this_4(D)->uart
 561 0024 0300A0E1 		mov	r0, r3	@, D.10455
 562 0028 FEFFFFEB 		bl	_ZN5UART08ReadCharEv	@
 563 002c 0030A0E1 		mov	r3, r0	@ tmp202,
 564 0030 3731CDE5 		strb	r3, [sp, #311]	@ tmp203, value
 164:Engineering.cpp ****         
 165:Engineering.cpp ****         switch (value)
 565              		.loc 1 165 0
 566 0034 3731DDE5 		ldrb	r3, [sp, #311]	@ zero_extendqisi2	@ D.10457, value
 567 0038 313043E2 		sub	r3, r3, #49	@ tmp204, D.10457,
 568 003c 440053E3 		cmp	r3, #68	@ tmp204,
 569 0040 03F19F97 		ldrls	pc, [pc, r3, asl #2]	@ tmp204
 570 0044 5A0100EA 		b	.L24	@
 571              	.L37:
 572 0048 5C010000 		.word	.L25
 573 004c 94010000 		.word	.L26
 574 0050 CC010000 		.word	.L27
 575 0054 B4050000 		.word	.L24
 576 0058 B4050000 		.word	.L24
 577 005c B4050000 		.word	.L24
 578 0060 B4050000 		.word	.L24
 579 0064 B4050000 		.word	.L24
 580 0068 B4050000 		.word	.L24
 581 006c B4050000 		.word	.L24
 582 0070 B4050000 		.word	.L24
 583 0074 B4050000 		.word	.L24
 584 0078 B4050000 		.word	.L24
ARM GAS  /tmp/ccNlEhad.s 			page 15


 585 007c B4050000 		.word	.L24
 586 0080 B4050000 		.word	.L24
 587 0084 B4050000 		.word	.L24
 588 0088 B4050000 		.word	.L24
 589 008c B4050000 		.word	.L24
 590 0090 B4050000 		.word	.L24
 591 0094 B4050000 		.word	.L24
 592 0098 B4050000 		.word	.L24
 593 009c B4050000 		.word	.L24
 594 00a0 B4050000 		.word	.L24
 595 00a4 B4050000 		.word	.L24
 596 00a8 B4050000 		.word	.L24
 597 00ac B4050000 		.word	.L24
 598 00b0 B4050000 		.word	.L24
 599 00b4 B4050000 		.word	.L24
 600 00b8 B4050000 		.word	.L24
 601 00bc B4050000 		.word	.L24
 602 00c0 B4050000 		.word	.L24
 603 00c4 B4050000 		.word	.L24
 604 00c8 B4050000 		.word	.L24
 605 00cc B4050000 		.word	.L24
 606 00d0 B4050000 		.word	.L24
 607 00d4 B4050000 		.word	.L24
 608 00d8 B4050000 		.word	.L24
 609 00dc B4050000 		.word	.L24
 610 00e0 B4050000 		.word	.L24
 611 00e4 B4050000 		.word	.L24
 612 00e8 B4050000 		.word	.L24
 613 00ec B4050000 		.word	.L24
 614 00f0 B4050000 		.word	.L24
 615 00f4 B4050000 		.word	.L24
 616 00f8 B4050000 		.word	.L24
 617 00fc B4050000 		.word	.L24
 618 0100 B4050000 		.word	.L24
 619 0104 B4050000 		.word	.L24
 620 0108 B4050000 		.word	.L24
 621 010c 04020000 		.word	.L28
 622 0110 B4050000 		.word	.L24
 623 0114 B4050000 		.word	.L24
 624 0118 AC030000 		.word	.L29
 625 011c B4050000 		.word	.L24
 626 0120 B4050000 		.word	.L24
 627 0124 20020000 		.word	.L30
 628 0128 50050000 		.word	.L31
 629 012c B4050000 		.word	.L24
 630 0130 B4050000 		.word	.L24
 631 0134 B4050000 		.word	.L24
 632 0138 2C020000 		.word	.L32
 633 013c A4020000 		.word	.L33
 634 0140 B4050000 		.word	.L24
 635 0144 B4050000 		.word	.L24
 636 0148 7C050000 		.word	.L34
 637 014c B4050000 		.word	.L24
 638 0150 B4050000 		.word	.L24
 639 0154 0C050000 		.word	.L35
 640 0158 98030000 		.word	.L36
 641              	.L25:
ARM GAS  /tmp/ccNlEhad.s 			page 16


 166:Engineering.cpp ****         {
 167:Engineering.cpp ****             case '1':
 168:Engineering.cpp ****                 radioPower = (radioPower ? false : true);
 642              		.loc 1 168 0
 643 015c 04309DE5 		ldr	r3, [sp, #4]	@ tmp205, this
 644 0160 0830D3E5 		ldrb	r3, [r3, #8]	@ zero_extendqisi2	@ D.10459, this_4(D)->radioPower
 645 0164 000053E3 		cmp	r3, #0	@ D.10459,
 646 0168 0100000A 		beq	.L38	@,
 647              		.loc 1 168 0 is_stmt 0 discriminator 1
 648 016c 0030A0E3 		mov	r3, #0	@ iftmp.1,
 649 0170 000000EA 		b	.L39	@
 650              	.L38:
 651              		.loc 1 168 0 discriminator 2
 652 0174 0130A0E3 		mov	r3, #1	@ iftmp.1,
 653              	.L39:
 654              		.loc 1 168 0 discriminator 3
 655 0178 04209DE5 		ldr	r2, [sp, #4]	@ tmp206, this
 656 017c 0830C2E5 		strb	r3, [r2, #8]	@ tmp207, this_4(D)->radioPower
 169:Engineering.cpp ****                 IOPorts::RadioPower(radioPower);
 657              		.loc 1 169 0 is_stmt 1 discriminator 3
 658 0180 04309DE5 		ldr	r3, [sp, #4]	@ tmp208, this
 659 0184 0830D3E5 		ldrb	r3, [r3, #8]	@ zero_extendqisi2	@ D.10463, this_4(D)->radioPower
 660 0188 0300A0E1 		mov	r0, r3	@, D.10463
 661 018c FEFFFFEB 		bl	_ZN7IOPorts10RadioPowerEb	@
 170:Engineering.cpp ****                 break;
 662              		.loc 1 170 0 discriminator 3
 663 0190 1C0100EA 		b	.L23	@
 664              	.L26:
 171:Engineering.cpp ****                 
 172:Engineering.cpp ****             case '2':
 173:Engineering.cpp ****                 radioPTT = (radioPTT ? false : true);
 665              		.loc 1 173 0
 666 0194 04309DE5 		ldr	r3, [sp, #4]	@ tmp209, this
 667 0198 0930D3E5 		ldrb	r3, [r3, #9]	@ zero_extendqisi2	@ D.10465, this_4(D)->radioPTT
 668 019c 000053E3 		cmp	r3, #0	@ D.10465,
 669 01a0 0100000A 		beq	.L40	@,
 670              		.loc 1 173 0 is_stmt 0 discriminator 1
 671 01a4 0030A0E3 		mov	r3, #0	@ iftmp.2,
 672 01a8 000000EA 		b	.L41	@
 673              	.L40:
 674              		.loc 1 173 0 discriminator 2
 675 01ac 0130A0E3 		mov	r3, #1	@ iftmp.2,
 676              	.L41:
 677              		.loc 1 173 0 discriminator 3
 678 01b0 04209DE5 		ldr	r2, [sp, #4]	@ tmp210, this
 679 01b4 0930C2E5 		strb	r3, [r2, #9]	@ tmp211, this_4(D)->radioPTT
 174:Engineering.cpp ****                 IOPorts::RadioPTT(radioPTT);
 680              		.loc 1 174 0 is_stmt 1 discriminator 3
 681 01b8 04309DE5 		ldr	r3, [sp, #4]	@ tmp212, this
 682 01bc 0930D3E5 		ldrb	r3, [r3, #9]	@ zero_extendqisi2	@ D.10469, this_4(D)->radioPTT
 683 01c0 0300A0E1 		mov	r0, r3	@, D.10469
 684 01c4 FEFFFFEB 		bl	_ZN7IOPorts8RadioPTTEb	@
 175:Engineering.cpp ****                 break;
 685              		.loc 1 175 0 discriminator 3
 686 01c8 0E0100EA 		b	.L23	@
 687              	.L27:
 176:Engineering.cpp ****                 
ARM GAS  /tmp/ccNlEhad.s 			page 17


 177:Engineering.cpp ****             case '3':
 178:Engineering.cpp ****                 radioFreq = (radioFreq ? false : true);
 688              		.loc 1 178 0
 689 01cc 04309DE5 		ldr	r3, [sp, #4]	@ tmp213, this
 690 01d0 0A30D3E5 		ldrb	r3, [r3, #10]	@ zero_extendqisi2	@ D.10471, this_4(D)->radioFreq
 691 01d4 000053E3 		cmp	r3, #0	@ D.10471,
 692 01d8 0100000A 		beq	.L42	@,
 693              		.loc 1 178 0 is_stmt 0 discriminator 1
 694 01dc 0030A0E3 		mov	r3, #0	@ iftmp.3,
 695 01e0 000000EA 		b	.L43	@
 696              	.L42:
 697              		.loc 1 178 0 discriminator 2
 698 01e4 0130A0E3 		mov	r3, #1	@ iftmp.3,
 699              	.L43:
 700              		.loc 1 178 0 discriminator 3
 701 01e8 04209DE5 		ldr	r2, [sp, #4]	@ tmp214, this
 702 01ec 0A30C2E5 		strb	r3, [r2, #10]	@ tmp215, this_4(D)->radioFreq
 179:Engineering.cpp ****                 IOPorts::RadioFreq(radioFreq);
 703              		.loc 1 179 0 is_stmt 1 discriminator 3
 704 01f0 04309DE5 		ldr	r3, [sp, #4]	@ tmp216, this
 705 01f4 0A30D3E5 		ldrb	r3, [r3, #10]	@ zero_extendqisi2	@ D.10475, this_4(D)->radioFreq
 706 01f8 0300A0E1 		mov	r0, r3	@, D.10475
 707 01fc FEFFFFEB 		bl	_ZN7IOPorts9RadioFreqEb	@
 180:Engineering.cpp ****                 break;
 708              		.loc 1 180 0 discriminator 3
 709 0200 000100EA 		b	.L23	@
 710              	.L28:
 181:Engineering.cpp ****                 
 182:Engineering.cpp ****             case 'b':
 183:Engineering.cpp ****                 uart->WriteLine ("rebooting");
 711              		.loc 1 183 0
 712 0204 04309DE5 		ldr	r3, [sp, #4]	@ tmp217, this
 713 0208 003093E5 		ldr	r3, [r3, #0]	@ D.10476, this_4(D)->uart
 714 020c 0300A0E1 		mov	r0, r3	@, D.10476
 715 0210 18149FE5 		ldr	r1, .L62	@,
 716 0214 FEFFFFEB 		bl	_ZN5UART09WriteLineEPKcz	@
 184:Engineering.cpp ****                 WatchDogTimer::Reset();
 717              		.loc 1 184 0
 718 0218 FEFFFFEB 		bl	_ZN13WatchDogTimer5ResetEv	@
 185:Engineering.cpp ****                 break;
 719              		.loc 1 185 0
 720 021c F90000EA 		b	.L23	@
 721              	.L30:
 186:Engineering.cpp ****                 
 187:Engineering.cpp ****             case 'h':
 188:Engineering.cpp ****                 Menu();
 722              		.loc 1 188 0
 723 0220 04009DE5 		ldr	r0, [sp, #4]	@, this
 724 0224 FEFFFFEB 		bl	_ZN11Engineering4MenuEv	@
 189:Engineering.cpp ****                 break;
 725              		.loc 1 189 0
 726 0228 F60000EA 		b	.L23	@
 727              	.L32:
 190:Engineering.cpp ****                 
 191:Engineering.cpp ****             case 'm':
 192:Engineering.cpp ****                 if (AFSK::GetInstance()->IsTransmit())
 728              		.loc 1 192 0
ARM GAS  /tmp/ccNlEhad.s 			page 18


 729 022c FEFFFFEB 		bl	_ZN4AFSK11GetInstanceEv	@
 730 0230 0030A0E1 		mov	r3, r0	@ D.10478,
 731 0234 0300A0E1 		mov	r0, r3	@, D.10478
 732 0238 FEFFFFEB 		bl	_ZN4AFSK10IsTransmitEv	@
 733 023c 0030A0E1 		mov	r3, r0	@ tmp218,
 734 0240 000053E3 		cmp	r3, #0	@ retval.4,
 735 0244 E000001A 		bne	.L54	@,
 736              	.L44:
 193:Engineering.cpp ****                     break;
 194:Engineering.cpp ****                 
 195:Engineering.cpp ****                 NMEA::GPGGA (this->gps->Data(), buffer);
 737              		.loc 1 195 0
 738 0248 04309DE5 		ldr	r3, [sp, #4]	@ tmp219, this
 739 024c 043093E5 		ldr	r3, [r3, #4]	@ D.10481, this_4(D)->gps
 740 0250 0300A0E1 		mov	r0, r3	@, D.10481
 741 0254 FEFFFFEB 		bl	_ZN9GPSLassen4DataEv	@
 742 0258 0020A0E1 		mov	r2, r0	@ D.10482,
 743 025c 0C308DE2 		add	r3, sp, #12	@ tmp220,,
 744 0260 0200A0E1 		mov	r0, r2	@, D.10482
 745 0264 0310A0E1 		mov	r1, r3	@, tmp220
 746 0268 FEFFFFEB 		bl	_ZN4NMEA5GPGGAEPK7GPSDataPc	@
 196:Engineering.cpp ****                 uart->WriteLine (buffer);                
 747              		.loc 1 196 0
 748 026c 04309DE5 		ldr	r3, [sp, #4]	@ tmp221, this
 749 0270 002093E5 		ldr	r2, [r3, #0]	@ D.10483, this_4(D)->uart
 750 0274 0C308DE2 		add	r3, sp, #12	@ tmp222,,
 751 0278 0200A0E1 		mov	r0, r2	@, D.10483
 752 027c 0310A0E1 		mov	r1, r3	@, tmp222
 753 0280 FEFFFFEB 		bl	_ZN5UART09WriteLineEPKcz	@
 197:Engineering.cpp ****             
 198:Engineering.cpp ****                 AFSK::GetInstance()->Transmit(buffer);
 754              		.loc 1 198 0
 755 0284 FEFFFFEB 		bl	_ZN4AFSK11GetInstanceEv	@
 756 0288 0020A0E1 		mov	r2, r0	@ D.10484,
 757 028c 0C308DE2 		add	r3, sp, #12	@ tmp223,,
 758 0290 0200A0E1 		mov	r0, r2	@, D.10484
 759 0294 0310A0E1 		mov	r1, r3	@, tmp223
 760 0298 0020A0E3 		mov	r2, #0	@,
 761 029c FEFFFFEB 		bl	_ZN4AFSK8TransmitEPKcS1_	@
 199:Engineering.cpp ****                 break;                
 762              		.loc 1 199 0
 763 02a0 D80000EA 		b	.L23	@
 764              	.L33:
 200:Engineering.cpp ****                 
 201:Engineering.cpp ****             case 'n':  
 202:Engineering.cpp ****                 if (AFSK::GetInstance()->IsTransmit())
 765              		.loc 1 202 0
 766 02a4 FEFFFFEB 		bl	_ZN4AFSK11GetInstanceEv	@
 767 02a8 0030A0E1 		mov	r3, r0	@ D.10486,
 768 02ac 0300A0E1 		mov	r0, r3	@, D.10486
 769 02b0 FEFFFFEB 		bl	_ZN4AFSK10IsTransmitEv	@
 770 02b4 0030A0E1 		mov	r3, r0	@ tmp224,
 771 02b8 000053E3 		cmp	r3, #0	@ retval.5,
 772 02bc C400001A 		bne	.L55	@,
 773              	.L45:
 203:Engineering.cpp ****                     break;
 204:Engineering.cpp ****                 
ARM GAS  /tmp/ccNlEhad.s 			page 19


 205:Engineering.cpp ****                 uart->WriteLine ("Which test case?");
 774              		.loc 1 205 0
 775 02c0 04309DE5 		ldr	r3, [sp, #4]	@ tmp225, this
 776 02c4 003093E5 		ldr	r3, [r3, #0]	@ D.10489, this_4(D)->uart
 777 02c8 0300A0E1 		mov	r0, r3	@, D.10489
 778 02cc 60139FE5 		ldr	r1, .L62+4	@,
 779 02d0 FEFFFFEB 		bl	_ZN5UART09WriteLineEPKcz	@
 206:Engineering.cpp ****                 
 207:Engineering.cpp ****                 while (!uart->IsCharReady());
 780              		.loc 1 207 0
 781 02d4 0000A0E1 		mov	r0, r0	@ nop
 782              	.L46:
 783              		.loc 1 207 0 is_stmt 0 discriminator 1
 784 02d8 04309DE5 		ldr	r3, [sp, #4]	@ tmp226, this
 785 02dc 003093E5 		ldr	r3, [r3, #0]	@ D.10494, this_4(D)->uart
 786 02e0 0300A0E1 		mov	r0, r3	@, D.10494
 787 02e4 FEFFFFEB 		bl	_ZN5UART011IsCharReadyEv	@
 788 02e8 0030A0E1 		mov	r3, r0	@ tmp227,
 789 02ec 013023E2 		eor	r3, r3, #1	@ tmp228, D.10495,
 790 02f0 FF3003E2 		and	r3, r3, #255	@ retval.6, tmp228,
 791 02f4 000053E3 		cmp	r3, #0	@ retval.6,
 792 02f8 F6FFFF1A 		bne	.L46	@,
 208:Engineering.cpp ****                 
 209:Engineering.cpp ****                 value = uart->ReadChar();
 793              		.loc 1 209 0 is_stmt 1
 794 02fc 04309DE5 		ldr	r3, [sp, #4]	@ tmp229, this
 795 0300 003093E5 		ldr	r3, [r3, #0]	@ D.10496, this_4(D)->uart
 796 0304 0300A0E1 		mov	r0, r3	@, D.10496
 797 0308 FEFFFFEB 		bl	_ZN5UART08ReadCharEv	@
 798 030c 0030A0E1 		mov	r3, r0	@ tmp230,
 799 0310 3731CDE5 		strb	r3, [sp, #311]	@ tmp231, value
 210:Engineering.cpp ****                 
 211:Engineering.cpp ****                 if (value >= '0' && value <= '9')
 800              		.loc 1 211 0
 801 0314 3731DDE5 		ldrb	r3, [sp, #311]	@ zero_extendqisi2	@ tmp232, value
 802 0318 2F0053E3 		cmp	r3, #47	@ tmp232,
 803 031c AE00009A 		bls	.L56	@,
 804              		.loc 1 211 0 is_stmt 0 discriminator 1
 805 0320 3731DDE5 		ldrb	r3, [sp, #311]	@ zero_extendqisi2	@ tmp233, value
 806 0324 390053E3 		cmp	r3, #57	@ tmp233,
 807 0328 AD00008A 		bhi	.L57	@,
 212:Engineering.cpp ****                 {
 213:Engineering.cpp ****                     MICEncoderTestCase (&gpsData, value - '0');
 808              		.loc 1 213 0 is_stmt 1
 809 032c 3731DDE5 		ldrb	r3, [sp, #311]	@ zero_extendqisi2	@ D.10501, value
 810 0330 303043E2 		sub	r3, r3, #48	@ D.10502, D.10501,
 811 0334 AC208DE2 		add	r2, sp, #172	@ tmp234,,
 812 0338 04009DE5 		ldr	r0, [sp, #4]	@, this
 813 033c 0210A0E1 		mov	r1, r2	@, tmp234
 814 0340 0320A0E1 		mov	r2, r3	@, D.10503
 815 0344 FEFFFFEB 		bl	_ZN11Engineering18MICEncoderTestCaseEP7GPSDatam	@
 214:Engineering.cpp ****                 
 215:Engineering.cpp ****                     micEncoder.Encode (&gpsData); 
 816              		.loc 1 215 0
 817 0348 472F8DE2 		add	r2, sp, #284	@ tmp235,,
 818 034c AC308DE2 		add	r3, sp, #172	@ tmp236,,
 819 0350 0200A0E1 		mov	r0, r2	@, tmp235
ARM GAS  /tmp/ccNlEhad.s 			page 20


 820 0354 0310A0E1 		mov	r1, r3	@, tmp236
 821 0358 FEFFFFEB 		bl	_ZN10MICEncoder6EncodeEPK7GPSData	@
 216:Engineering.cpp ****                     
 217:Engineering.cpp ****                     AFSK::GetInstance()->Transmit(micEncoder.GetInformationField(), micEncoder.GetD
 822              		.loc 1 217 0
 823 035c FEFFFFEB 		bl	_ZN4AFSK11GetInstanceEv	@
 824 0360 0050A0E1 		mov	r5, r0	@ D.10504,
 825 0364 473F8DE2 		add	r3, sp, #284	@ tmp237,,
 826 0368 0300A0E1 		mov	r0, r3	@, tmp237
 827 036c FEFFFFEB 		bl	_ZN10MICEncoder19GetInformationFieldEv	@
 828 0370 0040A0E1 		mov	r4, r0	@ D.10505,
 829 0374 473F8DE2 		add	r3, sp, #284	@ tmp238,,
 830 0378 0300A0E1 		mov	r0, r3	@, tmp238
 831 037c FEFFFFEB 		bl	_ZN10MICEncoder14GetDestAddressEv	@
 832 0380 0030A0E1 		mov	r3, r0	@ D.10506,
 833 0384 0500A0E1 		mov	r0, r5	@, D.10504
 834 0388 0410A0E1 		mov	r1, r4	@, D.10505
 835 038c 0320A0E1 		mov	r2, r3	@, D.10506
 836 0390 FEFFFFEB 		bl	_ZN4AFSK8TransmitEPKcS1_	@
 218:Engineering.cpp ****                 } // END if
 219:Engineering.cpp ****                 break;  
 837              		.loc 1 219 0
 838 0394 9B0000EA 		b	.L23	@
 839              	.L36:
 220:Engineering.cpp ****                 
 221:Engineering.cpp ****             case 'u':
 222:Engineering.cpp ****                 Log::GetInstance()->Dump();
 840              		.loc 1 222 0
 841 0398 FEFFFFEB 		bl	_ZN3Log11GetInstanceEv	@
 842 039c 0030A0E1 		mov	r3, r0	@ D.10508,
 843 03a0 0300A0E1 		mov	r0, r3	@, D.10508
 844 03a4 FEFFFFEB 		bl	_ZN3Log4DumpEv	@
 223:Engineering.cpp ****                 break;    
 845              		.loc 1 223 0
 846 03a8 960000EA 		b	.L23	@
 847              	.L29:
 224:Engineering.cpp ****                 
 225:Engineering.cpp ****             case 'e':
 226:Engineering.cpp ****                 uart->Write ("Are you sure you want to erase the flash memory (yes)? ");
 848              		.loc 1 226 0
 849 03ac 04309DE5 		ldr	r3, [sp, #4]	@ tmp239, this
 850 03b0 003093E5 		ldr	r3, [r3, #0]	@ D.10509, this_4(D)->uart
 851 03b4 0300A0E1 		mov	r0, r3	@, D.10509
 852 03b8 78129FE5 		ldr	r1, .L62+8	@,
 853 03bc FEFFFFEB 		bl	_ZN5UART05WriteEPKc	@
 227:Engineering.cpp ****                 
 228:Engineering.cpp ****                 while (!uart->IsCharReady());
 854              		.loc 1 228 0
 855 03c0 0000A0E1 		mov	r0, r0	@ nop
 856              	.L48:
 857              		.loc 1 228 0 is_stmt 0 discriminator 1
 858 03c4 04309DE5 		ldr	r3, [sp, #4]	@ tmp240, this
 859 03c8 003093E5 		ldr	r3, [r3, #0]	@ D.10514, this_4(D)->uart
 860 03cc 0300A0E1 		mov	r0, r3	@, D.10514
 861 03d0 FEFFFFEB 		bl	_ZN5UART011IsCharReadyEv	@
 862 03d4 0030A0E1 		mov	r3, r0	@ tmp241,
 863 03d8 013023E2 		eor	r3, r3, #1	@ tmp242, D.10515,
ARM GAS  /tmp/ccNlEhad.s 			page 21


 864 03dc FF3003E2 		and	r3, r3, #255	@ retval.7, tmp242,
 865 03e0 000053E3 		cmp	r3, #0	@ retval.7,
 866 03e4 F6FFFF1A 		bne	.L48	@,
 229:Engineering.cpp ****                 
 230:Engineering.cpp ****                 if (uart->ReadChar() == 'y')
 867              		.loc 1 230 0 is_stmt 1
 868 03e8 04309DE5 		ldr	r3, [sp, #4]	@ tmp243, this
 869 03ec 003093E5 		ldr	r3, [r3, #0]	@ D.10517, this_4(D)->uart
 870 03f0 0300A0E1 		mov	r0, r3	@, D.10517
 871 03f4 FEFFFFEB 		bl	_ZN5UART08ReadCharEv	@
 872 03f8 0030A0E1 		mov	r3, r0	@ tmp244,
 873 03fc 790053E3 		cmp	r3, #121	@ D.10518,
 874 0400 0030A013 		movne	r3, #0	@, tmp246
 875 0404 0130A003 		moveq	r3, #1	@, tmp246
 876 0408 FF3003E2 		and	r3, r3, #255	@ retval.8, tmp245,
 877 040c 000053E3 		cmp	r3, #0	@ retval.8,
 878 0410 7500000A 		beq	.L58	@,
 231:Engineering.cpp ****                 {
 232:Engineering.cpp ****                     while (!uart->IsCharReady());
 879              		.loc 1 232 0
 880 0414 0000A0E1 		mov	r0, r0	@ nop
 881              	.L50:
 882              		.loc 1 232 0 is_stmt 0 discriminator 1
 883 0418 04309DE5 		ldr	r3, [sp, #4]	@ tmp247, this
 884 041c 003093E5 		ldr	r3, [r3, #0]	@ D.10525, this_4(D)->uart
 885 0420 0300A0E1 		mov	r0, r3	@, D.10525
 886 0424 FEFFFFEB 		bl	_ZN5UART011IsCharReadyEv	@
 887 0428 0030A0E1 		mov	r3, r0	@ tmp248,
 888 042c 013023E2 		eor	r3, r3, #1	@ tmp249, D.10526,
 889 0430 FF3003E2 		and	r3, r3, #255	@ retval.9, tmp249,
 890 0434 000053E3 		cmp	r3, #0	@ retval.9,
 891 0438 F6FFFF1A 		bne	.L50	@,
 233:Engineering.cpp ****                     
 234:Engineering.cpp ****                     if (uart->ReadChar() == 'e')
 892              		.loc 1 234 0 is_stmt 1
 893 043c 04309DE5 		ldr	r3, [sp, #4]	@ tmp250, this
 894 0440 003093E5 		ldr	r3, [r3, #0]	@ D.10528, this_4(D)->uart
 895 0444 0300A0E1 		mov	r0, r3	@, D.10528
 896 0448 FEFFFFEB 		bl	_ZN5UART08ReadCharEv	@
 897 044c 0030A0E1 		mov	r3, r0	@ tmp251,
 898 0450 650053E3 		cmp	r3, #101	@ D.10529,
 899 0454 0030A013 		movne	r3, #0	@, tmp253
 900 0458 0130A003 		moveq	r3, #1	@, tmp253
 901 045c FF3003E2 		and	r3, r3, #255	@ retval.10, tmp252,
 902 0460 000053E3 		cmp	r3, #0	@ retval.10,
 903 0464 6200000A 		beq	.L59	@,
 235:Engineering.cpp ****                     {
 236:Engineering.cpp ****                         while (!uart->IsCharReady());
 904              		.loc 1 236 0
 905 0468 0000A0E1 		mov	r0, r0	@ nop
 906              	.L51:
 907              		.loc 1 236 0 is_stmt 0 discriminator 1
 908 046c 04309DE5 		ldr	r3, [sp, #4]	@ tmp254, this
 909 0470 003093E5 		ldr	r3, [r3, #0]	@ D.10536, this_4(D)->uart
 910 0474 0300A0E1 		mov	r0, r3	@, D.10536
 911 0478 FEFFFFEB 		bl	_ZN5UART011IsCharReadyEv	@
 912 047c 0030A0E1 		mov	r3, r0	@ tmp255,
ARM GAS  /tmp/ccNlEhad.s 			page 22


 913 0480 013023E2 		eor	r3, r3, #1	@ tmp256, D.10537,
 914 0484 FF3003E2 		and	r3, r3, #255	@ retval.11, tmp256,
 915 0488 000053E3 		cmp	r3, #0	@ retval.11,
 916 048c F6FFFF1A 		bne	.L51	@,
 237:Engineering.cpp ****                         
 238:Engineering.cpp ****                         if (uart->ReadChar() == 's')
 917              		.loc 1 238 0 is_stmt 1
 918 0490 04309DE5 		ldr	r3, [sp, #4]	@ tmp257, this
 919 0494 003093E5 		ldr	r3, [r3, #0]	@ D.10539, this_4(D)->uart
 920 0498 0300A0E1 		mov	r0, r3	@, D.10539
 921 049c FEFFFFEB 		bl	_ZN5UART08ReadCharEv	@
 922 04a0 0030A0E1 		mov	r3, r0	@ tmp258,
 923 04a4 730053E3 		cmp	r3, #115	@ D.10540,
 924 04a8 0030A013 		movne	r3, #0	@, tmp260
 925 04ac 0130A003 		moveq	r3, #1	@, tmp260
 926 04b0 FF3003E2 		and	r3, r3, #255	@ retval.12, tmp259,
 927 04b4 000053E3 		cmp	r3, #0	@ retval.12,
 928 04b8 4F00000A 		beq	.L60	@,
 239:Engineering.cpp ****                         {                        
 240:Engineering.cpp ****                             uart->WriteLine("");
 929              		.loc 1 240 0
 930 04bc 04309DE5 		ldr	r3, [sp, #4]	@ tmp261, this
 931 04c0 003093E5 		ldr	r3, [r3, #0]	@ D.10543, this_4(D)->uart
 932 04c4 0300A0E1 		mov	r0, r3	@, D.10543
 933 04c8 6C119FE5 		ldr	r1, .L62+12	@,
 934 04cc FEFFFFEB 		bl	_ZN5UART09WriteLineEPKcz	@
 241:Engineering.cpp ****                             uart->Write("Erasing flash memory...");
 935              		.loc 1 241 0
 936 04d0 04309DE5 		ldr	r3, [sp, #4]	@ tmp262, this
 937 04d4 003093E5 		ldr	r3, [r3, #0]	@ D.10544, this_4(D)->uart
 938 04d8 0300A0E1 		mov	r0, r3	@, D.10544
 939 04dc 5C119FE5 		ldr	r1, .L62+16	@,
 940 04e0 FEFFFFEB 		bl	_ZN5UART05WriteEPKc	@
 242:Engineering.cpp ****                             Log::GetInstance()->Erase();
 941              		.loc 1 242 0
 942 04e4 FEFFFFEB 		bl	_ZN3Log11GetInstanceEv	@
 943 04e8 0030A0E1 		mov	r3, r0	@ D.10545,
 944 04ec 0300A0E1 		mov	r0, r3	@, D.10545
 945 04f0 FEFFFFEB 		bl	_ZN3Log5EraseEv	@
 243:Engineering.cpp ****                             uart->WriteLine ("done.");
 946              		.loc 1 243 0
 947 04f4 04309DE5 		ldr	r3, [sp, #4]	@ tmp263, this
 948 04f8 003093E5 		ldr	r3, [r3, #0]	@ D.10546, this_4(D)->uart
 949 04fc 0300A0E1 		mov	r0, r3	@, D.10546
 950 0500 3C119FE5 		ldr	r1, .L62+20	@,
 951 0504 FEFFFFEB 		bl	_ZN5UART09WriteLineEPKcz	@
 244:Engineering.cpp ****                         } // END if
 245:Engineering.cpp ****                     } // END if
 246:Engineering.cpp ****                 } // END if
 247:Engineering.cpp ****                 
 248:Engineering.cpp ****                 break;                
 952              		.loc 1 248 0
 953 0508 3E0000EA 		b	.L23	@
 954              	.L35:
 249:Engineering.cpp **** 
 250:Engineering.cpp ****             case 't':
 251:Engineering.cpp ****                 sprintf (buffer, "%ld", LM92::GetInstance()->ReadTempF());
ARM GAS  /tmp/ccNlEhad.s 			page 23


 955              		.loc 1 251 0
 956 050c FEFFFFEB 		bl	_ZN4LM9211GetInstanceEv	@
 957 0510 0030A0E1 		mov	r3, r0	@ D.10550,
 958 0514 0300A0E1 		mov	r0, r3	@, D.10550
 959 0518 FEFFFFEB 		bl	_ZN4LM929ReadTempFEv	@
 960 051c 0030A0E1 		mov	r3, r0	@ D.10551,
 961 0520 0C208DE2 		add	r2, sp, #12	@ tmp264,,
 962 0524 0200A0E1 		mov	r0, r2	@, tmp264
 963 0528 18119FE5 		ldr	r1, .L62+24	@,
 964 052c 0320A0E1 		mov	r2, r3	@, D.10551
 965 0530 FEFFFFEB 		bl	sprintf	@
 252:Engineering.cpp ****                 uart->WriteLine (buffer);                
 966              		.loc 1 252 0
 967 0534 04309DE5 		ldr	r3, [sp, #4]	@ tmp265, this
 968 0538 002093E5 		ldr	r2, [r3, #0]	@ D.10552, this_4(D)->uart
 969 053c 0C308DE2 		add	r3, sp, #12	@ tmp266,,
 970 0540 0200A0E1 		mov	r0, r2	@, D.10552
 971 0544 0310A0E1 		mov	r1, r3	@, tmp266
 972 0548 FEFFFFEB 		bl	_ZN5UART09WriteLineEPKcz	@
 253:Engineering.cpp ****                 break;                
 973              		.loc 1 253 0
 974 054c 2D0000EA 		b	.L23	@
 975              	.L31:
 254:Engineering.cpp ****                 
 255:Engineering.cpp ****             case 'i':
 256:Engineering.cpp ****                 uart->WriteLine (this->gps->Version());
 976              		.loc 1 256 0
 977 0550 04309DE5 		ldr	r3, [sp, #4]	@ tmp267, this
 978 0554 004093E5 		ldr	r4, [r3, #0]	@ D.10553, this_4(D)->uart
 979 0558 04309DE5 		ldr	r3, [sp, #4]	@ tmp268, this
 980 055c 043093E5 		ldr	r3, [r3, #4]	@ D.10554, this_4(D)->gps
 981 0560 0300A0E1 		mov	r0, r3	@, D.10554
 982 0564 FEFFFFEB 		bl	_ZN9GPSLassen7VersionEv	@
 983 0568 0030A0E1 		mov	r3, r0	@ D.10555,
 984 056c 0400A0E1 		mov	r0, r4	@, D.10553
 985 0570 0310A0E1 		mov	r1, r3	@, D.10555
 986 0574 FEFFFFEB 		bl	_ZN5UART09WriteLineEPKcz	@
 257:Engineering.cpp ****                 break;                
 987              		.loc 1 257 0
 988 0578 220000EA 		b	.L23	@
 989              	.L34:
 258:Engineering.cpp ****                        
 259:Engineering.cpp ****             case 'q':
 260:Engineering.cpp ****             	if(!sd_raw_init())
 990              		.loc 1 260 0
 991 057c FEFFFFEB 		bl	_Z11sd_raw_initv	@
 992 0580 0030A0E1 		mov	r3, r0	@ tmp269,
 993 0584 000053E3 		cmp	r3, #0	@ D.10557,
 994 0588 0030A013 		movne	r3, #0	@, tmp271
 995 058c 0130A003 		moveq	r3, #1	@, tmp271
 996 0590 FF3003E2 		and	r3, r3, #255	@ retval.13, tmp270,
 997 0594 000053E3 		cmp	r3, #0	@ retval.13,
 998 0598 1900000A 		beq	.L61	@,
 261:Engineering.cpp ****             	{
 262:Engineering.cpp ****             		uart->WriteLine("SD Init Error\n\r");
 999              		.loc 1 262 0
 1000 059c 04309DE5 		ldr	r3, [sp, #4]	@ tmp272, this
ARM GAS  /tmp/ccNlEhad.s 			page 24


 1001 05a0 003093E5 		ldr	r3, [r3, #0]	@ D.10560, this_4(D)->uart
 1002 05a4 0300A0E1 		mov	r0, r3	@, D.10560
 1003 05a8 9C109FE5 		ldr	r1, .L62+28	@,
 1004 05ac FEFFFFEB 		bl	_ZN5UART09WriteLineEPKcz	@
 263:Engineering.cpp ****             	}
 264:Engineering.cpp ****             	break;
 1005              		.loc 1 264 0
 1006 05b0 140000EA 		b	.L23	@
 1007              	.L24:
 265:Engineering.cpp ****             default:
 266:Engineering.cpp ****                 uart->WriteLine ("Unknown command.  Press 'h' for help.");
 1008              		.loc 1 266 0
 1009 05b4 04309DE5 		ldr	r3, [sp, #4]	@ tmp273, this
 1010 05b8 003093E5 		ldr	r3, [r3, #0]	@ D.10562, this_4(D)->uart
 1011 05bc 0300A0E1 		mov	r0, r3	@, D.10562
 1012 05c0 88109FE5 		ldr	r1, .L62+32	@,
 1013 05c4 FEFFFFEB 		bl	_ZN5UART09WriteLineEPKcz	@
 267:Engineering.cpp ****                 break;
 1014              		.loc 1 267 0
 1015 05c8 0E0000EA 		b	.L23	@
 1016              	.L54:
 193:Engineering.cpp ****                     break;
 1017              		.loc 1 193 0
 1018 05cc 0000A0E1 		mov	r0, r0	@ nop
 1019 05d0 0C0000EA 		b	.L23	@
 1020              	.L55:
 203:Engineering.cpp ****                     break;
 1021              		.loc 1 203 0
 1022 05d4 0000A0E1 		mov	r0, r0	@ nop
 1023 05d8 0A0000EA 		b	.L23	@
 1024              	.L56:
 219:Engineering.cpp ****                 break;  
 1025              		.loc 1 219 0
 1026 05dc 0000A0E1 		mov	r0, r0	@ nop
 1027 05e0 080000EA 		b	.L23	@
 1028              	.L57:
 1029 05e4 0000A0E1 		mov	r0, r0	@ nop
 1030 05e8 060000EA 		b	.L23	@
 1031              	.L58:
 248:Engineering.cpp ****                 break;                
 1032              		.loc 1 248 0
 1033 05ec 0000A0E1 		mov	r0, r0	@ nop
 1034 05f0 040000EA 		b	.L23	@
 1035              	.L59:
 1036 05f4 0000A0E1 		mov	r0, r0	@ nop
 1037 05f8 020000EA 		b	.L23	@
 1038              	.L60:
 1039 05fc 0000A0E1 		mov	r0, r0	@ nop
 1040 0600 000000EA 		b	.L23	@
 1041              	.L61:
 264:Engineering.cpp ****             	break;
 1042              		.loc 1 264 0
 1043 0604 0000A0E1 		mov	r0, r0	@ nop
 1044              	.L23:
 161:Engineering.cpp ****     while (uart->IsCharReady())
 1045              		.loc 1 161 0 discriminator 1
 1046 0608 04309DE5 		ldr	r3, [sp, #4]	@ tmp274, this
ARM GAS  /tmp/ccNlEhad.s 			page 25


 1047 060c 003093E5 		ldr	r3, [r3, #0]	@ D.10454, this_4(D)->uart
 1048 0610 0300A0E1 		mov	r0, r3	@, D.10454
 1049 0614 FEFFFFEB 		bl	_ZN5UART011IsCharReadyEv	@
 1050 0618 0030A0E1 		mov	r3, r0	@ tmp275,
 1051 061c 000053E3 		cmp	r3, #0	@ retval.0,
 1052 0620 7DFEFF1A 		bne	.L53	@,
 1053              	.LBE3:
 268:Engineering.cpp **** 
 269:Engineering.cpp ****         } // END switch
 270:Engineering.cpp ****     } // END while
 271:Engineering.cpp **** }
 1054              		.loc 1 271 0
 1055 0624 4FDF8DE2 		add	sp, sp, #316	@,,
 1056 0628 3040BDE8 		ldmfd	sp!, {r4, r5, lr}
 1057 062c 1EFF2FE1 		bx	lr
 1058              	.L63:
 1059              		.align	2
 1060              	.L62:
 1061 0630 A0000000 		.word	.LC8
 1062 0634 AC000000 		.word	.LC9
 1063 0638 C0000000 		.word	.LC10
 1064 063c 9C000000 		.word	.LC7
 1065 0640 F8000000 		.word	.LC11
 1066 0644 10010000 		.word	.LC12
 1067 0648 18010000 		.word	.LC13
 1068 064c 1C010000 		.word	.LC14
 1069 0650 2C010000 		.word	.LC15
 1070              		.cfi_endproc
 1071              	.LFE116:
 1072              		.size	_ZN11Engineering14ProcessCommandEv, .-_ZN11Engineering14ProcessCommandEv
 1073              		.section	.text._Z41__static_initialization_and_destruction_0ii,"ax",%progbits
 1074              		.align	2
 1075              		.type	_Z41__static_initialization_and_destruction_0ii, %function
 1076              	_Z41__static_initialization_and_destruction_0ii:
 1077              	.LFB117:
 1078              		.loc 1 271 0
 1079              		.cfi_startproc
 1080              		@ Function supports interworking.
 1081              		@ args = 0, pretend = 0, frame = 8
 1082              		@ frame_needed = 0, uses_anonymous_args = 0
 1083 0000 04E02DE5 		str	lr, [sp, #-4]!	@,
 1084              	.LCFI8:
 1085              		.cfi_def_cfa_offset 4
 1086 0004 0CD04DE2 		sub	sp, sp, #12	@,,
 1087              	.LCFI9:
 1088              		.cfi_def_cfa_offset 16
 1089 0008 04008DE5 		str	r0, [sp, #4]	@ __initialize_p, __initialize_p
 1090 000c 00108DE5 		str	r1, [sp, #0]	@ __priority, __priority
 1091              		.loc 1 271 0
 1092 0010 04309DE5 		ldr	r3, [sp, #4]	@ tmp133, __initialize_p
 1093 0014 010053E3 		cmp	r3, #1	@ tmp133,
 1094 0018 0500001A 		bne	.L64	@,
 1095              		.cfi_offset 14, -4
 1096              		.loc 1 271 0 is_stmt 0 discriminator 1
 1097 001c 00209DE5 		ldr	r2, [sp, #0]	@ tmp134, __priority
 1098 0020 18309FE5 		ldr	r3, .L66	@ tmp135,
 1099 0024 030052E1 		cmp	r2, r3	@ tmp134, tmp135
ARM GAS  /tmp/ccNlEhad.s 			page 26


 1100 0028 0100001A 		bne	.L64	@,
  30:Engineering.cpp **** static Engineering engineeringSingletonObject;
 1101              		.loc 1 30 0 is_stmt 1
 1102 002c 10009FE5 		ldr	r0, .L66+4	@,
 1103 0030 FEFFFFEB 		bl	_ZN11EngineeringC1Ev	@
 1104              	.L64:
 1105              		.loc 1 271 0
 1106 0034 0CD08DE2 		add	sp, sp, #12	@,,
 1107 0038 04E09DE4 		ldr	lr, [sp], #4
 1108 003c 1EFF2FE1 		bx	lr
 1109              	.L67:
 1110              		.align	2
 1111              	.L66:
 1112 0040 FFFF0000 		.word	65535
 1113 0044 00000000 		.word	_ZL26engineeringSingletonObject
 1114              		.cfi_endproc
 1115              	.LFE117:
 1116              		.size	_Z41__static_initialization_and_destruction_0ii, .-_Z41__static_initialization_and_destructi
 1117              		.section	.rodata
 1118 0152 0000     		.align	2
 1119              		.type	_ZL12VIC_USB_Intr, %object
 1120              		.size	_ZL12VIC_USB_Intr, 4
 1121              	_ZL12VIC_USB_Intr:
 1122 0154 00004000 		.word	4194304
 1123              		.align	2
 1124              		.type	_ZL9CCR_CLKEN, %object
 1125              		.size	_ZL9CCR_CLKEN, 4
 1126              	_ZL9CCR_CLKEN:
 1127 0158 01000000 		.word	1
 1128              		.align	2
 1129              		.type	_ZL10CCR_CTCRST, %object
 1130              		.size	_ZL10CCR_CTCRST, 4
 1131              	_ZL10CCR_CTCRST:
 1132 015c 02000000 		.word	2
 1133              		.align	2
 1134              		.type	_ZL16CCR_CLKSRC_32KHZ, %object
 1135              		.size	_ZL16CCR_CLKSRC_32KHZ, 4
 1136              	_ZL16CCR_CLKSRC_32KHZ:
 1137 0160 10000000 		.word	16
 1138              		.align	2
 1139              		.type	_ZL18VIC_Channel_Timer0, %object
 1140              		.size	_ZL18VIC_Channel_Timer0, 4
 1141              	_ZL18VIC_Channel_Timer0:
 1142 0164 04000000 		.word	4
 1143              		.align	2
 1144              		.type	_ZL18VIC_Channel_Timer1, %object
 1145              		.size	_ZL18VIC_Channel_Timer1, 4
 1146              	_ZL18VIC_Channel_Timer1:
 1147 0168 05000000 		.word	5
 1148              		.align	2
 1149              		.type	_ZL17VIC_Channel_UART0, %object
 1150              		.size	_ZL17VIC_Channel_UART0, 4
 1151              	_ZL17VIC_Channel_UART0:
 1152 016c 06000000 		.word	6
 1153              		.align	2
 1154              		.type	_ZL17VIC_Channel_UART1, %object
 1155              		.size	_ZL17VIC_Channel_UART1, 4
ARM GAS  /tmp/ccNlEhad.s 			page 27


 1156              	_ZL17VIC_Channel_UART1:
 1157 0170 07000000 		.word	7
 1158              		.align	2
 1159              		.type	_ZL15VIC_Channel_USB, %object
 1160              		.size	_ZL15VIC_Channel_USB, 4
 1161              	_ZL15VIC_Channel_USB:
 1162 0174 16000000 		.word	22
 1163              		.align	2
 1164              		.type	_ZL18VICVectCntl_ENABLE, %object
 1165              		.size	_ZL18VICVectCntl_ENABLE, 4
 1166              	_ZL18VICVectCntl_ENABLE:
 1167 0178 20000000 		.word	32
 1168              		.align	2
 1169              		.type	_ZL10UIER_ERBFI, %object
 1170              		.size	_ZL10UIER_ERBFI, 4
 1171              	_ZL10UIER_ERBFI:
 1172 017c 01000000 		.word	1
 1173              		.align	2
 1174              		.type	_ZL12UIIR_ID_MASK, %object
 1175              		.size	_ZL12UIIR_ID_MASK, 4
 1176              	_ZL12UIIR_ID_MASK:
 1177 0180 0E000000 		.word	14
 1178              		.align	2
 1179              		.type	_ZL12UIIR_RDA_INT, %object
 1180              		.size	_ZL12UIIR_RDA_INT, 4
 1181              	_ZL12UIIR_RDA_INT:
 1182 0184 04000000 		.word	4
 1183              		.align	2
 1184              		.type	_ZL8ULSR_RDR, %object
 1185              		.size	_ZL8ULSR_RDR, 4
 1186              	_ZL8ULSR_RDR:
 1187 0188 01000000 		.word	1
 1188              		.align	2
 1189              		.type	_ZL5SSEL1, %object
 1190              		.size	_ZL5SSEL1, 4
 1191              	_ZL5SSEL1:
 1192 018c 00001000 		.word	1048576
 1193              		.align	2
 1194              		.type	_ZL9SSPSR_TFE, %object
 1195              		.size	_ZL9SSPSR_TFE, 4
 1196              	_ZL9SSPSR_TFE:
 1197 0190 01000000 		.word	1
 1198              		.align	2
 1199              		.type	_ZL9SSPSR_TNF, %object
 1200              		.size	_ZL9SSPSR_TNF, 4
 1201              	_ZL9SSPSR_TNF:
 1202 0194 02000000 		.word	2
 1203              		.align	2
 1204              		.type	_ZL9SSPSR_RNE, %object
 1205              		.size	_ZL9SSPSR_RNE, 4
 1206              	_ZL9SSPSR_RNE:
 1207 0198 04000000 		.word	4
 1208              		.align	2
 1209              		.type	_ZL9SSPSR_BSY, %object
 1210              		.size	_ZL9SSPSR_BSY, 4
 1211              	_ZL9SSPSR_BSY:
 1212 019c 10000000 		.word	16
ARM GAS  /tmp/ccNlEhad.s 			page 28


 1213              		.align	2
 1214              		.type	_ZL11SSPCR0_CPOL, %object
 1215              		.size	_ZL11SSPCR0_CPOL, 4
 1216              	_ZL11SSPCR0_CPOL:
 1217 01a0 40000000 		.word	64
 1218              		.align	2
 1219              		.type	_ZL11SSPCR0_CPHA, %object
 1220              		.size	_ZL11SSPCR0_CPHA, 4
 1221              	_ZL11SSPCR0_CPHA:
 1222 01a4 80000000 		.word	128
 1223              		.align	2
 1224              		.type	_ZL13I2CxCONCLR_AA, %object
 1225              		.size	_ZL13I2CxCONCLR_AA, 4
 1226              	_ZL13I2CxCONCLR_AA:
 1227 01a8 04000000 		.word	4
 1228              		.align	2
 1229              		.type	_ZL13I2CxCONCLR_SI, %object
 1230              		.size	_ZL13I2CxCONCLR_SI, 4
 1231              	_ZL13I2CxCONCLR_SI:
 1232 01ac 08000000 		.word	8
 1233              		.align	2
 1234              		.type	_ZL15I2CxCONCLR_STAC, %object
 1235              		.size	_ZL15I2CxCONCLR_STAC, 4
 1236              	_ZL15I2CxCONCLR_STAC:
 1237 01b0 20000000 		.word	32
 1238              		.align	2
 1239              		.type	_ZL16I2CxCONCLR_I2ENC, %object
 1240              		.size	_ZL16I2CxCONCLR_I2ENC, 4
 1241              	_ZL16I2CxCONCLR_I2ENC:
 1242 01b4 40000000 		.word	64
 1243              		.align	2
 1244              		.type	_ZL13I2CxCONSET_AA, %object
 1245              		.size	_ZL13I2CxCONSET_AA, 4
 1246              	_ZL13I2CxCONSET_AA:
 1247 01b8 04000000 		.word	4
 1248              		.align	2
 1249              		.type	_ZL13I2CxCONSET_SI, %object
 1250              		.size	_ZL13I2CxCONSET_SI, 4
 1251              	_ZL13I2CxCONSET_SI:
 1252 01bc 08000000 		.word	8
 1253              		.align	2
 1254              		.type	_ZL14I2CxCONSET_STO, %object
 1255              		.size	_ZL14I2CxCONSET_STO, 4
 1256              	_ZL14I2CxCONSET_STO:
 1257 01c0 10000000 		.word	16
 1258              		.align	2
 1259              		.type	_ZL14I2CxCONSET_STA, %object
 1260              		.size	_ZL14I2CxCONSET_STA, 4
 1261              	_ZL14I2CxCONSET_STA:
 1262 01c4 20000000 		.word	32
 1263              		.align	2
 1264              		.type	_ZL15I2CxCONSET_I2EN, %object
 1265              		.size	_ZL15I2CxCONSET_I2EN, 4
 1266              	_ZL15I2CxCONSET_I2EN:
 1267 01c8 40000000 		.word	64
 1268              		.align	2
 1269              		.type	_ZL20TxTCR_COUNTER_ENABLE, %object
ARM GAS  /tmp/ccNlEhad.s 			page 29


 1270              		.size	_ZL20TxTCR_COUNTER_ENABLE, 4
 1271              	_ZL20TxTCR_COUNTER_ENABLE:
 1272 01cc 01000000 		.word	1
 1273              		.align	2
 1274              		.type	_ZL19TxTCR_COUNTER_RESET, %object
 1275              		.size	_ZL19TxTCR_COUNTER_RESET, 4
 1276              	_ZL19TxTCR_COUNTER_RESET:
 1277 01d0 02000000 		.word	2
 1278              		.align	2
 1279              		.type	_ZL16TxMCR_INT_ON_MR0, %object
 1280              		.size	_ZL16TxMCR_INT_ON_MR0, 4
 1281              	_ZL16TxMCR_INT_ON_MR0:
 1282 01d4 01000000 		.word	1
 1283              		.align	2
 1284              		.type	_ZL18TxMCR_RESET_ON_MR0, %object
 1285              		.size	_ZL18TxMCR_RESET_ON_MR0, 4
 1286              	_ZL18TxMCR_RESET_ON_MR0:
 1287 01d8 02000000 		.word	2
 1288              		.align	2
 1289              		.type	_ZL13TxIR_MR0_FLAG, %object
 1290              		.size	_ZL13TxIR_MR0_FLAG, 4
 1291              	_ZL13TxIR_MR0_FLAG:
 1292 01dc 01000000 		.word	1
 1293              		.align	2
 1294              		.type	_ZL13TxIR_MR1_FLAG, %object
 1295              		.size	_ZL13TxIR_MR1_FLAG, 4
 1296              	_ZL13TxIR_MR1_FLAG:
 1297 01e0 02000000 		.word	2
 1298              		.align	2
 1299              		.type	_ZL13TxIR_MR2_FLAG, %object
 1300              		.size	_ZL13TxIR_MR2_FLAG, 4
 1301              	_ZL13TxIR_MR2_FLAG:
 1302 01e4 04000000 		.word	4
 1303              		.align	2
 1304              		.type	_ZL13TxIR_MR3_FLAG, %object
 1305              		.size	_ZL13TxIR_MR3_FLAG, 4
 1306              	_ZL13TxIR_MR3_FLAG:
 1307 01e8 08000000 		.word	8
 1308              		.align	2
 1309              		.type	_ZL13TxIR_CR0_FLAG, %object
 1310              		.size	_ZL13TxIR_CR0_FLAG, 4
 1311              	_ZL13TxIR_CR0_FLAG:
 1312 01ec 10000000 		.word	16
 1313              		.align	2
 1314              		.type	_ZL13TxIR_CR1_FLAG, %object
 1315              		.size	_ZL13TxIR_CR1_FLAG, 4
 1316              	_ZL13TxIR_CR1_FLAG:
 1317 01f0 20000000 		.word	32
 1318              		.align	2
 1319              		.type	_ZL13TxIR_CR2_FLAG, %object
 1320              		.size	_ZL13TxIR_CR2_FLAG, 4
 1321              	_ZL13TxIR_CR2_FLAG:
 1322 01f4 40000000 		.word	64
 1323              		.align	2
 1324              		.type	_ZL13TxIR_CR3_FLAG, %object
 1325              		.size	_ZL13TxIR_CR3_FLAG, 4
 1326              	_ZL13TxIR_CR3_FLAG:
ARM GAS  /tmp/ccNlEhad.s 			page 30


 1327 01f8 80000000 		.word	128
 1328              		.align	2
 1329              		.type	_ZL12TxCCR_CAP0RE, %object
 1330              		.size	_ZL12TxCCR_CAP0RE, 4
 1331              	_ZL12TxCCR_CAP0RE:
 1332 01fc 01000000 		.word	1
 1333              		.align	2
 1334              		.type	_ZL12TxCCR_CAP0FE, %object
 1335              		.size	_ZL12TxCCR_CAP0FE, 4
 1336              	_ZL12TxCCR_CAP0FE:
 1337 0200 02000000 		.word	2
 1338              		.align	2
 1339              		.type	_ZL11TxCCR_CAP0I, %object
 1340              		.size	_ZL11TxCCR_CAP0I, 4
 1341              	_ZL11TxCCR_CAP0I:
 1342 0204 04000000 		.word	4
 1343              		.align	2
 1344              		.type	_ZL12TxCCR_CAP1RE, %object
 1345              		.size	_ZL12TxCCR_CAP1RE, 4
 1346              	_ZL12TxCCR_CAP1RE:
 1347 0208 08000000 		.word	8
 1348              		.align	2
 1349              		.type	_ZL12TxCCR_CAP1FE, %object
 1350              		.size	_ZL12TxCCR_CAP1FE, 4
 1351              	_ZL12TxCCR_CAP1FE:
 1352 020c 10000000 		.word	16
 1353              		.align	2
 1354              		.type	_ZL11TxCCR_CAP1I, %object
 1355              		.size	_ZL11TxCCR_CAP1I, 4
 1356              	_ZL11TxCCR_CAP1I:
 1357 0210 20000000 		.word	32
 1358              		.align	2
 1359              		.type	_ZL12TxCCR_CAP2RE, %object
 1360              		.size	_ZL12TxCCR_CAP2RE, 4
 1361              	_ZL12TxCCR_CAP2RE:
 1362 0214 40000000 		.word	64
 1363              		.align	2
 1364              		.type	_ZL12TxCCR_CAP2FE, %object
 1365              		.size	_ZL12TxCCR_CAP2FE, 4
 1366              	_ZL12TxCCR_CAP2FE:
 1367 0218 80000000 		.word	128
 1368              		.align	2
 1369              		.type	_ZL11TxCCR_CAP2I, %object
 1370              		.size	_ZL11TxCCR_CAP2I, 4
 1371              	_ZL11TxCCR_CAP2I:
 1372 021c 00010000 		.word	256
 1373              		.align	2
 1374              		.type	_ZL12TxCCR_CAP3RE, %object
 1375              		.size	_ZL12TxCCR_CAP3RE, 4
 1376              	_ZL12TxCCR_CAP3RE:
 1377 0220 00020000 		.word	512
 1378              		.align	2
 1379              		.type	_ZL12TxCCR_CAP3FE, %object
 1380              		.size	_ZL12TxCCR_CAP3FE, 4
 1381              	_ZL12TxCCR_CAP3FE:
 1382 0224 00040000 		.word	1024
 1383              		.align	2
ARM GAS  /tmp/ccNlEhad.s 			page 31


 1384              		.type	_ZL11TxCCR_CAP3I, %object
 1385              		.size	_ZL11TxCCR_CAP3I, 4
 1386              	_ZL11TxCCR_CAP3I:
 1387 0228 00080000 		.word	2048
 1388              		.align	2
 1389              		.type	_ZL9ADxCR_PDN, %object
 1390              		.size	_ZL9ADxCR_PDN, 4
 1391              	_ZL9ADxCR_PDN:
 1392 022c 00002000 		.word	2097152
 1393              		.align	2
 1394              		.type	_ZL15ADxCR_START_NOW, %object
 1395              		.size	_ZL15ADxCR_START_NOW, 4
 1396              	_ZL15ADxCR_START_NOW:
 1397 0230 00000001 		.word	16777216
 1398              		.align	2
 1399              		.type	_ZL11ADxGDR_DONE, %object
 1400              		.size	_ZL11ADxGDR_DONE, 4
 1401              	_ZL11ADxGDR_DONE:
 1402 0234 00000080 		.word	-2147483648
 1403              		.align	2
 1404              		.type	_ZL7PWMMR0R, %object
 1405              		.size	_ZL7PWMMR0R, 4
 1406              	_ZL7PWMMR0R:
 1407 0238 02000000 		.word	2
 1408              		.align	2
 1409              		.type	_ZL7LER0_EN, %object
 1410              		.size	_ZL7LER0_EN, 4
 1411              	_ZL7LER0_EN:
 1412 023c 01000000 		.word	1
 1413              		.align	2
 1414              		.type	_ZL7LER1_EN, %object
 1415              		.size	_ZL7LER1_EN, 4
 1416              	_ZL7LER1_EN:
 1417 0240 02000000 		.word	2
 1418              		.align	2
 1419              		.type	_ZL7LER2_EN, %object
 1420              		.size	_ZL7LER2_EN, 4
 1421              	_ZL7LER2_EN:
 1422 0244 04000000 		.word	4
 1423              		.align	2
 1424              		.type	_ZL7LER3_EN, %object
 1425              		.size	_ZL7LER3_EN, 4
 1426              	_ZL7LER3_EN:
 1427 0248 08000000 		.word	8
 1428              		.align	2
 1429              		.type	_ZL7LER4_EN, %object
 1430              		.size	_ZL7LER4_EN, 4
 1431              	_ZL7LER4_EN:
 1432 024c 10000000 		.word	16
 1433              		.align	2
 1434              		.type	_ZL7LER5_EN, %object
 1435              		.size	_ZL7LER5_EN, 4
 1436              	_ZL7LER5_EN:
 1437 0250 20000000 		.word	32
 1438              		.align	2
 1439              		.type	_ZL7LER6_EN, %object
 1440              		.size	_ZL7LER6_EN, 4
ARM GAS  /tmp/ccNlEhad.s 			page 32


 1441              	_ZL7LER6_EN:
 1442 0254 40000000 		.word	64
 1443              		.align	2
 1444              		.type	_ZL7PWMENA1, %object
 1445              		.size	_ZL7PWMENA1, 4
 1446              	_ZL7PWMENA1:
 1447 0258 00020000 		.word	512
 1448              		.align	2
 1449              		.type	_ZL7PWMENA2, %object
 1450              		.size	_ZL7PWMENA2, 4
 1451              	_ZL7PWMENA2:
 1452 025c 00040000 		.word	1024
 1453              		.align	2
 1454              		.type	_ZL7PWMENA3, %object
 1455              		.size	_ZL7PWMENA3, 4
 1456              	_ZL7PWMENA3:
 1457 0260 00080000 		.word	2048
 1458              		.align	2
 1459              		.type	_ZL7PWMENA4, %object
 1460              		.size	_ZL7PWMENA4, 4
 1461              	_ZL7PWMENA4:
 1462 0264 00100000 		.word	4096
 1463              		.align	2
 1464              		.type	_ZL7PWMENA5, %object
 1465              		.size	_ZL7PWMENA5, 4
 1466              	_ZL7PWMENA5:
 1467 0268 00200000 		.word	8192
 1468              		.align	2
 1469              		.type	_ZL7PWMENA6, %object
 1470              		.size	_ZL7PWMENA6, 4
 1471              	_ZL7PWMENA6:
 1472 026c 00400000 		.word	16384
 1473              		.align	2
 1474              		.type	_ZL21PWMTCR_COUNTER_ENABLE, %object
 1475              		.size	_ZL21PWMTCR_COUNTER_ENABLE, 4
 1476              	_ZL21PWMTCR_COUNTER_ENABLE:
 1477 0270 01000000 		.word	1
 1478              		.align	2
 1479              		.type	_ZL12PWMTCR_RESET, %object
 1480              		.size	_ZL12PWMTCR_RESET, 4
 1481              	_ZL12PWMTCR_RESET:
 1482 0274 02000000 		.word	2
 1483              		.align	2
 1484              		.type	_ZL17PWMTCR_PWM_ENABLE, %object
 1485              		.size	_ZL17PWMTCR_PWM_ENABLE, 4
 1486              	_ZL17PWMTCR_PWM_ENABLE:
 1487 0278 08000000 		.word	8
 1488              		.align	2
 1489              		.type	_ZL10WDMOD_WDEN, %object
 1490              		.size	_ZL10WDMOD_WDEN, 4
 1491              	_ZL10WDMOD_WDEN:
 1492 027c 01000000 		.word	1
 1493              		.align	2
 1494              		.type	_ZL13WDMOD_WDRESET, %object
 1495              		.size	_ZL13WDMOD_WDRESET, 4
 1496              	_ZL13WDMOD_WDRESET:
 1497 0280 02000000 		.word	2
ARM GAS  /tmp/ccNlEhad.s 			page 33


 1498              		.align	2
 1499              		.type	_ZL27HID_MESSAGE_ID_SYSTEM_DEBUG, %object
 1500              		.size	_ZL27HID_MESSAGE_ID_SYSTEM_DEBUG, 4
 1501              	_ZL27HID_MESSAGE_ID_SYSTEM_DEBUG:
 1502 0284 C0000000 		.word	192
 1503              		.section	.text._GLOBAL__I__ZN11Engineering11GetInstanceEv,"ax",%progbits
 1504              		.align	2
 1505              		.type	_GLOBAL__I__ZN11Engineering11GetInstanceEv, %function
 1506              	_GLOBAL__I__ZN11Engineering11GetInstanceEv:
 1507              	.LFB118:
 1508              		.loc 1 271 0
 1509              		.cfi_startproc
 1510              		@ Function supports interworking.
 1511              		@ args = 0, pretend = 0, frame = 0
 1512              		@ frame_needed = 0, uses_anonymous_args = 0
 1513 0000 08402DE9 		stmfd	sp!, {r3, lr}	@,
 1514              	.LCFI10:
 1515              		.cfi_def_cfa_offset 8
 1516              		.loc 1 271 0
 1517 0004 0100A0E3 		mov	r0, #1	@,
 1518 0008 08109FE5 		ldr	r1, .L69	@,
 1519              		.cfi_offset 14, -4
 1520              		.cfi_offset 3, -8
 1521 000c FEFFFFEB 		bl	_Z41__static_initialization_and_destruction_0ii	@
 1522 0010 0840BDE8 		ldmfd	sp!, {r3, lr}
 1523 0014 1EFF2FE1 		bx	lr
 1524              	.L70:
 1525              		.align	2
 1526              	.L69:
 1527 0018 FFFF0000 		.word	65535
 1528              		.cfi_endproc
 1529              	.LFE118:
 1530              		.size	_GLOBAL__I__ZN11Engineering11GetInstanceEv, .-_GLOBAL__I__ZN11Engineering11GetInstanceEv
 1531              		.section	.init_array,"aw",%init_array
 1532              		.align	2
 1533 0000 00000000 		.word	_GLOBAL__I__ZN11Engineering11GetInstanceEv(target1)
 1534              		.text
 1535              	.Letext0: