ARM GAS  /tmp/ccwDRvq0.s 			page 1


   1              		.cpu arm7tdmi
   2              		.fpu softvfp
   3              		.eabi_attribute 20, 1
   4              		.eabi_attribute 21, 1
   5              		.eabi_attribute 23, 3
   6              		.eabi_attribute 24, 1
   7              		.eabi_attribute 25, 1
   8              		.eabi_attribute 26, 1
   9              		.eabi_attribute 30, 6
  10              		.eabi_attribute 18, 4
  11              		.file	"fat16.cpp"
  12              	@ GNU C++ (Sourcery G++ Lite 2011.03-42) version 4.5.2 (arm-none-eabi)
  13              	@	compiled by GNU C version 4.3.2, GMP version 4.3.2, MPFR version 2.4.2, MPC version 0.8.1
  14              	@ GGC heuristics: --param ggc-min-expand=100 --param ggc-min-heapsize=131072
  15              	@ options passed:  -I . -I../arm/arm7lib -iprefix
  16              	@ /home/elijah/CodeSourcery/Sourcery_G++_Lite/bin/../lib/gcc/arm-none-eabi/4.5.2/
  17              	@ -isysroot
  18              	@ /home/elijah/CodeSourcery/Sourcery_G++_Lite/bin/../arm-none-eabi -MD
  19              	@ fat16.d -MF .dep/fat16.o.d -MP -MQ fat16.o -D__USES_INITFINI__
  20              	@ -D__CS_SOURCERYGXX_MAJ__=2011 -D__CS_SOURCERYGXX_MIN__=3
  21              	@ -D__CS_SOURCERYGXX_REV__=42 fat16.cpp -mcpu=arm7tdmi -auxbase-strip
  22              	@ fat16.o -gdwarf-2 -O0 -Wall -fno-rtti -fno-exceptions
  23              	@ -fomit-frame-pointer -ffunction-sections -fverbose-asm
  24              	@ options enabled:  -falign-loops -fargument-alias -fauto-inc-dec
  25              	@ -fbranch-count-reg -fcommon -fdelete-null-pointer-checks -fdwarf2-cfi-asm
  26              	@ -fearly-inlining -feliminate-unused-debug-types -ffunction-cse
  27              	@ -ffunction-sections -fgcse-lm -fident -finline-functions-called-once
  28              	@ -fira-share-save-slots -fira-share-spill-slots -fivopts
  29              	@ -fkeep-static-consts -fleading-underscore -fmath-errno
  30              	@ -fmerge-debug-strings -fmove-loop-invariants -fomit-frame-pointer
  31              	@ -fpeephole -fpromote-loop-indices -freg-struct-return
  32              	@ -fsched-critical-path-heuristic -fsched-dep-count-heuristic
  33              	@ -fsched-group-heuristic -fsched-interblock -fsched-last-insn-heuristic
  34              	@ -fsched-rank-heuristic -fsched-spec -fsched-spec-insn-heuristic
  35              	@ -fsched-stalled-insns-dep -fshow-column -fsigned-zeros
  36              	@ -fsplit-ivs-in-unroller -fstrict-volatile-bitfields -ftrapping-math
  37              	@ -ftree-cselim -ftree-forwprop -ftree-loop-im -ftree-loop-ivcanon
  38              	@ -ftree-loop-optimize -ftree-parallelize-loops= -ftree-phiprop -ftree-pta
  39              	@ -ftree-reassoc -ftree-scev-cprop -ftree-slp-vectorize
  40              	@ -ftree-vect-loop-version -funit-at-a-time -fverbose-asm
  41              	@ -fzero-initialized-in-bss -mlittle-endian -msched-prolog
  42              	@ -mthumb-interwork
  43              	
  50 0000 D80A0000 		.text
  50      02009F03 
  50      00000201 
  50      FB0E0D00 
  50      01010101 
  51              	.Ltext0:
  52              	@ Compiler executable checksum: cfdaeede3ac8e9b2b599068efabc405c
  53              	
ARM GAS  /tmp/ccwDRvq0.s 			page 2


  54              		.cfi_sections	.debug_frame
  55              		.section	.rodata
  56              		.align	2
  57              	.LC0:
  58 0000 4D414C4C 		.ascii	"MALLOC FAILS\012\015\000"
  58      4F432046 
  58      41494C53 
  58      0A0D00
  59 000f 00       		.align	2
  60              	.LC1:
  61 0010 4661696C 		.ascii	"Failed Reading Header\012\015\000"
  61      65642052 
  61      65616469 
  61      6E672048 
  61      65616465 
  62              		.section	.text._Z10fat16_openP16partition_struct,"ax",%progbits
  63              		.align	2
  64              		.global	_Z10fat16_openP16partition_struct
  65              		.type	_Z10fat16_openP16partition_struct, %function
  66              	_Z10fat16_openP16partition_struct:
  67              	.LFB109:
  68              		.file 1 "fat16.cpp"
   1:fat16.cpp     **** /* This program is free software; you can redistribute it and/or modify
   2:fat16.cpp     ****  * it under the terms of the GNU General Public License version 2 as
   3:fat16.cpp     ****  * published by the Free Software Foundation.
   4:fat16.cpp     ****  */
   5:fat16.cpp     **** 
   6:fat16.cpp     **** //#include "armlib.h"
   7:fat16.cpp     **** //#include "partition.h"
   8:fat16.cpp     **** //#include "fat16.h"
   9:fat16.cpp     **** //#include "fat16_config.h"
  10:fat16.cpp     **** //#include "sd_raw.h"
  11:fat16.cpp     **** 
  12:fat16.cpp     **** #include "main.h"
  13:fat16.cpp     **** 
  14:fat16.cpp     **** 
  15:fat16.cpp     **** /**
  16:fat16.cpp     ****  * \addtogroup fat16 FAT16 support
  17:fat16.cpp     ****  *
  18:fat16.cpp     ****  * This module implements FAT16 read and write access.
  19:fat16.cpp     ****  *
  20:fat16.cpp     ****  * The following features are supported:
  21:fat16.cpp     ****  * - File names up to 31 characters long.
  22:fat16.cpp     ****  * - Unlimited depth of subdirectories.
  23:fat16.cpp     ****  * - Short 8.3 and long filenames.
  24:fat16.cpp     ****  * - Creating and deleting files.
  25:fat16.cpp     ****  * - Reading and writing from and to files.
  26:fat16.cpp     ****  * - File resizing.
  27:fat16.cpp     ****  * - File sizes of up to 4 gigabytes.
  28:fat16.cpp     ****  *
  29:fat16.cpp     ****  * @{
  30:fat16.cpp     ****  */
  31:fat16.cpp     **** /**
  32:fat16.cpp     ****  * \file
  33:fat16.cpp     ****  * FAT16 implementation.
  34:fat16.cpp     ****  *
  35:fat16.cpp     ****  * \author Roland Riegel
ARM GAS  /tmp/ccwDRvq0.s 			page 3


  36:fat16.cpp     ****  */
  37:fat16.cpp     **** 
  38:fat16.cpp     **** /**
  39:fat16.cpp     ****  * \addtogroup fat16_config FAT16 configuration
  40:fat16.cpp     ****  * Preprocessor defines to configure the FAT16 implementation.
  41:fat16.cpp     ****  */
  42:fat16.cpp     **** 
  43:fat16.cpp     **** /**
  44:fat16.cpp     ****  * \addtogroup fat16_fs FAT16 access
  45:fat16.cpp     ****  * Basic functions for handling a FAT16 filesystem.
  46:fat16.cpp     ****  */
  47:fat16.cpp     **** 
  48:fat16.cpp     **** /**
  49:fat16.cpp     ****  * \addtogroup fat16_file FAT16 file functions
  50:fat16.cpp     ****  * Functions for managing files.
  51:fat16.cpp     ****  */
  52:fat16.cpp     **** 
  53:fat16.cpp     **** /**
  54:fat16.cpp     ****  * \addtogroup fat16_dir FAT16 directory functions
  55:fat16.cpp     ****  * Functions for managing directories.
  56:fat16.cpp     ****  */
  57:fat16.cpp     **** 
  58:fat16.cpp     **** /**
  59:fat16.cpp     ****  * @}
  60:fat16.cpp     ****  */
  61:fat16.cpp     **** 
  62:fat16.cpp     **** #define FAT16_CLUSTER_FREE 0x0000
  63:fat16.cpp     **** #define FAT16_CLUSTER_RESERVED_MIN (uint16_t)0xfff0
  64:fat16.cpp     **** #define FAT16_CLUSTER_RESERVED_MAX (uint16_t)0xfff6
  65:fat16.cpp     **** #define FAT16_CLUSTER_BAD (uint16_t)0xfff7
  66:fat16.cpp     **** #define FAT16_CLUSTER_LAST_MIN (uint16_t)0xfff8
  67:fat16.cpp     **** #define FAT16_CLUSTER_LAST_MAX (uint16_t)0xffff
  68:fat16.cpp     **** 
  69:fat16.cpp     **** #define FAT16_DIRENTRY_DELETED 0xe5
  70:fat16.cpp     **** #define FAT16_DIRENTRY_LFNLAST (1 << 6)
  71:fat16.cpp     **** #define FAT16_DIRENTRY_LFNSEQMASK ((1 << 6) - 1)
  72:fat16.cpp     **** 
  73:fat16.cpp     **** /* Each entry within the directory table has a size of 32 bytes
  74:fat16.cpp     ****  * and either contains a 8.3 DOS-style file name or a part of a
  75:fat16.cpp     ****  * long file name, which may consist of several directory table
  76:fat16.cpp     ****  * entries at once.
  77:fat16.cpp     ****  *
  78:fat16.cpp     ****  * multi-byte integer values are stored little-endian!
  79:fat16.cpp     ****  *
  80:fat16.cpp     ****  * 8.3 file name entry:
  81:fat16.cpp     ****  * ====================
  82:fat16.cpp     ****  * offset  length  description
  83:fat16.cpp     ****  *      0       8  name (space padded)
  84:fat16.cpp     ****  *      8       3  extension (space padded)
  85:fat16.cpp     ****  *     11       1  attributes (FAT16_ATTRIB_*)
  86:fat16.cpp     ****  
  87:fat16.cpp     ****  *     0x0E     2  Creation Time
  88:fat16.cpp     ****  *     0x10     2  Creation Date
  89:fat16.cpp     ****  
  90:fat16.cpp     ****  *
  91:fat16.cpp     ****  * long file name (lfn) entry ordering for a single file name:
  92:fat16.cpp     ****  * ===========================================================
ARM GAS  /tmp/ccwDRvq0.s 			page 4


  93:fat16.cpp     ****  * LFN entry n
  94:fat16.cpp     ****  *     ...
  95:fat16.cpp     ****  * LFN entry 2
  96:fat16.cpp     ****  * LFN entry 1
  97:fat16.cpp     ****  * 8.3 entry (see above)
  98:fat16.cpp     ****  *
  99:fat16.cpp     ****  * lfn entry:
 100:fat16.cpp     ****  * ==========
 101:fat16.cpp     ****  * offset  length  description
 102:fat16.cpp     ****  *      0       1  ordinal field
 103:fat16.cpp     ****  *      1       2  unicode character 1
 104:fat16.cpp     ****  *      3       3  unicode character 2
 105:fat16.cpp     ****  *      5       3  unicode character 3
 106:fat16.cpp     ****  *      7       3  unicode character 4
 107:fat16.cpp     ****  *      9       3  unicode character 5
 108:fat16.cpp     ****  *     11       1  attribute (always 0x0f)
 109:fat16.cpp     ****  *     12       1  type (reserved, always 0)
 110:fat16.cpp     ****  *     13       1  checksum
 111:fat16.cpp     ****  *     14       2  unicode character 6
 112:fat16.cpp     ****  *     16       2  unicode character 7
 113:fat16.cpp     ****  *     18       2  unicode character 8
 114:fat16.cpp     ****  *     20       2  unicode character 9
 115:fat16.cpp     ****  *     22       2  unicode character 10
 116:fat16.cpp     ****  *     24       2  unicode character 11
 117:fat16.cpp     ****  *     26       2  cluster (unused, always 0)
 118:fat16.cpp     ****  *     28       2  unicode character 12
 119:fat16.cpp     ****  *     30       2  unicode character 13
 120:fat16.cpp     ****  *
 121:fat16.cpp     ****  * The ordinal field contains a descending number, from n to 1.
 122:fat16.cpp     ****  * For the n'th lfn entry the ordinal field is or'ed with 0x40.
 123:fat16.cpp     ****  * For deleted lfn entries, the ordinal field is set to 0xe5.
 124:fat16.cpp     ****  */
 125:fat16.cpp     **** 
 126:fat16.cpp     **** struct fat16_header_struct
 127:fat16.cpp     **** {
 128:fat16.cpp     ****     uint32_t size;
 129:fat16.cpp     **** 
 130:fat16.cpp     ****     uint32_t fat_offset;
 131:fat16.cpp     ****     uint32_t fat_size;
 132:fat16.cpp     **** 
 133:fat16.cpp     ****     uint16_t sector_size;
 134:fat16.cpp     ****     uint16_t cluster_size;
 135:fat16.cpp     **** 
 136:fat16.cpp     ****     uint32_t root_dir_offset;
 137:fat16.cpp     **** 
 138:fat16.cpp     ****     uint32_t cluster_zero_offset;
 139:fat16.cpp     **** };
 140:fat16.cpp     **** 
 141:fat16.cpp     **** struct fat16_fs_struct
 142:fat16.cpp     **** {
 143:fat16.cpp     ****     struct partition_struct* partition;
 144:fat16.cpp     ****     struct fat16_header_struct header;
 145:fat16.cpp     **** };
 146:fat16.cpp     **** 
 147:fat16.cpp     **** struct fat16_file_struct
 148:fat16.cpp     **** {
 149:fat16.cpp     ****     struct fat16_fs_struct* fs;
ARM GAS  /tmp/ccwDRvq0.s 			page 5


 150:fat16.cpp     ****     struct fat16_dir_entry_struct dir_entry;
 151:fat16.cpp     ****     uint32_t pos;
 152:fat16.cpp     ****     uint16_t pos_cluster;
 153:fat16.cpp     **** };
 154:fat16.cpp     **** 
 155:fat16.cpp     **** struct fat16_dir_struct
 156:fat16.cpp     **** {
 157:fat16.cpp     ****     struct fat16_fs_struct* fs;
 158:fat16.cpp     ****     struct fat16_dir_entry_struct dir_entry;
 159:fat16.cpp     ****     uint16_t entry_next;
 160:fat16.cpp     **** };
 161:fat16.cpp     **** 
 162:fat16.cpp     **** struct fat16_read_callback_arg
 163:fat16.cpp     **** {
 164:fat16.cpp     ****     uint16_t entry_cur;
 165:fat16.cpp     ****     uint16_t entry_num;
 166:fat16.cpp     ****     uint32_t entry_offset;
 167:fat16.cpp     ****     uint8_t byte_count;
 168:fat16.cpp     **** };
 169:fat16.cpp     **** 
 170:fat16.cpp     **** struct fat16_usage_count_callback_arg
 171:fat16.cpp     **** {
 172:fat16.cpp     ****     uint16_t cluster_count;
 173:fat16.cpp     ****     uint8_t buffer_size;
 174:fat16.cpp     **** };
 175:fat16.cpp     **** 
 176:fat16.cpp     **** static uint8_t fat16_read_header(struct fat16_fs_struct* fs);
 177:fat16.cpp     **** static uint8_t fat16_read_root_dir_entry(const struct fat16_fs_struct* fs, uint16_t entry_num, stru
 178:fat16.cpp     **** static uint8_t fat16_read_sub_dir_entry(const struct fat16_fs_struct* fs, uint16_t entry_num, const
 179:fat16.cpp     **** static uint8_t fat16_dir_entry_seek_callback(uint8_t* buffer, uint32_t offset, void* p);
 180:fat16.cpp     **** static uint8_t fat16_dir_entry_read_callback(uint8_t* buffer, uint32_t offset, void* p);
 181:fat16.cpp     **** static uint8_t fat16_interpret_dir_entry(struct fat16_dir_entry_struct* dir_entry, const uint8_t* r
 182:fat16.cpp     **** static uint16_t fat16_get_next_cluster(const struct fat16_fs_struct* fs, uint16_t cluster_num);
 183:fat16.cpp     **** static uint16_t fat16_append_clusters(const struct fat16_fs_struct* fs, uint16_t cluster_num, uint1
 184:fat16.cpp     **** static uint8_t fat16_free_clusters(const struct fat16_fs_struct* fs, uint16_t cluster_num);
 185:fat16.cpp     **** static uint8_t fat16_terminate_clusters(const struct fat16_fs_struct* fs, uint16_t cluster_num);
 186:fat16.cpp     **** static uint8_t fat16_write_dir_entry(const struct fat16_fs_struct* fs, const struct fat16_dir_entry
 187:fat16.cpp     **** 
 188:fat16.cpp     **** static uint8_t fat16_get_fs_free_callback(uint8_t* buffer, uint32_t offset, void* p);
 189:fat16.cpp     **** 
 190:fat16.cpp     **** /**
 191:fat16.cpp     ****  * \ingroup fat16_fs
 192:fat16.cpp     ****  * Opens a FAT16 filesystem.
 193:fat16.cpp     ****  *
 194:fat16.cpp     ****  * \param[in] partition Discriptor of partition on which the filesystem resides.
 195:fat16.cpp     ****  * \returns 0 on error, a FAT16 filesystem descriptor on success.
 196:fat16.cpp     ****  * \see fat16_open
 197:fat16.cpp     ****  */
 198:fat16.cpp     **** struct fat16_fs_struct* fat16_open(struct partition_struct* partition)
 199:fat16.cpp     **** {
  69              		.loc 1 199 0
  70              		.cfi_startproc
  71              		@ Function supports interworking.
  72              		@ args = 0, pretend = 0, frame = 16
  73              		@ frame_needed = 0, uses_anonymous_args = 0
  74 0000 04E02DE5 		str	lr, [sp, #-4]!	@,
  75              	.LCFI0:
ARM GAS  /tmp/ccwDRvq0.s 			page 6


  76              		.cfi_def_cfa_offset 4
  77 0004 14D04DE2 		sub	sp, sp, #20	@,,
  78              	.LCFI1:
  79              		.cfi_def_cfa_offset 24
  80 0008 04008DE5 		str	r0, [sp, #4]	@ partition, partition
  81              	.LBB2:
 200:fat16.cpp     **** 	UART0 * uart = UART0::GetInstance();
  82              		.loc 1 200 0
  83              		.cfi_offset 14, -4
  84 000c FEFFFFEB 		bl	_ZN5UART011GetInstanceEv	@
  85 0010 0C008DE5 		str	r0, [sp, #12]	@, uart
 201:fat16.cpp     ****     if(!partition ||
  86              		.loc 1 201 0
  87 0014 04309DE5 		ldr	r3, [sp, #4]	@ tmp139, partition
  88 0018 000053E3 		cmp	r3, #0	@ tmp139,
  89 001c 0300000A 		beq	.L2	@,
 202:fat16.cpp     ****         #if FAT16_WRITE_SUPPORT
 203:fat16.cpp     ****         !partition->device_write
  90              		.loc 1 203 0 discriminator 1
  91 0020 04309DE5 		ldr	r3, [sp, #4]	@ tmp140, partition
  92 0024 083093E5 		ldr	r3, [r3, #8]	@ D.11921, partition_3(D)->device_write
 201:fat16.cpp     ****     if(!partition ||
  93              		.loc 1 201 0 discriminator 1
  94 0028 000053E3 		cmp	r3, #0	@ D.11921,
  95 002c 0100001A 		bne	.L3	@,
  96              	.L2:
 204:fat16.cpp     ****        #else
 205:fat16.cpp     ****         0
 206:fat16.cpp     ****        #endif
 207:fat16.cpp     ****        )
 208:fat16.cpp     ****     return 0;
  97              		.loc 1 208 0
  98 0030 0030A0E3 		mov	r3, #0	@ D.11922,
  99 0034 230000EA 		b	.L4	@
 100              	.L3:
 209:fat16.cpp     **** 
 210:fat16.cpp     ****     struct fat16_fs_struct* fs = (fat16_fs_struct*)malloc(sizeof(*fs));
 101              		.loc 1 210 0
 102 0038 1C00A0E3 		mov	r0, #28	@,
 103 003c FEFFFFEB 		bl	malloc	@
 104 0040 0030A0E1 		mov	r3, r0	@ tmp141,
 105 0044 08308DE5 		str	r3, [sp, #8]	@ D.11923, fs
 211:fat16.cpp     ****     if(!fs)
 106              		.loc 1 211 0
 107 0048 08309DE5 		ldr	r3, [sp, #8]	@ tmp142, fs
 108 004c 000053E3 		cmp	r3, #0	@ tmp142,
 109 0050 0400001A 		bne	.L5	@,
 212:fat16.cpp     ****     {
 213:fat16.cpp     ****     	uart->WriteLine("MALLOC FAILS\n\r");
 110              		.loc 1 213 0
 111 0054 0C009DE5 		ldr	r0, [sp, #12]	@, uart
 112 0058 78109FE5 		ldr	r1, .L7	@,
 113 005c FEFFFFEB 		bl	_ZN5UART09WriteLineEPKcz	@
 214:fat16.cpp     ****         return 0;
 114              		.loc 1 214 0
 115 0060 0030A0E3 		mov	r3, #0	@ D.11922,
 116 0064 170000EA 		b	.L4	@
ARM GAS  /tmp/ccwDRvq0.s 			page 7


 117              	.L5:
 215:fat16.cpp     ****     }
 216:fat16.cpp     ****     memset(fs, 0, sizeof(*fs));
 118              		.loc 1 216 0
 119 0068 08009DE5 		ldr	r0, [sp, #8]	@, fs
 120 006c 0010A0E3 		mov	r1, #0	@,
 121 0070 1C20A0E3 		mov	r2, #28	@,
 122 0074 FEFFFFEB 		bl	memset	@
 217:fat16.cpp     **** 
 218:fat16.cpp     ****     fs->partition = partition;
 123              		.loc 1 218 0
 124 0078 08309DE5 		ldr	r3, [sp, #8]	@ tmp143, fs
 125 007c 04209DE5 		ldr	r2, [sp, #4]	@ tmp144, partition
 126 0080 002083E5 		str	r2, [r3, #0]	@ tmp144, fs_6->partition
 219:fat16.cpp     ****     if(!fat16_read_header(fs))
 127              		.loc 1 219 0
 128 0084 08009DE5 		ldr	r0, [sp, #8]	@, fs
 129 0088 FEFFFFEB 		bl	_ZL17fat16_read_headerP15fat16_fs_struct	@
 130 008c 0030A0E1 		mov	r3, r0	@ tmp145,
 131 0090 000053E3 		cmp	r3, #0	@ D.11927,
 132 0094 0030A013 		movne	r3, #0	@, tmp147
 133 0098 0130A003 		moveq	r3, #1	@, tmp147
 134 009c FF3003E2 		and	r3, r3, #255	@ retval.45, tmp146,
 135 00a0 000053E3 		cmp	r3, #0	@ retval.45,
 136 00a4 0600000A 		beq	.L6	@,
 220:fat16.cpp     ****     {
 221:fat16.cpp     ****     	uart->WriteLine("Failed Reading Header\n\r");
 137              		.loc 1 221 0
 138 00a8 0C009DE5 		ldr	r0, [sp, #12]	@, uart
 139 00ac 28109FE5 		ldr	r1, .L7+4	@,
 140 00b0 FEFFFFEB 		bl	_ZN5UART09WriteLineEPKcz	@
 222:fat16.cpp     ****         free(fs);
 141              		.loc 1 222 0
 142 00b4 08009DE5 		ldr	r0, [sp, #8]	@, fs
 143 00b8 FEFFFFEB 		bl	free	@
 223:fat16.cpp     ****         return 0;
 144              		.loc 1 223 0
 145 00bc 0030A0E3 		mov	r3, #0	@ D.11922,
 146 00c0 000000EA 		b	.L4	@
 147              	.L6:
 224:fat16.cpp     ****     }
 225:fat16.cpp     **** 
 226:fat16.cpp     ****     return fs;
 148              		.loc 1 226 0
 149 00c4 08309DE5 		ldr	r3, [sp, #8]	@ D.11922, fs
 150              	.L4:
 151              	.LBE2:
 227:fat16.cpp     **** }
 152              		.loc 1 227 0
 153 00c8 0300A0E1 		mov	r0, r3	@, <retval>
 154 00cc 14D08DE2 		add	sp, sp, #20	@,,
 155 00d0 04E09DE4 		ldr	lr, [sp], #4
 156 00d4 1EFF2FE1 		bx	lr
 157              	.L8:
 158              		.align	2
 159              	.L7:
 160 00d8 00000000 		.word	.LC0
ARM GAS  /tmp/ccwDRvq0.s 			page 8


 161 00dc 10000000 		.word	.LC1
 162              		.cfi_endproc
 163              	.LFE109:
 164              		.size	_Z10fat16_openP16partition_struct, .-_Z10fat16_openP16partition_struct
 165              		.section	.text._Z11fat16_closeP15fat16_fs_struct,"ax",%progbits
 166              		.align	2
 167              		.global	_Z11fat16_closeP15fat16_fs_struct
 168              		.type	_Z11fat16_closeP15fat16_fs_struct, %function
 169              	_Z11fat16_closeP15fat16_fs_struct:
 170              	.LFB110:
 228:fat16.cpp     **** 
 229:fat16.cpp     **** /**
 230:fat16.cpp     ****  * \ingroup fat16_fs
 231:fat16.cpp     ****  * Closes a FAT16 filesystem.
 232:fat16.cpp     ****  *
 233:fat16.cpp     ****  * When this function returns, the given filesystem descriptor
 234:fat16.cpp     ****  * will be invalid.
 235:fat16.cpp     ****  *
 236:fat16.cpp     ****  * \param[in] fs The filesystem to close.
 237:fat16.cpp     ****  * \see fat16_open
 238:fat16.cpp     ****  */
 239:fat16.cpp     **** void fat16_close(struct fat16_fs_struct* fs)
 240:fat16.cpp     **** {
 171              		.loc 1 240 0
 172              		.cfi_startproc
 173              		@ Function supports interworking.
 174              		@ args = 0, pretend = 0, frame = 8
 175              		@ frame_needed = 0, uses_anonymous_args = 0
 176 0000 04E02DE5 		str	lr, [sp, #-4]!	@,
 177              	.LCFI2:
 178              		.cfi_def_cfa_offset 4
 179 0004 0CD04DE2 		sub	sp, sp, #12	@,,
 180              	.LCFI3:
 181              		.cfi_def_cfa_offset 16
 182 0008 04008DE5 		str	r0, [sp, #4]	@ fs, fs
 241:fat16.cpp     ****     if(!fs)
 183              		.loc 1 241 0
 184 000c 04309DE5 		ldr	r3, [sp, #4]	@ tmp133, fs
 185 0010 000053E3 		cmp	r3, #0	@ tmp133,
 186 0014 0200000A 		beq	.L12	@,
 187              		.cfi_offset 14, -4
 188              	.L10:
 242:fat16.cpp     ****         return;
 243:fat16.cpp     **** 
 244:fat16.cpp     ****     free(fs);
 189              		.loc 1 244 0
 190 0018 04009DE5 		ldr	r0, [sp, #4]	@, fs
 191 001c FEFFFFEB 		bl	free	@
 192 0020 000000EA 		b	.L9	@
 193              	.L12:
 242:fat16.cpp     ****         return;
 194              		.loc 1 242 0
 195 0024 0000A0E1 		mov	r0, r0	@ nop
 196              	.L9:
 245:fat16.cpp     **** }
 197              		.loc 1 245 0
 198 0028 0CD08DE2 		add	sp, sp, #12	@,,
ARM GAS  /tmp/ccwDRvq0.s 			page 9


 199 002c 04E09DE4 		ldr	lr, [sp], #4
 200 0030 1EFF2FE1 		bx	lr
 201              		.cfi_endproc
 202              	.LFE110:
 203              		.size	_Z11fat16_closeP15fat16_fs_struct, .-_Z11fat16_closeP15fat16_fs_struct
 204              		.section	.rodata
 205              		.align	2
 206              	.LC2:
 207 0028 50617274 		.ascii	"Partition = 0\012\015\000"
 207      6974696F 
 207      6E203D20 
 207      300A0D00 
 208              		.global	__aeabi_idiv
 209              		.global	__aeabi_uidiv
 210              		.section	.text._ZL17fat16_read_headerP15fat16_fs_struct,"ax",%progbits
 211              		.align	2
 212              		.type	_ZL17fat16_read_headerP15fat16_fs_struct, %function
 213              	_ZL17fat16_read_headerP15fat16_fs_struct:
 214              	.LFB111:
 246:fat16.cpp     **** 
 247:fat16.cpp     **** /**
 248:fat16.cpp     ****  * \ingroup fat16_fs
 249:fat16.cpp     ****  * Reads and parses the header of a FAT16 filesystem.
 250:fat16.cpp     ****  *
 251:fat16.cpp     ****  * \param[inout] fs The filesystem for which to parse the header.
 252:fat16.cpp     ****  * \returns 0 on failure, 1 on success.
 253:fat16.cpp     ****  */
 254:fat16.cpp     **** uint8_t fat16_read_header(struct fat16_fs_struct* fs)
 255:fat16.cpp     **** {
 215              		.loc 1 255 0
 216              		.cfi_startproc
 217              		@ Function supports interworking.
 218              		@ args = 0, pretend = 0, frame = 80
 219              		@ frame_needed = 0, uses_anonymous_args = 0
 220 0000 10402DE9 		stmfd	sp!, {r4, lr}	@,
 221              	.LCFI4:
 222              		.cfi_def_cfa_offset 8
 223 0004 50D04DE2 		sub	sp, sp, #80	@,,
 224              	.LCFI5:
 225              		.cfi_def_cfa_offset 88
 226 0008 04008DE5 		str	r0, [sp, #4]	@ fs, fs
 227              	.LBB3:
 256:fat16.cpp     **** 	UART0 * uart = UART0::GetInstance();
 228              		.loc 1 256 0
 229              		.cfi_offset 14, -4
 230              		.cfi_offset 4, -8
 231 000c FEFFFFEB 		bl	_ZN5UART011GetInstanceEv	@
 232 0010 48008DE5 		str	r0, [sp, #72]	@, uart
 257:fat16.cpp     ****     if(!fs)
 233              		.loc 1 257 0
 234 0014 04309DE5 		ldr	r3, [sp, #4]	@ tmp224, fs
 235 0018 000053E3 		cmp	r3, #0	@ tmp224,
 236 001c 0100001A 		bne	.L14	@,
 258:fat16.cpp     ****         return 0;
 237              		.loc 1 258 0
 238 0020 0030A0E3 		mov	r3, #0	@ D.11810,
 239 0024 CE0000EA 		b	.L15	@
ARM GAS  /tmp/ccwDRvq0.s 			page 10


 240              	.L14:
 259:fat16.cpp     **** 
 260:fat16.cpp     ****     struct partition_struct* partition = fs->partition;
 241              		.loc 1 260 0
 242 0028 04309DE5 		ldr	r3, [sp, #4]	@ tmp225, fs
 243 002c 003093E5 		ldr	r3, [r3, #0]	@ tmp226, fs_4(D)->partition
 244 0030 44308DE5 		str	r3, [sp, #68]	@ tmp226, partition
 261:fat16.cpp     ****     if(!partition)
 245              		.loc 1 261 0
 246 0034 44309DE5 		ldr	r3, [sp, #68]	@ tmp227, partition
 247 0038 000053E3 		cmp	r3, #0	@ tmp227,
 248 003c 0400001A 		bne	.L16	@,
 262:fat16.cpp     ****     {
 263:fat16.cpp     ****     	uart->WriteLine("Partition = 0\n\r");
 249              		.loc 1 263 0
 250 0040 48009DE5 		ldr	r0, [sp, #72]	@, uart
 251 0044 28139FE5 		ldr	r1, .L23	@,
 252 0048 FEFFFFEB 		bl	_ZN5UART09WriteLineEPKcz	@
 264:fat16.cpp     ****         return 0;
 253              		.loc 1 264 0
 254 004c 0030A0E3 		mov	r3, #0	@ D.11810,
 255 0050 C30000EA 		b	.L15	@
 256              	.L16:
 265:fat16.cpp     ****     }
 266:fat16.cpp     **** 
 267:fat16.cpp     ****     /* read fat parameters */
 268:fat16.cpp     ****     uint8_t buffer[25];
 269:fat16.cpp     ****     uint32_t partition_offset = partition->offset * 512;
 257              		.loc 1 269 0
 258 0054 44309DE5 		ldr	r3, [sp, #68]	@ tmp228, partition
 259 0058 103093E5 		ldr	r3, [r3, #16]	@ D.11813, partition_6->offset
 260 005c 8334A0E1 		mov	r3, r3, asl #9	@ tmp229, D.11813,
 261 0060 40308DE5 		str	r3, [sp, #64]	@ tmp229, partition_offset
 270:fat16.cpp     **** 
 271:fat16.cpp     ****     if(!partition->device_read(partition_offset + 0x0b, buffer, sizeof(buffer)))
 262              		.loc 1 271 0
 263 0064 44309DE5 		ldr	r3, [sp, #68]	@ tmp230, partition
 264 0068 003093E5 		ldr	r3, [r3, #0]	@ D.11815, partition_6->device_read
 265 006c 40209DE5 		ldr	r2, [sp, #64]	@ tmp231, partition_offset
 266 0070 0B1082E2 		add	r1, r2, #11	@ D.11816, tmp231,
 267 0074 08208DE2 		add	r2, sp, #8	@ tmp232,,
 268 0078 0100A0E1 		mov	r0, r1	@, D.11816
 269 007c 0210A0E1 		mov	r1, r2	@, tmp232
 270 0080 1920A0E3 		mov	r2, #25	@,
 271 0084 0FE0A0E1 		mov	lr, pc
 272 0088 13FF2FE1 		bx	r3	@ D.11815
 273 008c 0030A0E1 		mov	r3, r0	@ tmp233,
 274 0090 000053E3 		cmp	r3, #0	@ D.11817,
 275 0094 0030A013 		movne	r3, #0	@, tmp235
 276 0098 0130A003 		moveq	r3, #1	@, tmp235
 277 009c FF3003E2 		and	r3, r3, #255	@ retval.44, tmp234,
 278 00a0 000053E3 		cmp	r3, #0	@ retval.44,
 279 00a4 0100000A 		beq	.L17	@,
 272:fat16.cpp     ****         return 0;
 280              		.loc 1 272 0
 281 00a8 0030A0E3 		mov	r3, #0	@ D.11810,
 282 00ac AC0000EA 		b	.L15	@
ARM GAS  /tmp/ccwDRvq0.s 			page 11


 283              	.L17:
 273:fat16.cpp     **** 
 274:fat16.cpp     ****     uint16_t bytes_per_sector = ((uint16_t) buffer[0x00]) |
 284              		.loc 1 274 0
 285 00b0 0830DDE5 		ldrb	r3, [sp, #8]	@ zero_extendqisi2	@ D.11820, buffer
 275:fat16.cpp     ****     ((uint16_t) buffer[0x01] << 8);
 286              		.loc 1 275 0
 287 00b4 0320A0E1 		mov	r2, r3	@ D.11821, D.11820
 288 00b8 0930DDE5 		ldrb	r3, [sp, #9]	@ zero_extendqisi2	@ D.11822, buffer
 289 00bc 0334A0E1 		mov	r3, r3, asl #8	@ D.11824, D.11823,
 290 00c0 0338A0E1 		mov	r3, r3, asl #16	@ tmp236, D.11824,
 291 00c4 2338A0E1 		mov	r3, r3, lsr #16	@ D.11825, tmp236,
 292 00c8 033082E1 		orr	r3, r2, r3	@ tmp239, tmp237, tmp238
 293 00cc 0338A0E1 		mov	r3, r3, asl #16	@ tmp240, tmp239,
 294 00d0 2338A0E1 		mov	r3, r3, lsr #16	@ D.11826, tmp240,
 295 00d4 BE33CDE1 		strh	r3, [sp, #62]	@ movhi	@ D.11826, bytes_per_sector
 276:fat16.cpp     ****     uint8_t sectors_per_cluster = buffer[0x02];
 296              		.loc 1 276 0
 297 00d8 0A30DDE5 		ldrb	r3, [sp, #10]	@ tmp241, buffer
 298 00dc 3D30CDE5 		strb	r3, [sp, #61]	@ tmp241, sectors_per_cluster
 277:fat16.cpp     ****     uint16_t reserved_sectors = ((uint16_t) buffer[0x03]) |
 299              		.loc 1 277 0
 300 00e0 0B30DDE5 		ldrb	r3, [sp, #11]	@ zero_extendqisi2	@ D.11827, buffer
 278:fat16.cpp     ****     ((uint16_t) buffer[0x04] << 8);
 301              		.loc 1 278 0
 302 00e4 0320A0E1 		mov	r2, r3	@ D.11828, D.11827
 303 00e8 0C30DDE5 		ldrb	r3, [sp, #12]	@ zero_extendqisi2	@ D.11829, buffer
 304 00ec 0334A0E1 		mov	r3, r3, asl #8	@ D.11831, D.11830,
 305 00f0 0338A0E1 		mov	r3, r3, asl #16	@ tmp242, D.11831,
 306 00f4 2338A0E1 		mov	r3, r3, lsr #16	@ D.11832, tmp242,
 307 00f8 033082E1 		orr	r3, r2, r3	@ tmp245, tmp243, tmp244
 308 00fc 0338A0E1 		mov	r3, r3, asl #16	@ tmp246, tmp245,
 309 0100 2338A0E1 		mov	r3, r3, lsr #16	@ D.11833, tmp246,
 310 0104 BA33CDE1 		strh	r3, [sp, #58]	@ movhi	@ D.11833, reserved_sectors
 279:fat16.cpp     ****     uint8_t fat_copies = buffer[0x05];
 311              		.loc 1 279 0
 312 0108 0D30DDE5 		ldrb	r3, [sp, #13]	@ tmp247, buffer
 313 010c 3930CDE5 		strb	r3, [sp, #57]	@ tmp247, fat_copies
 280:fat16.cpp     ****     uint16_t max_root_entries = ((uint16_t) buffer[0x06]) |
 314              		.loc 1 280 0
 315 0110 0E30DDE5 		ldrb	r3, [sp, #14]	@ zero_extendqisi2	@ D.11834, buffer
 281:fat16.cpp     ****     ((uint16_t) buffer[0x07] << 8);
 316              		.loc 1 281 0
 317 0114 0320A0E1 		mov	r2, r3	@ D.11835, D.11834
 318 0118 0F30DDE5 		ldrb	r3, [sp, #15]	@ zero_extendqisi2	@ D.11836, buffer
 319 011c 0334A0E1 		mov	r3, r3, asl #8	@ D.11838, D.11837,
 320 0120 0338A0E1 		mov	r3, r3, asl #16	@ tmp248, D.11838,
 321 0124 2338A0E1 		mov	r3, r3, lsr #16	@ D.11839, tmp248,
 322 0128 033082E1 		orr	r3, r2, r3	@ tmp251, tmp249, tmp250
 323 012c 0338A0E1 		mov	r3, r3, asl #16	@ tmp252, tmp251,
 324 0130 2338A0E1 		mov	r3, r3, lsr #16	@ D.11840, tmp252,
 325 0134 B633CDE1 		strh	r3, [sp, #54]	@ movhi	@ D.11840, max_root_entries
 282:fat16.cpp     ****     uint16_t sector_count_16 = ((uint16_t) buffer[0x08]) |
 326              		.loc 1 282 0
 327 0138 1030DDE5 		ldrb	r3, [sp, #16]	@ zero_extendqisi2	@ D.11841, buffer
 283:fat16.cpp     ****     ((uint16_t) buffer[0x09] << 8);
 328              		.loc 1 283 0
ARM GAS  /tmp/ccwDRvq0.s 			page 12


 329 013c 0320A0E1 		mov	r2, r3	@ D.11842, D.11841
 330 0140 1130DDE5 		ldrb	r3, [sp, #17]	@ zero_extendqisi2	@ D.11843, buffer
 331 0144 0334A0E1 		mov	r3, r3, asl #8	@ D.11845, D.11844,
 332 0148 0338A0E1 		mov	r3, r3, asl #16	@ tmp253, D.11845,
 333 014c 2338A0E1 		mov	r3, r3, lsr #16	@ D.11846, tmp253,
 334 0150 033082E1 		orr	r3, r2, r3	@ tmp256, tmp254, tmp255
 335 0154 0338A0E1 		mov	r3, r3, asl #16	@ tmp257, tmp256,
 336 0158 2338A0E1 		mov	r3, r3, lsr #16	@ D.11847, tmp257,
 337 015c B433CDE1 		strh	r3, [sp, #52]	@ movhi	@ D.11847, sector_count_16
 284:fat16.cpp     ****     uint16_t sectors_per_fat = ((uint16_t) buffer[0x0b]) |
 338              		.loc 1 284 0
 339 0160 1330DDE5 		ldrb	r3, [sp, #19]	@ zero_extendqisi2	@ D.11848, buffer
 285:fat16.cpp     ****     ((uint16_t) buffer[0x0c] << 8);
 340              		.loc 1 285 0
 341 0164 0320A0E1 		mov	r2, r3	@ D.11849, D.11848
 342 0168 1430DDE5 		ldrb	r3, [sp, #20]	@ zero_extendqisi2	@ D.11850, buffer
 343 016c 0334A0E1 		mov	r3, r3, asl #8	@ D.11852, D.11851,
 344 0170 0338A0E1 		mov	r3, r3, asl #16	@ tmp258, D.11852,
 345 0174 2338A0E1 		mov	r3, r3, lsr #16	@ D.11853, tmp258,
 346 0178 033082E1 		orr	r3, r2, r3	@ tmp261, tmp259, tmp260
 347 017c 0338A0E1 		mov	r3, r3, asl #16	@ tmp262, tmp261,
 348 0180 2338A0E1 		mov	r3, r3, lsr #16	@ D.11854, tmp262,
 349 0184 B233CDE1 		strh	r3, [sp, #50]	@ movhi	@ D.11854, sectors_per_fat
 286:fat16.cpp     ****     uint32_t sector_count = ((uint32_t) buffer[0x15]) |
 350              		.loc 1 286 0
 351 0188 1D30DDE5 		ldrb	r3, [sp, #29]	@ zero_extendqisi2	@ D.11855, buffer
 287:fat16.cpp     ****     ((uint32_t) buffer[0x16] << 8) |
 288:fat16.cpp     ****     ((uint32_t) buffer[0x17] << 16) |
 289:fat16.cpp     ****     ((uint32_t) buffer[0x18] << 24);
 352              		.loc 1 289 0
 353 018c 0320A0E1 		mov	r2, r3	@ D.11856, D.11855
 287:fat16.cpp     ****     ((uint32_t) buffer[0x16] << 8) |
 354              		.loc 1 287 0
 355 0190 1E30DDE5 		ldrb	r3, [sp, #30]	@ zero_extendqisi2	@ D.11857, buffer
 356              		.loc 1 289 0
 357 0194 0334A0E1 		mov	r3, r3, asl #8	@ D.11859, D.11858,
 358 0198 032082E1 		orr	r2, r2, r3	@ D.11860, D.11856, D.11859
 288:fat16.cpp     ****     ((uint32_t) buffer[0x17] << 16) |
 359              		.loc 1 288 0
 360 019c 1F30DDE5 		ldrb	r3, [sp, #31]	@ zero_extendqisi2	@ D.11861, buffer
 361              		.loc 1 289 0
 362 01a0 0338A0E1 		mov	r3, r3, asl #16	@ D.11863, D.11862,
 363 01a4 032082E1 		orr	r2, r2, r3	@ D.11864, D.11860, D.11863
 364 01a8 2030DDE5 		ldrb	r3, [sp, #32]	@ zero_extendqisi2	@ D.11865, buffer
 365 01ac 033CA0E1 		mov	r3, r3, asl #24	@ D.11867, D.11866,
 366 01b0 033082E1 		orr	r3, r2, r3	@ tmp263, D.11864, D.11867
 367 01b4 4C308DE5 		str	r3, [sp, #76]	@ tmp263, sector_count
 290:fat16.cpp     **** 
 291:fat16.cpp     ****     if(sectors_per_fat == 0)
 368              		.loc 1 291 0
 369 01b8 B233DDE1 		ldrh	r3, [sp, #50]	@ tmp264, sectors_per_fat
 370 01bc 000053E3 		cmp	r3, #0	@ tmp264,
 371 01c0 0100001A 		bne	.L18	@,
 292:fat16.cpp     ****     /* this is not a FAT16 */
 293:fat16.cpp     ****         return 0;
 372              		.loc 1 293 0
 373 01c4 0030A0E3 		mov	r3, #0	@ D.11810,
ARM GAS  /tmp/ccwDRvq0.s 			page 13


 374 01c8 650000EA 		b	.L15	@
 375              	.L18:
 294:fat16.cpp     **** 
 295:fat16.cpp     ****     if(sector_count == 0)
 376              		.loc 1 295 0
 377 01cc 4C309DE5 		ldr	r3, [sp, #76]	@ tmp265, sector_count
 378 01d0 000053E3 		cmp	r3, #0	@ tmp265,
 379 01d4 0600001A 		bne	.L19	@,
 296:fat16.cpp     ****     {
 297:fat16.cpp     ****         if(sector_count_16 == 0)
 380              		.loc 1 297 0
 381 01d8 B433DDE1 		ldrh	r3, [sp, #52]	@ tmp266, sector_count_16
 382 01dc 000053E3 		cmp	r3, #0	@ tmp266,
 383 01e0 0100001A 		bne	.L20	@,
 298:fat16.cpp     ****     /* illegal volume size */
 299:fat16.cpp     ****             return 0;
 384              		.loc 1 299 0
 385 01e4 0030A0E3 		mov	r3, #0	@ D.11810,
 386 01e8 5D0000EA 		b	.L15	@
 387              	.L20:
 300:fat16.cpp     ****         else
 301:fat16.cpp     ****             sector_count = sector_count_16;
 388              		.loc 1 301 0
 389 01ec B433DDE1 		ldrh	r3, [sp, #52]	@ tmp267, sector_count_16
 390 01f0 4C308DE5 		str	r3, [sp, #76]	@ tmp267, sector_count
 391              	.L19:
 302:fat16.cpp     ****     }
 303:fat16.cpp     **** 
 304:fat16.cpp     ****     /* ensure we really have a FAT16 fs here */
 305:fat16.cpp     ****     uint32_t data_sector_count = sector_count
 306:fat16.cpp     ****     - reserved_sectors
 307:fat16.cpp     ****     - (uint32_t) sectors_per_fat * fat_copies
 308:fat16.cpp     ****     - ((max_root_entries * 32 + bytes_per_sector - 1) / bytes_per_sector);
 392              		.loc 1 308 0
 393 01f4 BA33DDE1 		ldrh	r3, [sp, #58]	@ D.11875, reserved_sectors
 394 01f8 4C209DE5 		ldr	r2, [sp, #76]	@ tmp268, sector_count
 395 01fc 022063E0 		rsb	r2, r3, r2	@ D.11876, D.11875, tmp268
 396 0200 B233DDE1 		ldrh	r3, [sp, #50]	@ D.11877, sectors_per_fat
 397 0204 3910DDE5 		ldrb	r1, [sp, #57]	@ zero_extendqisi2	@ D.11878, fat_copies
 398 0208 910303E0 		mul	r3, r1, r3	@ D.11879, D.11878, D.11877
 399 020c 024063E0 		rsb	r4, r3, r2	@ D.11880, D.11879, D.11876
 400 0210 B633DDE1 		ldrh	r3, [sp, #54]	@ D.11881, max_root_entries
 401 0214 8322A0E1 		mov	r2, r3, asl #5	@ D.11882, D.11881,
 402 0218 BE33DDE1 		ldrh	r3, [sp, #62]	@ D.11883, bytes_per_sector
 403 021c 033082E0 		add	r3, r2, r3	@ D.11884, D.11882, D.11883
 404 0220 012043E2 		sub	r2, r3, #1	@ D.11885, D.11884,
 405 0224 BE33DDE1 		ldrh	r3, [sp, #62]	@ D.11886, bytes_per_sector
 406 0228 0200A0E1 		mov	r0, r2	@, D.11885
 407 022c 0310A0E1 		mov	r1, r3	@, D.11886
 408 0230 FEFFFFEB 		bl	__aeabi_idiv	@
 409 0234 0030A0E1 		mov	r3, r0	@ tmp271,
 410 0238 043063E0 		rsb	r3, r3, r4	@ tmp272, D.11888, D.11880
 411 023c 2C308DE5 		str	r3, [sp, #44]	@ tmp272, data_sector_count
 309:fat16.cpp     ****     uint32_t data_cluster_count = data_sector_count / sectors_per_cluster;
 412              		.loc 1 309 0
 413 0240 3D30DDE5 		ldrb	r3, [sp, #61]	@ zero_extendqisi2	@ D.11889, sectors_per_cluster
 414 0244 2C009DE5 		ldr	r0, [sp, #44]	@, data_sector_count
ARM GAS  /tmp/ccwDRvq0.s 			page 14


 415 0248 0310A0E1 		mov	r1, r3	@, D.11889
 416 024c FEFFFFEB 		bl	__aeabi_uidiv	@
 417 0250 0030A0E1 		mov	r3, r0	@ tmp275,
 418 0254 28308DE5 		str	r3, [sp, #40]	@ tmp275, data_cluster_count
 310:fat16.cpp     ****     if(data_cluster_count < 4085 || data_cluster_count >= 65525)
 419              		.loc 1 310 0
 420 0258 28209DE5 		ldr	r2, [sp, #40]	@ tmp276, data_cluster_count
 421 025c 14319FE5 		ldr	r3, .L23+4	@ tmp277,
 422 0260 030052E1 		cmp	r2, r3	@ tmp276, tmp277
 423 0264 0300009A 		bls	.L21	@,
 424              		.loc 1 310 0 is_stmt 0 discriminator 1
 425 0268 28209DE5 		ldr	r2, [sp, #40]	@ tmp278, data_cluster_count
 426 026c 08319FE5 		ldr	r3, .L23+8	@ tmp279,
 427 0270 030052E1 		cmp	r2, r3	@ tmp278, tmp279
 428 0274 0100009A 		bls	.L22	@,
 429              	.L21:
 311:fat16.cpp     ****     /* this is not a FAT16 */
 312:fat16.cpp     ****         return 0;
 430              		.loc 1 312 0 is_stmt 1
 431 0278 0030A0E3 		mov	r3, #0	@ D.11810,
 432 027c 380000EA 		b	.L15	@
 433              	.L22:
 313:fat16.cpp     **** 
 314:fat16.cpp     ****     partition->type = PARTITION_TYPE_FAT16;
 434              		.loc 1 314 0
 435 0280 44309DE5 		ldr	r3, [sp, #68]	@ tmp280, partition
 436 0284 0620A0E3 		mov	r2, #6	@ tmp281,
 437 0288 0C20C3E5 		strb	r2, [r3, #12]	@ tmp282, partition_6->type
 315:fat16.cpp     **** 
 316:fat16.cpp     ****     /* fill header information */
 317:fat16.cpp     ****     struct fat16_header_struct* header = &fs->header;
 438              		.loc 1 317 0
 439 028c 04309DE5 		ldr	r3, [sp, #4]	@ tmp283, fs
 440 0290 043083E2 		add	r3, r3, #4	@ tmp284, tmp283,
 441 0294 24308DE5 		str	r3, [sp, #36]	@ tmp284, header
 318:fat16.cpp     ****     memset(header, 0, sizeof(*header));
 442              		.loc 1 318 0
 443 0298 24009DE5 		ldr	r0, [sp, #36]	@, header
 444 029c 0010A0E3 		mov	r1, #0	@,
 445 02a0 1820A0E3 		mov	r2, #24	@,
 446 02a4 FEFFFFEB 		bl	memset	@
 319:fat16.cpp     **** 
 320:fat16.cpp     ****     header->size = sector_count * bytes_per_sector;
 447              		.loc 1 320 0
 448 02a8 BE33DDE1 		ldrh	r3, [sp, #62]	@ D.11893, bytes_per_sector
 449 02ac 4C209DE5 		ldr	r2, [sp, #76]	@ tmp285, sector_count
 450 02b0 930202E0 		mul	r2, r3, r2	@ D.11894, D.11893, tmp285
 451 02b4 24309DE5 		ldr	r3, [sp, #36]	@ tmp286, header
 452 02b8 002083E5 		str	r2, [r3, #0]	@ D.11894, header_91->size
 321:fat16.cpp     **** 
 322:fat16.cpp     ****     header->fat_offset = /* jump to partition */
 323:fat16.cpp     ****     partition_offset +
 324:fat16.cpp     ****     /* jump to fat */
 325:fat16.cpp     ****     (uint32_t) reserved_sectors * bytes_per_sector;
 453              		.loc 1 325 0
 454 02bc BA33DDE1 		ldrh	r3, [sp, #58]	@ D.11895, reserved_sectors
 455 02c0 BE23DDE1 		ldrh	r2, [sp, #62]	@ D.11896, bytes_per_sector
ARM GAS  /tmp/ccwDRvq0.s 			page 15


 456 02c4 930202E0 		mul	r2, r3, r2	@ D.11897, D.11895, D.11896
 457 02c8 40309DE5 		ldr	r3, [sp, #64]	@ tmp287, partition_offset
 458 02cc 032082E0 		add	r2, r2, r3	@ D.11898, D.11897, tmp287
 459 02d0 24309DE5 		ldr	r3, [sp, #36]	@ tmp288, header
 460 02d4 042083E5 		str	r2, [r3, #4]	@ D.11898, header_91->fat_offset
 326:fat16.cpp     ****     header->fat_size = (data_cluster_count + 2) * 2;
 461              		.loc 1 326 0
 462 02d8 28309DE5 		ldr	r3, [sp, #40]	@ tmp289, data_cluster_count
 463 02dc 023083E2 		add	r3, r3, #2	@ D.11899, tmp289,
 464 02e0 8320A0E1 		mov	r2, r3, asl #1	@ D.11900, D.11899,
 465 02e4 24309DE5 		ldr	r3, [sp, #36]	@ tmp290, header
 466 02e8 082083E5 		str	r2, [r3, #8]	@ D.11900, header_91->fat_size
 327:fat16.cpp     **** 
 328:fat16.cpp     ****     header->sector_size = bytes_per_sector;
 467              		.loc 1 328 0
 468 02ec 24309DE5 		ldr	r3, [sp, #36]	@ tmp291, header
 469 02f0 BE23DDE1 		ldrh	r2, [sp, #62]	@ movhi	@ tmp292, bytes_per_sector
 470 02f4 BC20C3E1 		strh	r2, [r3, #12]	@ movhi	@ tmp292, header_91->sector_size
 329:fat16.cpp     ****     header->cluster_size = (uint32_t) bytes_per_sector * sectors_per_cluster;
 471              		.loc 1 329 0
 472 02f8 3D30DDE5 		ldrb	r3, [sp, #61]	@ zero_extendqisi2	@ tmp294, sectors_per_cluster
 473 02fc 0338A0E1 		mov	r3, r3, asl #16	@ tmp295, tmp293,
 474 0300 2338A0E1 		mov	r3, r3, lsr #16	@ D.11901, tmp295,
 475 0304 BE23DDE1 		ldrh	r2, [sp, #62]	@ movhi	@ tmp296, bytes_per_sector
 476 0308 920303E0 		mul	r3, r2, r3	@ tmp297, tmp296, D.11901
 477 030c 0338A0E1 		mov	r3, r3, asl #16	@ tmp298, tmp297,
 478 0310 2328A0E1 		mov	r2, r3, lsr #16	@ D.11902, tmp298,
 479 0314 24309DE5 		ldr	r3, [sp, #36]	@ tmp299, header
 480 0318 BE20C3E1 		strh	r2, [r3, #14]	@ movhi	@ D.11902, header_91->cluster_size
 330:fat16.cpp     **** 
 331:fat16.cpp     ****     header->root_dir_offset = /* jump to fats */
 332:fat16.cpp     ****     header->fat_offset +
 333:fat16.cpp     ****     /* jump to root directory entries */
 334:fat16.cpp     ****     (uint32_t) fat_copies * sectors_per_fat * bytes_per_sector;
 481              		.loc 1 334 0
 482 031c 24309DE5 		ldr	r3, [sp, #36]	@ tmp300, header
 483 0320 042093E5 		ldr	r2, [r3, #4]	@ D.11903, header_91->fat_offset
 484 0324 3930DDE5 		ldrb	r3, [sp, #57]	@ zero_extendqisi2	@ D.11904, fat_copies
 485 0328 B213DDE1 		ldrh	r1, [sp, #50]	@ D.11905, sectors_per_fat
 486 032c 910303E0 		mul	r3, r1, r3	@ D.11906, D.11905, D.11904
 487 0330 BE13DDE1 		ldrh	r1, [sp, #62]	@ D.11907, bytes_per_sector
 488 0334 910303E0 		mul	r3, r1, r3	@ D.11908, D.11907, D.11906
 489 0338 032082E0 		add	r2, r2, r3	@ D.11909, D.11903, D.11908
 490 033c 24309DE5 		ldr	r3, [sp, #36]	@ tmp301, header
 491 0340 102083E5 		str	r2, [r3, #16]	@ D.11909, header_91->root_dir_offset
 335:fat16.cpp     **** 
 336:fat16.cpp     ****     header->cluster_zero_offset = /* jump to root directory entries */
 337:fat16.cpp     ****     header->root_dir_offset +
 338:fat16.cpp     ****     /* skip root directory entries */
 339:fat16.cpp     ****     (uint32_t) max_root_entries * 32;
 492              		.loc 1 339 0
 493 0344 24309DE5 		ldr	r3, [sp, #36]	@ tmp302, header
 494 0348 102093E5 		ldr	r2, [r3, #16]	@ D.11910, header_91->root_dir_offset
 495 034c B633DDE1 		ldrh	r3, [sp, #54]	@ D.11911, max_root_entries
 496 0350 8332A0E1 		mov	r3, r3, asl #5	@ D.11912, D.11911,
 497 0354 032082E0 		add	r2, r2, r3	@ D.11913, D.11910, D.11912
 498 0358 24309DE5 		ldr	r3, [sp, #36]	@ tmp303, header
ARM GAS  /tmp/ccwDRvq0.s 			page 16


 499 035c 142083E5 		str	r2, [r3, #20]	@ D.11913, header_91->cluster_zero_offset
 340:fat16.cpp     **** 
 341:fat16.cpp     ****     return 1;
 500              		.loc 1 341 0
 501 0360 0130A0E3 		mov	r3, #1	@ D.11810,
 502              	.L15:
 503              	.LBE3:
 342:fat16.cpp     **** }
 504              		.loc 1 342 0
 505 0364 0300A0E1 		mov	r0, r3	@, <retval>
 506 0368 50D08DE2 		add	sp, sp, #80	@,,
 507 036c 1040BDE8 		ldmfd	sp!, {r4, lr}
 508 0370 1EFF2FE1 		bx	lr
 509              	.L24:
 510              		.align	2
 511              	.L23:
 512 0374 28000000 		.word	.LC2
 513 0378 F40F0000 		.word	4084
 514 037c F4FF0000 		.word	65524
 515              		.cfi_endproc
 516              	.LFE111:
 517              		.size	_ZL17fat16_read_headerP15fat16_fs_struct, .-_ZL17fat16_read_headerP15fat16_fs_struct
 518              		.section	.text._ZL25fat16_read_root_dir_entryPK15fat16_fs_structtP22fat16_dir_entry_struct,"ax",%p
 519              		.align	2
 520              		.type	_ZL25fat16_read_root_dir_entryPK15fat16_fs_structtP22fat16_dir_entry_struct, %function
 521              	_ZL25fat16_read_root_dir_entryPK15fat16_fs_structtP22fat16_dir_entry_struct:
 522              	.LFB112:
 343:fat16.cpp     **** 
 344:fat16.cpp     **** /**
 345:fat16.cpp     ****  * \ingroup fat16_fs
 346:fat16.cpp     ****  * Reads a directory entry of the root directory.
 347:fat16.cpp     ****  *
 348:fat16.cpp     ****  * \param[in] fs Descriptor of file system to use.
 349:fat16.cpp     ****  * \param[in] entry_num The index of the directory entry to read.
 350:fat16.cpp     ****  * \param[out] dir_entry Directory entry descriptor which will get filled.
 351:fat16.cpp     ****  * \returns 0 on failure, 1 on success
 352:fat16.cpp     ****  * \see fat16_read_sub_dir_entry, fat16_read_dir_entry_by_path
 353:fat16.cpp     ****  */
 354:fat16.cpp     **** uint8_t fat16_read_root_dir_entry(const struct fat16_fs_struct* fs, uint16_t entry_num, struct fat1
 355:fat16.cpp     **** {
 523              		.loc 1 355 0
 524              		.cfi_startproc
 525              		@ Function supports interworking.
 526              		@ args = 0, pretend = 0, frame = 72
 527              		@ frame_needed = 0, uses_anonymous_args = 0
 528 0000 04E02DE5 		str	lr, [sp, #-4]!	@,
 529              	.LCFI6:
 530              		.cfi_def_cfa_offset 4
 531 0004 54D04DE2 		sub	sp, sp, #84	@,,
 532              	.LCFI7:
 533              		.cfi_def_cfa_offset 88
 534 0008 14008DE5 		str	r0, [sp, #20]	@ fs, fs
 535 000c 0130A0E1 		mov	r3, r1	@ tmp153, entry_num
 536 0010 0C208DE5 		str	r2, [sp, #12]	@ dir_entry, dir_entry
 537 0014 B231CDE1 		strh	r3, [sp, #18]	@ movhi	@ tmp153, entry_num
 538              	.LBB4:
 356:fat16.cpp     ****     if(!fs || !dir_entry)
ARM GAS  /tmp/ccwDRvq0.s 			page 17


 539              		.loc 1 356 0
 540 0018 14309DE5 		ldr	r3, [sp, #20]	@ tmp154, fs
 541 001c 000053E3 		cmp	r3, #0	@ tmp154,
 542 0020 0200000A 		beq	.L26	@,
 543              		.cfi_offset 14, -4
 544              		.loc 1 356 0 is_stmt 0 discriminator 1
 545 0024 0C309DE5 		ldr	r3, [sp, #12]	@ tmp155, dir_entry
 546 0028 000053E3 		cmp	r3, #0	@ tmp155,
 547 002c 0100001A 		bne	.L27	@,
 548              	.L26:
 357:fat16.cpp     ****         return 0;
 549              		.loc 1 357 0 is_stmt 1
 550 0030 0030A0E3 		mov	r3, #0	@ D.11777,
 551 0034 530000EA 		b	.L28	@
 552              	.L27:
 358:fat16.cpp     **** 
 359:fat16.cpp     ****     /* we read from the root directory entry */
 360:fat16.cpp     ****     const struct fat16_header_struct* header = &fs->header;
 553              		.loc 1 360 0
 554 0038 14309DE5 		ldr	r3, [sp, #20]	@ tmp156, fs
 555 003c 043083E2 		add	r3, r3, #4	@ tmp157, tmp156,
 556 0040 4C308DE5 		str	r3, [sp, #76]	@ tmp157, header
 361:fat16.cpp     ****     device_read_interval_t device_read_interval = fs->partition->device_read_interval;
 557              		.loc 1 361 0
 558 0044 14309DE5 		ldr	r3, [sp, #20]	@ tmp158, fs
 559 0048 003093E5 		ldr	r3, [r3, #0]	@ D.11778, fs_4(D)->partition
 560 004c 043093E5 		ldr	r3, [r3, #4]	@ tmp159, D.11778_7->device_read_interval
 561 0050 48308DE5 		str	r3, [sp, #72]	@ tmp159, device_read_interval
 362:fat16.cpp     ****     uint8_t buffer[32];
 363:fat16.cpp     **** 
 364:fat16.cpp     ****     /* seek to the n-th entry */
 365:fat16.cpp     ****     struct fat16_read_callback_arg arg;
 366:fat16.cpp     ****     memset(&arg, 0, sizeof(arg));
 562              		.loc 1 366 0
 563 0054 3C308DE2 		add	r3, sp, #60	@ tmp160,,
 564 0058 0300A0E1 		mov	r0, r3	@, tmp160
 565 005c 0010A0E3 		mov	r1, #0	@,
 566 0060 0C20A0E3 		mov	r2, #12	@,
 567 0064 FEFFFFEB 		bl	memset	@
 367:fat16.cpp     ****     arg.entry_num = entry_num;
 568              		.loc 1 367 0
 569 0068 B231DDE1 		ldrh	r3, [sp, #18]	@ movhi	@ tmp161, entry_num
 570 006c BE33CDE1 		strh	r3, [sp, #62]	@ movhi	@ tmp161, arg.entry_num
 368:fat16.cpp     ****     if(!device_read_interval(header->root_dir_offset,
 369:fat16.cpp     ****         buffer,
 370:fat16.cpp     ****        sizeof(buffer),
 371:fat16.cpp     ****        header->cluster_zero_offset - header->root_dir_offset,
 372:fat16.cpp     ****        fat16_dir_entry_seek_callback,
 373:fat16.cpp     ****        &arg) ||
 571              		.loc 1 373 0
 572 0070 4C309DE5 		ldr	r3, [sp, #76]	@ tmp162, header
 573 0074 101093E5 		ldr	r1, [r3, #16]	@ D.11784, header_6->root_dir_offset
 574 0078 4C309DE5 		ldr	r3, [sp, #76]	@ tmp163, header
 575 007c 143093E5 		ldr	r3, [r3, #20]	@ D.11785, header_6->cluster_zero_offset
 576 0080 0338A0E1 		mov	r3, r3, asl #16	@ tmp164, D.11785,
 577 0084 2328A0E1 		mov	r2, r3, lsr #16	@ D.11786, tmp164,
 578 0088 4C309DE5 		ldr	r3, [sp, #76]	@ tmp165, header
ARM GAS  /tmp/ccwDRvq0.s 			page 18


 579 008c 103093E5 		ldr	r3, [r3, #16]	@ D.11787, header_6->root_dir_offset
 580 0090 0338A0E1 		mov	r3, r3, asl #16	@ tmp166, D.11787,
 581 0094 2338A0E1 		mov	r3, r3, lsr #16	@ D.11788, tmp166,
 582 0098 023063E0 		rsb	r3, r3, r2	@ tmp167, D.11788, D.11786
 583 009c 0338A0E1 		mov	r3, r3, asl #16	@ tmp168, tmp167,
 584 00a0 2338A0E1 		mov	r3, r3, lsr #16	@ D.11789, tmp168,
 585 00a4 1C208DE2 		add	r2, sp, #28	@ tmp169,,
 586 00a8 E8009FE5 		ldr	r0, .L36	@ tmp170,
 587 00ac 00008DE5 		str	r0, [sp, #0]	@ tmp170,
 588 00b0 3C008DE2 		add	r0, sp, #60	@ tmp171,,
 589 00b4 04008DE5 		str	r0, [sp, #4]	@ tmp171,
 590 00b8 48C09DE5 		ldr	ip, [sp, #72]	@ tmp172, device_read_interval
 591 00bc 0100A0E1 		mov	r0, r1	@, D.11784
 592 00c0 0210A0E1 		mov	r1, r2	@, tmp169
 593 00c4 2020A0E3 		mov	r2, #32	@,
 594 00c8 0FE0A0E1 		mov	lr, pc
 595 00cc 1CFF2FE1 		bx	ip	@ tmp172
 596 00d0 0030A0E1 		mov	r3, r0	@ tmp173,
 368:fat16.cpp     ****     if(!device_read_interval(header->root_dir_offset,
 597              		.loc 1 368 0
 598 00d4 000053E3 		cmp	r3, #0	@ D.11790,
 599 00d8 0200000A 		beq	.L29	@,
 368:fat16.cpp     ****     if(!device_read_interval(header->root_dir_offset,
 600              		.loc 1 368 0 is_stmt 0 discriminator 2
 601 00dc 40309DE5 		ldr	r3, [sp, #64]	@ D.11792, arg.entry_offset
 602 00e0 000053E3 		cmp	r3, #0	@ D.11792,
 603 00e4 0100001A 		bne	.L30	@,
 604              	.L29:
 368:fat16.cpp     ****     if(!device_read_interval(header->root_dir_offset,
 605              		.loc 1 368 0 discriminator 1
 606 00e8 0130A0E3 		mov	r3, #1	@ iftmp.41,
 607 00ec 000000EA 		b	.L31	@
 608              	.L30:
 368:fat16.cpp     ****     if(!device_read_interval(header->root_dir_offset,
 609              		.loc 1 368 0 discriminator 3
 610 00f0 0030A0E3 		mov	r3, #0	@ iftmp.41,
 611              	.L31:
 368:fat16.cpp     ****     if(!device_read_interval(header->root_dir_offset,
 612              		.loc 1 368 0 discriminator 4
 613 00f4 000053E3 		cmp	r3, #0	@ retval.40,
 614 00f8 0100000A 		beq	.L32	@,
 374:fat16.cpp     ****        arg.entry_offset == 0
 375:fat16.cpp     ****        )
 376:fat16.cpp     ****     return 0;
 615              		.loc 1 376 0 is_stmt 1
 616 00fc 0030A0E3 		mov	r3, #0	@ D.11777,
 617 0100 200000EA 		b	.L28	@
 618              	.L32:
 377:fat16.cpp     **** 
 378:fat16.cpp     ****     /* read entry */
 379:fat16.cpp     ****     memset(dir_entry, 0, sizeof(*dir_entry));
 619              		.loc 1 379 0
 620 0104 0C009DE5 		ldr	r0, [sp, #12]	@, dir_entry
 621 0108 0010A0E3 		mov	r1, #0	@,
 622 010c 2C20A0E3 		mov	r2, #44	@,
 623 0110 FEFFFFEB 		bl	memset	@
 380:fat16.cpp     ****     if(!device_read_interval(arg.entry_offset,
ARM GAS  /tmp/ccwDRvq0.s 			page 19


 381:fat16.cpp     ****         buffer,
 382:fat16.cpp     ****        sizeof(buffer),
 383:fat16.cpp     ****        arg.byte_count,
 384:fat16.cpp     ****        fat16_dir_entry_read_callback,
 385:fat16.cpp     ****        dir_entry))
 624              		.loc 1 385 0
 625 0114 40109DE5 		ldr	r1, [sp, #64]	@ D.11796, arg.entry_offset
 626 0118 4430DDE5 		ldrb	r3, [sp, #68]	@ zero_extendqisi2	@ D.11797, arg.byte_count
 627 011c 1C208DE2 		add	r2, sp, #28	@ tmp174,,
 628 0120 74009FE5 		ldr	r0, .L36+4	@ tmp175,
 629 0124 00008DE5 		str	r0, [sp, #0]	@ tmp175,
 630 0128 0C009DE5 		ldr	r0, [sp, #12]	@ tmp176, dir_entry
 631 012c 04008DE5 		str	r0, [sp, #4]	@ tmp176,
 632 0130 48C09DE5 		ldr	ip, [sp, #72]	@ tmp177, device_read_interval
 633 0134 0100A0E1 		mov	r0, r1	@, D.11796
 634 0138 0210A0E1 		mov	r1, r2	@, tmp174
 635 013c 2020A0E3 		mov	r2, #32	@,
 636 0140 0FE0A0E1 		mov	lr, pc
 637 0144 1CFF2FE1 		bx	ip	@ tmp177
 638 0148 0030A0E1 		mov	r3, r0	@ tmp178,
 380:fat16.cpp     ****     if(!device_read_interval(arg.entry_offset,
 639              		.loc 1 380 0
 640 014c 000053E3 		cmp	r3, #0	@ D.11799,
 641 0150 0030A013 		movne	r3, #0	@, tmp180
 642 0154 0130A003 		moveq	r3, #1	@, tmp180
 643 0158 FF3003E2 		and	r3, r3, #255	@ retval.42, tmp179,
 644 015c 000053E3 		cmp	r3, #0	@ retval.42,
 645 0160 0100000A 		beq	.L33	@,
 386:fat16.cpp     ****     return 0;
 646              		.loc 1 386 0
 647 0164 0030A0E3 		mov	r3, #0	@ D.11777,
 648 0168 060000EA 		b	.L28	@
 649              	.L33:
 387:fat16.cpp     **** 
 388:fat16.cpp     ****     return dir_entry->long_name[0] != '\0' ? 1 : 0;
 650              		.loc 1 388 0
 651 016c 0C309DE5 		ldr	r3, [sp, #12]	@ tmp181, dir_entry
 652 0170 0030D3E5 		ldrb	r3, [r3, #0]	@ zero_extendqisi2	@ D.11803, dir_entry_5(D)->long_name
 653 0174 000053E3 		cmp	r3, #0	@ D.11803,
 654 0178 0100000A 		beq	.L34	@,
 655              		.loc 1 388 0 is_stmt 0 discriminator 1
 656 017c 0130A0E3 		mov	r3, #1	@ iftmp.43,
 657 0180 000000EA 		b	.L35	@
 658              	.L34:
 659              		.loc 1 388 0 discriminator 2
 660 0184 0030A0E3 		mov	r3, #0	@ iftmp.43,
 661              	.L35:
 662              	.L28:
 663              	.LBE4:
 389:fat16.cpp     **** }
 664              		.loc 1 389 0 is_stmt 1
 665 0188 0300A0E1 		mov	r0, r3	@, <retval>
 666 018c 54D08DE2 		add	sp, sp, #84	@,,
 667 0190 04E09DE4 		ldr	lr, [sp], #4
 668 0194 1EFF2FE1 		bx	lr
 669              	.L37:
 670              		.align	2
ARM GAS  /tmp/ccwDRvq0.s 			page 20


 671              	.L36:
 672 0198 00000000 		.word	_ZL29fat16_dir_entry_seek_callbackPhmPv
 673 019c 00000000 		.word	_ZL29fat16_dir_entry_read_callbackPhmPv
 674              		.cfi_endproc
 675              	.LFE112:
 676              		.size	_ZL25fat16_read_root_dir_entryPK15fat16_fs_structtP22fat16_dir_entry_struct, .-_ZL25fat16_re
 677              		.section	.text._ZL24fat16_read_sub_dir_entryPK15fat16_fs_structtPK22fat16_dir_entry_structPS2_,"ax
 678              		.align	2
 679              		.type	_ZL24fat16_read_sub_dir_entryPK15fat16_fs_structtPK22fat16_dir_entry_structPS2_, %function
 680              	_ZL24fat16_read_sub_dir_entryPK15fat16_fs_structtPK22fat16_dir_entry_structPS2_:
 681              	.LFB113:
 390:fat16.cpp     **** 
 391:fat16.cpp     **** /**
 392:fat16.cpp     ****  * \ingroup fat16_fs
 393:fat16.cpp     ****  * Reads a directory entry of a given parent directory.
 394:fat16.cpp     ****  *
 395:fat16.cpp     ****  * \param[in] fs Descriptor of file system to use.
 396:fat16.cpp     ****  * \param[in] entry_num The index of the directory entry to read.
 397:fat16.cpp     ****  * \param[in] parent Directory entry descriptor in which to read directory entry.
 398:fat16.cpp     ****  * \param[out] dir_entry Directory entry descriptor which will get filled.
 399:fat16.cpp     ****  * \returns 0 on failure, 1 on success
 400:fat16.cpp     ****  * \see fat16_read_root_dir_entry, fat16_read_dir_entry_by_path
 401:fat16.cpp     ****  */
 402:fat16.cpp     **** uint8_t fat16_read_sub_dir_entry(const struct fat16_fs_struct* fs, uint16_t entry_num, const struct
 403:fat16.cpp     **** {
 682              		.loc 1 403 0
 683              		.cfi_startproc
 684              		@ Function supports interworking.
 685              		@ args = 0, pretend = 0, frame = 72
 686              		@ frame_needed = 0, uses_anonymous_args = 0
 687 0000 04E02DE5 		str	lr, [sp, #-4]!	@,
 688              	.LCFI8:
 689              		.cfi_def_cfa_offset 4
 690 0004 54D04DE2 		sub	sp, sp, #84	@,,
 691              	.LCFI9:
 692              		.cfi_def_cfa_offset 88
 693 0008 14008DE5 		str	r0, [sp, #20]	@ fs, fs
 694 000c 0C208DE5 		str	r2, [sp, #12]	@ parent, parent
 695 0010 08308DE5 		str	r3, [sp, #8]	@ dir_entry, dir_entry
 696 0014 B211CDE1 		strh	r1, [sp, #18]	@ movhi	@ tmp159, entry_num
 697              	.LBB5:
 404:fat16.cpp     ****     if(!fs || !parent || !dir_entry)
 698              		.loc 1 404 0
 699 0018 14309DE5 		ldr	r3, [sp, #20]	@ tmp160, fs
 700 001c 000053E3 		cmp	r3, #0	@ tmp160,
 701 0020 0500000A 		beq	.L39	@,
 702              		.cfi_offset 14, -4
 703              		.loc 1 404 0 is_stmt 0 discriminator 1
 704 0024 0C309DE5 		ldr	r3, [sp, #12]	@ tmp161, parent
 705 0028 000053E3 		cmp	r3, #0	@ tmp161,
 706 002c 0200000A 		beq	.L39	@,
 707              		.loc 1 404 0 discriminator 2
 708 0030 08309DE5 		ldr	r3, [sp, #8]	@ tmp162, dir_entry
 709 0034 000053E3 		cmp	r3, #0	@ tmp162,
 710 0038 0100001A 		bne	.L40	@,
 711              	.L39:
 405:fat16.cpp     ****         return 0;
ARM GAS  /tmp/ccwDRvq0.s 			page 21


 712              		.loc 1 405 0 is_stmt 1
 713 003c 0030A0E3 		mov	r3, #0	@ D.11732,
 714 0040 6A0000EA 		b	.L41	@
 715              	.L40:
 406:fat16.cpp     **** 
 407:fat16.cpp     ****     /* we are in a parent directory and want to search within its directory entry table */
 408:fat16.cpp     ****     if(!(parent->attributes & FAT16_ATTRIB_DIR))
 716              		.loc 1 408 0
 717 0044 0C309DE5 		ldr	r3, [sp, #12]	@ tmp163, parent
 718 0048 2030D3E5 		ldrb	r3, [r3, #32]	@ zero_extendqisi2	@ D.11733, parent_5(D)->attributes
 719 004c 103003E2 		and	r3, r3, #16	@ D.11735, D.11734,
 720 0050 000053E3 		cmp	r3, #0	@ D.11735,
 721 0054 0100001A 		bne	.L42	@,
 409:fat16.cpp     ****         return 0;
 722              		.loc 1 409 0
 723 0058 0030A0E3 		mov	r3, #0	@ D.11732,
 724 005c 630000EA 		b	.L41	@
 725              	.L42:
 410:fat16.cpp     **** 
 411:fat16.cpp     ****     /* loop through all clusters of the directory */
 412:fat16.cpp     ****     uint8_t buffer[32];
 413:fat16.cpp     ****     uint32_t cluster_offset;
 414:fat16.cpp     ****     uint16_t cluster_size = fs->header.cluster_size;
 726              		.loc 1 414 0
 727 0060 14309DE5 		ldr	r3, [sp, #20]	@ tmp164, fs
 728 0064 B231D3E1 		ldrh	r3, [r3, #18]	@ movhi	@ tmp165, fs_4(D)->header.cluster_size
 729 0068 BC34CDE1 		strh	r3, [sp, #76]	@ movhi	@ tmp165, cluster_size
 415:fat16.cpp     ****     uint16_t cluster_num = parent->cluster;
 730              		.loc 1 415 0
 731 006c 0C309DE5 		ldr	r3, [sp, #12]	@ tmp166, parent
 732 0070 B232D3E1 		ldrh	r3, [r3, #34]	@ movhi	@ tmp167, parent_5(D)->cluster
 733 0074 BE34CDE1 		strh	r3, [sp, #78]	@ movhi	@ tmp167, cluster_num
 734 0078 000000EA 		b	.L48	@
 735              	.L52:
 416:fat16.cpp     ****     struct fat16_read_callback_arg arg;
 417:fat16.cpp     **** 
 418:fat16.cpp     ****     while(1)
 736              		.loc 1 418 0
 737 007c 0000A0E1 		mov	r0, r0	@ nop
 738              	.L48:
 419:fat16.cpp     ****     {
 420:fat16.cpp     ****         /* calculate new cluster offset */
 421:fat16.cpp     ****         cluster_offset = fs->header.cluster_zero_offset + (uint32_t) (cluster_num - 2) * cluster_si
 739              		.loc 1 421 0
 740 0080 14309DE5 		ldr	r3, [sp, #20]	@ tmp168, fs
 741 0084 182093E5 		ldr	r2, [r3, #24]	@ D.11741, fs_4(D)->header.cluster_zero_offset
 742 0088 BE34DDE1 		ldrh	r3, [sp, #78]	@ D.11742, cluster_num
 743 008c 023043E2 		sub	r3, r3, #2	@ D.11743, D.11742,
 744 0090 BC14DDE1 		ldrh	r1, [sp, #76]	@ D.11745, cluster_size
 745 0094 910303E0 		mul	r3, r1, r3	@ D.11746, D.11745, D.11744
 746 0098 033082E0 		add	r3, r2, r3	@ tmp169, D.11741, D.11746
 747 009c 48308DE5 		str	r3, [sp, #72]	@ tmp169, cluster_offset
 422:fat16.cpp     **** 
 423:fat16.cpp     ****         /* seek to the n-th entry */
 424:fat16.cpp     ****         memset(&arg, 0, sizeof(arg));
 748              		.loc 1 424 0
 749 00a0 3C308DE2 		add	r3, sp, #60	@ tmp170,,
ARM GAS  /tmp/ccwDRvq0.s 			page 22


 750 00a4 0300A0E1 		mov	r0, r3	@, tmp170
 751 00a8 0010A0E3 		mov	r1, #0	@,
 752 00ac 0C20A0E3 		mov	r2, #12	@,
 753 00b0 FEFFFFEB 		bl	memset	@
 425:fat16.cpp     ****         arg.entry_num = entry_num;
 754              		.loc 1 425 0
 755 00b4 B231DDE1 		ldrh	r3, [sp, #18]	@ movhi	@ tmp171, entry_num
 756 00b8 BE33CDE1 		strh	r3, [sp, #62]	@ movhi	@ tmp171, arg.entry_num
 426:fat16.cpp     ****         if(!fs->partition->device_read_interval(cluster_offset,
 427:fat16.cpp     ****             buffer,
 428:fat16.cpp     ****            sizeof(buffer),
 429:fat16.cpp     ****            cluster_size,
 430:fat16.cpp     ****            fat16_dir_entry_seek_callback,
 431:fat16.cpp     ****            &arg)
 757              		.loc 1 431 0
 758 00bc 14309DE5 		ldr	r3, [sp, #20]	@ tmp172, fs
 759 00c0 003093E5 		ldr	r3, [r3, #0]	@ D.11748, fs_4(D)->partition
 760 00c4 04C093E5 		ldr	ip, [r3, #4]	@ D.11749, D.11748_21->device_read_interval
 761 00c8 1C208DE2 		add	r2, sp, #28	@ tmp173,,
 762 00cc BC34DDE1 		ldrh	r3, [sp, #76]	@ tmp174, cluster_size
 763 00d0 28119FE5 		ldr	r1, .L53	@ tmp175,
 764 00d4 00108DE5 		str	r1, [sp, #0]	@ tmp175,
 765 00d8 3C108DE2 		add	r1, sp, #60	@ tmp176,,
 766 00dc 04108DE5 		str	r1, [sp, #4]	@ tmp176,
 767 00e0 48009DE5 		ldr	r0, [sp, #72]	@, cluster_offset
 768 00e4 0210A0E1 		mov	r1, r2	@, tmp173
 769 00e8 2020A0E3 		mov	r2, #32	@,
 770 00ec 0FE0A0E1 		mov	lr, pc
 771 00f0 1CFF2FE1 		bx	ip	@ D.11749
 772 00f4 0030A0E1 		mov	r3, r0	@ tmp177,
 426:fat16.cpp     ****         if(!fs->partition->device_read_interval(cluster_offset,
 773              		.loc 1 426 0
 774 00f8 000053E3 		cmp	r3, #0	@ D.11750,
 775 00fc 0030A013 		movne	r3, #0	@, tmp179
 776 0100 0130A003 		moveq	r3, #1	@, tmp179
 777 0104 FF3003E2 		and	r3, r3, #255	@ retval.36, tmp178,
 778 0108 000053E3 		cmp	r3, #0	@ retval.36,
 779 010c 0100000A 		beq	.L43	@,
 432:fat16.cpp     ****            )
 433:fat16.cpp     ****         return 0;
 780              		.loc 1 433 0
 781 0110 0030A0E3 		mov	r3, #0	@ D.11732,
 782 0114 350000EA 		b	.L41	@
 783              	.L43:
 434:fat16.cpp     **** 
 435:fat16.cpp     ****         /* check if we found the entry */
 436:fat16.cpp     ****         if(arg.entry_offset)
 784              		.loc 1 436 0
 785 0118 40309DE5 		ldr	r3, [sp, #64]	@ D.11753, arg.entry_offset
 786 011c 000053E3 		cmp	r3, #0	@ D.11753,
 787 0120 1A00000A 		beq	.L44	@,
 437:fat16.cpp     ****             break;
 438:fat16.cpp     **** 
 439:fat16.cpp     ****         /* get number of next cluster */
 440:fat16.cpp     ****         if(!(cluster_num = fat16_get_next_cluster(fs, cluster_num)))
 441:fat16.cpp     ****             return 0; /* directory entry not found */
 442:fat16.cpp     ****     }
ARM GAS  /tmp/ccwDRvq0.s 			page 23


 443:fat16.cpp     **** 
 444:fat16.cpp     ****     memset(dir_entry, 0, sizeof(*dir_entry));
 788              		.loc 1 444 0
 789 0124 08009DE5 		ldr	r0, [sp, #8]	@, dir_entry
 790 0128 0010A0E3 		mov	r1, #0	@,
 791 012c 2C20A0E3 		mov	r2, #44	@,
 792 0130 FEFFFFEB 		bl	memset	@
 445:fat16.cpp     **** 
 446:fat16.cpp     ****     /* read entry */
 447:fat16.cpp     ****     if(!fs->partition->device_read_interval(arg.entry_offset,
 448:fat16.cpp     ****         buffer,
 449:fat16.cpp     ****        sizeof(buffer),
 450:fat16.cpp     ****        arg.byte_count,
 451:fat16.cpp     ****        fat16_dir_entry_read_callback,
 452:fat16.cpp     ****        dir_entry))
 793              		.loc 1 452 0
 794 0134 14309DE5 		ldr	r3, [sp, #20]	@ tmp180, fs
 795 0138 003093E5 		ldr	r3, [r3, #0]	@ D.11760, fs_4(D)->partition
 796 013c 04C093E5 		ldr	ip, [r3, #4]	@ D.11761, D.11760_27->device_read_interval
 797 0140 40109DE5 		ldr	r1, [sp, #64]	@ D.11762, arg.entry_offset
 798 0144 4430DDE5 		ldrb	r3, [sp, #68]	@ zero_extendqisi2	@ D.11763, arg.byte_count
 799 0148 1C208DE2 		add	r2, sp, #28	@ tmp181,,
 800 014c B0009FE5 		ldr	r0, .L53+4	@ tmp182,
 801 0150 00008DE5 		str	r0, [sp, #0]	@ tmp182,
 802 0154 08009DE5 		ldr	r0, [sp, #8]	@ tmp183, dir_entry
 803 0158 04008DE5 		str	r0, [sp, #4]	@ tmp183,
 804 015c 0100A0E1 		mov	r0, r1	@, D.11762
 805 0160 0210A0E1 		mov	r1, r2	@, tmp181
 806 0164 2020A0E3 		mov	r2, #32	@,
 807 0168 0FE0A0E1 		mov	lr, pc
 808 016c 1CFF2FE1 		bx	ip	@ D.11761
 809 0170 0030A0E1 		mov	r3, r0	@ tmp184,
 447:fat16.cpp     ****     if(!fs->partition->device_read_interval(arg.entry_offset,
 810              		.loc 1 447 0
 811 0174 000053E3 		cmp	r3, #0	@ D.11765,
 812 0178 0030A013 		movne	r3, #0	@, tmp186
 813 017c 0130A003 		moveq	r3, #1	@, tmp186
 814 0180 FF3003E2 		and	r3, r3, #255	@ retval.38, tmp185,
 815 0184 000053E3 		cmp	r3, #0	@ retval.38,
 816 0188 0F00001A 		bne	.L45	@,
 817 018c 100000EA 		b	.L51	@
 818              	.L44:
 440:fat16.cpp     ****         if(!(cluster_num = fat16_get_next_cluster(fs, cluster_num)))
 819              		.loc 1 440 0
 820 0190 BE34DDE1 		ldrh	r3, [sp, #78]	@ tmp187, cluster_num
 821 0194 14009DE5 		ldr	r0, [sp, #20]	@, fs
 822 0198 0310A0E1 		mov	r1, r3	@, tmp187
 823 019c FEFFFFEB 		bl	_ZL22fat16_get_next_clusterPK15fat16_fs_structt	@
 824 01a0 0030A0E1 		mov	r3, r0	@ tmp188,
 825 01a4 BE34CDE1 		strh	r3, [sp, #78]	@ movhi	@ tmp188, cluster_num
 826 01a8 BE34DDE1 		ldrh	r3, [sp, #78]	@ tmp190, cluster_num
 827 01ac 000053E3 		cmp	r3, #0	@ tmp190,
 828 01b0 0030A013 		movne	r3, #0	@, tmp191
 829 01b4 0130A003 		moveq	r3, #1	@, tmp191
 830 01b8 FF3003E2 		and	r3, r3, #255	@ retval.37, tmp189,
 831 01bc 000053E3 		cmp	r3, #0	@ retval.37,
 832 01c0 ADFFFF0A 		beq	.L52	@,
ARM GAS  /tmp/ccwDRvq0.s 			page 24


 441:fat16.cpp     ****             return 0; /* directory entry not found */
 833              		.loc 1 441 0
 834 01c4 0030A0E3 		mov	r3, #0	@ D.11732,
 835 01c8 080000EA 		b	.L41	@
 836              	.L45:
 453:fat16.cpp     ****     return 0;
 837              		.loc 1 453 0
 838 01cc 0030A0E3 		mov	r3, #0	@ D.11732,
 839 01d0 060000EA 		b	.L41	@
 840              	.L51:
 454:fat16.cpp     **** 
 455:fat16.cpp     ****     return dir_entry->long_name[0] != '\0' ? 1 : 0;
 841              		.loc 1 455 0
 842 01d4 08309DE5 		ldr	r3, [sp, #8]	@ tmp192, dir_entry
 843 01d8 0030D3E5 		ldrb	r3, [r3, #0]	@ zero_extendqisi2	@ D.11769, dir_entry_6(D)->long_name
 844 01dc 000053E3 		cmp	r3, #0	@ D.11769,
 845 01e0 0100000A 		beq	.L49	@,
 846              		.loc 1 455 0 is_stmt 0 discriminator 1
 847 01e4 0130A0E3 		mov	r3, #1	@ iftmp.39,
 848 01e8 000000EA 		b	.L50	@
 849              	.L49:
 850              		.loc 1 455 0 discriminator 2
 851 01ec 0030A0E3 		mov	r3, #0	@ iftmp.39,
 852              	.L50:
 853              	.L41:
 854              	.LBE5:
 456:fat16.cpp     **** }
 855              		.loc 1 456 0 is_stmt 1
 856 01f0 0300A0E1 		mov	r0, r3	@, <retval>
 857 01f4 54D08DE2 		add	sp, sp, #84	@,,
 858 01f8 04E09DE4 		ldr	lr, [sp], #4
 859 01fc 1EFF2FE1 		bx	lr
 860              	.L54:
 861              		.align	2
 862              	.L53:
 863 0200 00000000 		.word	_ZL29fat16_dir_entry_seek_callbackPhmPv
 864 0204 00000000 		.word	_ZL29fat16_dir_entry_read_callbackPhmPv
 865              		.cfi_endproc
 866              	.LFE113:
 867              		.size	_ZL24fat16_read_sub_dir_entryPK15fat16_fs_structtPK22fat16_dir_entry_structPS2_, .-_ZL24fat1
 868              		.section	.text._ZL29fat16_dir_entry_seek_callbackPhmPv,"ax",%progbits
 869              		.align	2
 870              		.type	_ZL29fat16_dir_entry_seek_callbackPhmPv, %function
 871              	_ZL29fat16_dir_entry_seek_callbackPhmPv:
 872              	.LFB114:
 457:fat16.cpp     **** 
 458:fat16.cpp     **** /**
 459:fat16.cpp     ****  * \ingroup fat16_fs
 460:fat16.cpp     ****  * Callback function for seeking through subdirectory entries.
 461:fat16.cpp     ****  */
 462:fat16.cpp     **** uint8_t fat16_dir_entry_seek_callback(uint8_t* buffer, uint32_t offset, void* p)
 463:fat16.cpp     **** {
 873              		.loc 1 463 0
 874              		.cfi_startproc
 875              		@ Function supports interworking.
 876              		@ args = 0, pretend = 0, frame = 24
 877              		@ frame_needed = 0, uses_anonymous_args = 0
ARM GAS  /tmp/ccwDRvq0.s 			page 25


 878              		@ link register save eliminated.
 879 0000 18D04DE2 		sub	sp, sp, #24	@,,
 880              	.LCFI10:
 881              		.cfi_def_cfa_offset 24
 882 0004 0C008DE5 		str	r0, [sp, #12]	@ buffer, buffer
 883 0008 08108DE5 		str	r1, [sp, #8]	@ offset, offset
 884 000c 04208DE5 		str	r2, [sp, #4]	@ p, p
 885              	.LBB6:
 464:fat16.cpp     ****     struct fat16_read_callback_arg* arg = (fat16_read_callback_arg*)p;
 886              		.loc 1 464 0
 887 0010 04309DE5 		ldr	r3, [sp, #4]	@ tmp151, p
 888 0014 14308DE5 		str	r3, [sp, #20]	@ tmp151, arg
 465:fat16.cpp     **** 
 466:fat16.cpp     ****     /* skip deleted or empty entries */
 467:fat16.cpp     ****     if(buffer[0] == FAT16_DIRENTRY_DELETED || !buffer[0])
 889              		.loc 1 467 0
 890 0018 0C309DE5 		ldr	r3, [sp, #12]	@ tmp152, buffer
 891 001c 0030D3E5 		ldrb	r3, [r3, #0]	@ zero_extendqisi2	@ D.11701,
 892 0020 E50053E3 		cmp	r3, #229	@ D.11701,
 893 0024 0300000A 		beq	.L56	@,
 894              		.loc 1 467 0 is_stmt 0 discriminator 1
 895 0028 0C309DE5 		ldr	r3, [sp, #12]	@ tmp153, buffer
 896 002c 0030D3E5 		ldrb	r3, [r3, #0]	@ zero_extendqisi2	@ D.11703,
 897 0030 000053E3 		cmp	r3, #0	@ D.11703,
 898 0034 0100001A 		bne	.L57	@,
 899              	.L56:
 468:fat16.cpp     ****         return 1;
 900              		.loc 1 468 0 is_stmt 1
 901 0038 0130A0E3 		mov	r3, #1	@ D.11704,
 902 003c 270000EA 		b	.L58	@
 903              	.L57:
 469:fat16.cpp     **** 
 470:fat16.cpp     ****     if(arg->entry_cur == arg->entry_num)
 904              		.loc 1 470 0
 905 0040 14309DE5 		ldr	r3, [sp, #20]	@ tmp154, arg
 906 0044 B020D3E1 		ldrh	r2, [r3, #0]	@ D.11705, arg_4->entry_cur
 907 0048 14309DE5 		ldr	r3, [sp, #20]	@ tmp155, arg
 908 004c B230D3E1 		ldrh	r3, [r3, #2]	@ D.11706, arg_4->entry_num
 909 0050 030052E1 		cmp	r2, r3	@ D.11705, D.11706
 910 0054 1400001A 		bne	.L59	@,
 471:fat16.cpp     ****     {
 472:fat16.cpp     ****         arg->entry_offset = offset;
 911              		.loc 1 472 0
 912 0058 14309DE5 		ldr	r3, [sp, #20]	@ tmp156, arg
 913 005c 08209DE5 		ldr	r2, [sp, #8]	@ tmp157, offset
 914 0060 042083E5 		str	r2, [r3, #4]	@ tmp157, arg_4->entry_offset
 473:fat16.cpp     ****         arg->byte_count = buffer[11] == 0x0f ?
 915              		.loc 1 473 0
 916 0064 0C309DE5 		ldr	r3, [sp, #12]	@ tmp158, buffer
 917 0068 0B3083E2 		add	r3, r3, #11	@ D.11710, tmp158,
 918 006c 0030D3E5 		ldrb	r3, [r3, #0]	@ zero_extendqisi2	@ D.11711,* D.11710
 474:fat16.cpp     ****         ((buffer[0] & FAT16_DIRENTRY_LFNSEQMASK) + 1) * 32 :
 475:fat16.cpp     ****         32;
 919              		.loc 1 475 0
 920 0070 0F0053E3 		cmp	r3, #15	@ D.11711,
 921 0074 0700001A 		bne	.L60	@,
 474:fat16.cpp     ****         ((buffer[0] & FAT16_DIRENTRY_LFNSEQMASK) + 1) * 32 :
ARM GAS  /tmp/ccwDRvq0.s 			page 26


 922              		.loc 1 474 0
 923 0078 0C309DE5 		ldr	r3, [sp, #12]	@ tmp159, buffer
 924 007c 0030D3E5 		ldrb	r3, [r3, #0]	@ zero_extendqisi2	@ D.11714,
 925              		.loc 1 475 0
 926 0080 3F3003E2 		and	r3, r3, #63	@ D.11716, D.11715,
 927 0084 013083E2 		add	r3, r3, #1	@ D.11717, D.11716,
 928 0088 FF3003E2 		and	r3, r3, #255	@ D.11718, D.11717,
 929 008c 8332A0E1 		mov	r3, r3, asl #5	@ tmp160, D.11718,
 930 0090 FF3003E2 		and	r3, r3, #255	@ iftmp.35, tmp160,
 931 0094 000000EA 		b	.L61	@
 932              	.L60:
 933              		.loc 1 475 0 is_stmt 0 discriminator 1
 934 0098 2030A0E3 		mov	r3, #32	@ iftmp.35,
 935              	.L61:
 936              		.loc 1 475 0 discriminator 2
 937 009c 14209DE5 		ldr	r2, [sp, #20]	@ tmp161, arg
 938 00a0 0830C2E5 		strb	r3, [r2, #8]	@ tmp162, arg_4->byte_count
 476:fat16.cpp     ****         return 0;
 939              		.loc 1 476 0 is_stmt 1 discriminator 2
 940 00a4 0030A0E3 		mov	r3, #0	@ D.11704,
 941 00a8 0C0000EA 		b	.L58	@
 942              	.L59:
 477:fat16.cpp     ****     }
 478:fat16.cpp     **** 
 479:fat16.cpp     ****     /* if we read a 8.3 entry, we reached a new directory entry */
 480:fat16.cpp     ****     if(buffer[11] != 0x0f)
 943              		.loc 1 480 0
 944 00ac 0C309DE5 		ldr	r3, [sp, #12]	@ tmp163, buffer
 945 00b0 0B3083E2 		add	r3, r3, #11	@ D.11720, tmp163,
 946 00b4 0030D3E5 		ldrb	r3, [r3, #0]	@ zero_extendqisi2	@ D.11721,* D.11720
 947 00b8 0F0053E3 		cmp	r3, #15	@ D.11721,
 948 00bc 0600000A 		beq	.L62	@,
 481:fat16.cpp     ****         ++arg->entry_cur;
 949              		.loc 1 481 0
 950 00c0 14309DE5 		ldr	r3, [sp, #20]	@ tmp164, arg
 951 00c4 B030D3E1 		ldrh	r3, [r3, #0]	@ D.11724, arg_4->entry_cur
 952 00c8 013083E2 		add	r3, r3, #1	@ tmp165, D.11724,
 953 00cc 0338A0E1 		mov	r3, r3, asl #16	@ tmp166, tmp165,
 954 00d0 2328A0E1 		mov	r2, r3, lsr #16	@ D.11725, tmp166,
 955 00d4 14309DE5 		ldr	r3, [sp, #20]	@ tmp167, arg
 956 00d8 B020C3E1 		strh	r2, [r3, #0]	@ movhi	@ D.11725, arg_4->entry_cur
 957              	.L62:
 482:fat16.cpp     **** 
 483:fat16.cpp     ****     return 1;
 958              		.loc 1 483 0
 959 00dc 0130A0E3 		mov	r3, #1	@ D.11704,
 960              	.L58:
 961              	.LBE6:
 484:fat16.cpp     **** }
 962              		.loc 1 484 0
 963 00e0 0300A0E1 		mov	r0, r3	@, <retval>
 964 00e4 18D08DE2 		add	sp, sp, #24	@,,
 965 00e8 1EFF2FE1 		bx	lr
 966              		.cfi_endproc
 967              	.LFE114:
 968              		.size	_ZL29fat16_dir_entry_seek_callbackPhmPv, .-_ZL29fat16_dir_entry_seek_callbackPhmPv
 969              		.section	.text._ZL29fat16_dir_entry_read_callbackPhmPv,"ax",%progbits
ARM GAS  /tmp/ccwDRvq0.s 			page 27


 970              		.align	2
 971              		.type	_ZL29fat16_dir_entry_read_callbackPhmPv, %function
 972              	_ZL29fat16_dir_entry_read_callbackPhmPv:
 973              	.LFB115:
 485:fat16.cpp     **** 
 486:fat16.cpp     **** /**
 487:fat16.cpp     ****  * \ingroup fat16_fs
 488:fat16.cpp     ****  * Callback function for reading a directory entry.
 489:fat16.cpp     ****  */
 490:fat16.cpp     **** uint8_t fat16_dir_entry_read_callback(uint8_t* buffer, uint32_t offset, void* p)
 491:fat16.cpp     **** {
 974              		.loc 1 491 0
 975              		.cfi_startproc
 976              		@ Function supports interworking.
 977              		@ args = 0, pretend = 0, frame = 24
 978              		@ frame_needed = 0, uses_anonymous_args = 0
 979 0000 04E02DE5 		str	lr, [sp, #-4]!	@,
 980              	.LCFI11:
 981              		.cfi_def_cfa_offset 4
 982 0004 1CD04DE2 		sub	sp, sp, #28	@,,
 983              	.LCFI12:
 984              		.cfi_def_cfa_offset 32
 985 0008 0C008DE5 		str	r0, [sp, #12]	@ buffer, buffer
 986 000c 08108DE5 		str	r1, [sp, #8]	@ offset, offset
 987 0010 04208DE5 		str	r2, [sp, #4]	@ p, p
 988              	.LBB7:
 492:fat16.cpp     ****     struct fat16_dir_entry_struct* dir_entry = (fat16_dir_entry_struct*)p;
 989              		.loc 1 492 0
 990 0014 04309DE5 		ldr	r3, [sp, #4]	@ tmp140, p
 991 0018 14308DE5 		str	r3, [sp, #20]	@ tmp140, dir_entry
 493:fat16.cpp     **** 
 494:fat16.cpp     ****     /* there should not be any deleted or empty entries */
 495:fat16.cpp     ****     if(buffer[0] == FAT16_DIRENTRY_DELETED || !buffer[0])
 992              		.loc 1 495 0
 993 001c 0C309DE5 		ldr	r3, [sp, #12]	@ tmp141, buffer
 994 0020 0030D3E5 		ldrb	r3, [r3, #0]	@ zero_extendqisi2	@ D.11686,
 995 0024 E50053E3 		cmp	r3, #229	@ D.11686,
 996 0028 0300000A 		beq	.L64	@,
 997              		.cfi_offset 14, -4
 998              		.loc 1 495 0 is_stmt 0 discriminator 1
 999 002c 0C309DE5 		ldr	r3, [sp, #12]	@ tmp142, buffer
 1000 0030 0030D3E5 		ldrb	r3, [r3, #0]	@ zero_extendqisi2	@ D.11688,
 1001 0034 000053E3 		cmp	r3, #0	@ D.11688,
 1002 0038 0100001A 		bne	.L65	@,
 1003              	.L64:
 496:fat16.cpp     ****         return 0;
 1004              		.loc 1 496 0 is_stmt 1
 1005 003c 0030A0E3 		mov	r3, #0	@ D.11689,
 1006 0040 170000EA 		b	.L66	@
 1007              	.L65:
 497:fat16.cpp     **** 
 498:fat16.cpp     ****     if(!dir_entry->entry_offset)
 1008              		.loc 1 498 0
 1009 0044 14309DE5 		ldr	r3, [sp, #20]	@ tmp143, dir_entry
 1010 0048 283093E5 		ldr	r3, [r3, #40]	@ D.11690, dir_entry_3->entry_offset
 1011 004c 000053E3 		cmp	r3, #0	@ D.11690,
 1012 0050 0200001A 		bne	.L67	@,
ARM GAS  /tmp/ccwDRvq0.s 			page 28


 499:fat16.cpp     ****         dir_entry->entry_offset = offset;
 1013              		.loc 1 499 0
 1014 0054 14309DE5 		ldr	r3, [sp, #20]	@ tmp144, dir_entry
 1015 0058 08209DE5 		ldr	r2, [sp, #8]	@ tmp145, offset
 1016 005c 282083E5 		str	r2, [r3, #40]	@ tmp145, dir_entry_3->entry_offset
 1017              	.L67:
 500:fat16.cpp     **** 
 501:fat16.cpp     ****     switch(fat16_interpret_dir_entry(dir_entry, buffer))
 1018              		.loc 1 501 0
 1019 0060 14009DE5 		ldr	r0, [sp, #20]	@, dir_entry
 1020 0064 0C109DE5 		ldr	r1, [sp, #12]	@, buffer
 1021 0068 FEFFFFEB 		bl	_ZL25fat16_interpret_dir_entryP22fat16_dir_entry_structPKh	@
 1022 006c 0030A0E1 		mov	r3, r0	@ tmp146,
 1023 0070 010053E3 		cmp	r3, #1	@ retval.34,
 1024 0074 0500000A 		beq	.L70	@,
 1025 0078 020053E3 		cmp	r3, #2	@ retval.34,
 1026 007c 0500000A 		beq	.L71	@,
 1027 0080 000053E3 		cmp	r3, #0	@ retval.34,
 1028 0084 0500001A 		bne	.L72	@,
 1029              	.L69:
 502:fat16.cpp     ****     {
 503:fat16.cpp     ****         case 0: /* failure */
 504:fat16.cpp     ****             return 0;
 1030              		.loc 1 504 0
 1031 0088 0030A0E3 		mov	r3, #0	@ D.11689,
 1032 008c 040000EA 		b	.L66	@
 1033              	.L70:
 505:fat16.cpp     ****             case 1: /* buffer successfully parsed, continue */
 506:fat16.cpp     ****             return 1;
 1034              		.loc 1 506 0
 1035 0090 0130A0E3 		mov	r3, #1	@ D.11689,
 1036 0094 020000EA 		b	.L66	@
 1037              	.L71:
 507:fat16.cpp     ****             case 2: /* directory entry complete, finish */
 508:fat16.cpp     ****             return 0;
 1038              		.loc 1 508 0
 1039 0098 0030A0E3 		mov	r3, #0	@ D.11689,
 1040 009c 000000EA 		b	.L66	@
 1041              	.L72:
 509:fat16.cpp     ****         }
 510:fat16.cpp     **** 
 511:fat16.cpp     ****     return 0;
 1042              		.loc 1 511 0
 1043 00a0 0030A0E3 		mov	r3, #0	@ D.11689,
 1044              	.L66:
 1045              	.LBE7:
 512:fat16.cpp     **** }
 1046              		.loc 1 512 0
 1047 00a4 0300A0E1 		mov	r0, r3	@, <retval>
 1048 00a8 1CD08DE2 		add	sp, sp, #28	@,,
 1049 00ac 04E09DE4 		ldr	lr, [sp], #4
 1050 00b0 1EFF2FE1 		bx	lr
 1051              		.cfi_endproc
 1052              	.LFE115:
 1053              		.size	_ZL29fat16_dir_entry_read_callbackPhmPv, .-_ZL29fat16_dir_entry_read_callbackPhmPv
 1054              		.section	.text._ZL25fat16_interpret_dir_entryP22fat16_dir_entry_structPKh,"ax",%progbits
 1055              		.align	2
ARM GAS  /tmp/ccwDRvq0.s 			page 29


 1056              		.type	_ZL25fat16_interpret_dir_entryP22fat16_dir_entry_structPKh, %function
 1057              	_ZL25fat16_interpret_dir_entryP22fat16_dir_entry_structPKh:
 1058              	.LFB116:
 513:fat16.cpp     **** 
 514:fat16.cpp     **** /**
 515:fat16.cpp     ****  * \ingroup fat16_fs
 516:fat16.cpp     ****  * Interprets a raw directory entry and puts the contained
 517:fat16.cpp     ****  * information into the directory entry.
 518:fat16.cpp     ****  *
 519:fat16.cpp     ****  * For a single file there may exist multiple directory
 520:fat16.cpp     ****  * entries. All except the last one are lfn entries, which
 521:fat16.cpp     ****  * contain parts of the long filename. The last directory
 522:fat16.cpp     ****  * entry is a traditional 8.3 style one. It contains all
 523:fat16.cpp     ****  * other information like size, cluster, date and time.
 524:fat16.cpp     ****  *
 525:fat16.cpp     ****  * \param[in,out] dir_entry The directory entry to fill.
 526:fat16.cpp     ****  * \param[in] raw_entry A pointer to 32 bytes of raw data.
 527:fat16.cpp     ****  * \returns 0 on failure, 1 on success and 2 if the
 528:fat16.cpp     ****  *          directory entry is complete.
 529:fat16.cpp     ****  */
 530:fat16.cpp     **** uint8_t fat16_interpret_dir_entry(struct fat16_dir_entry_struct* dir_entry, const uint8_t* raw_entr
 531:fat16.cpp     **** {
 1059              		.loc 1 531 0
 1060              		.cfi_startproc
 1061              		@ Function supports interworking.
 1062              		@ args = 0, pretend = 0, frame = 24
 1063              		@ frame_needed = 0, uses_anonymous_args = 0
 1064              		@ link register save eliminated.
 1065 0000 18D04DE2 		sub	sp, sp, #24	@,,
 1066              	.LCFI13:
 1067              		.cfi_def_cfa_offset 24
 1068 0004 04008DE5 		str	r0, [sp, #4]	@ dir_entry, dir_entry
 1069 0008 00108DE5 		str	r1, [sp, #0]	@ raw_entry, raw_entry
 1070              	.LBB8:
 532:fat16.cpp     ****     if(!dir_entry || !raw_entry || !raw_entry[0])
 1071              		.loc 1 532 0
 1072 000c 04309DE5 		ldr	r3, [sp, #4]	@ tmp265, dir_entry
 1073 0010 000053E3 		cmp	r3, #0	@ tmp265,
 1074 0014 0600000A 		beq	.L74	@,
 1075              		.loc 1 532 0 is_stmt 0 discriminator 1
 1076 0018 00309DE5 		ldr	r3, [sp, #0]	@ tmp266, raw_entry
 1077 001c 000053E3 		cmp	r3, #0	@ tmp266,
 1078 0020 0300000A 		beq	.L74	@,
 1079              		.loc 1 532 0 discriminator 2
 1080 0024 00309DE5 		ldr	r3, [sp, #0]	@ tmp267, raw_entry
 1081 0028 0030D3E5 		ldrb	r3, [r3, #0]	@ zero_extendqisi2	@ D.11528,
 1082 002c 000053E3 		cmp	r3, #0	@ D.11528,
 1083 0030 0100001A 		bne	.L75	@,
 1084              	.L74:
 533:fat16.cpp     ****         return 0;
 1085              		.loc 1 533 0 is_stmt 1
 1086 0034 0030A0E3 		mov	r3, #0	@ D.11529,
 1087 0038 FE0000EA 		b	.L76	@
 1088              	.L75:
 534:fat16.cpp     **** 
 535:fat16.cpp     ****     char* long_name = dir_entry->long_name;
 1089              		.loc 1 535 0
ARM GAS  /tmp/ccwDRvq0.s 			page 30


 1090 003c 04309DE5 		ldr	r3, [sp, #4]	@ tmp268, dir_entry
 1091 0040 10308DE5 		str	r3, [sp, #16]	@ tmp268, long_name
 1092              	.LBB9:
 536:fat16.cpp     ****     if(raw_entry[11] == 0x0f)
 1093              		.loc 1 536 0
 1094 0044 00309DE5 		ldr	r3, [sp, #0]	@ tmp269, raw_entry
 1095 0048 0B3083E2 		add	r3, r3, #11	@ D.11530, tmp269,
 1096 004c 0030D3E5 		ldrb	r3, [r3, #0]	@ zero_extendqisi2	@ D.11531,* D.11530
 1097 0050 0F0053E3 		cmp	r3, #15	@ D.11531,
 1098 0054 7800001A 		bne	.L77	@,
 1099              	.LBB10:
 537:fat16.cpp     ****     {
 538:fat16.cpp     ****         uint16_t char_offset = ((raw_entry[0] & 0x3f) - 1) * 13;
 1100              		.loc 1 538 0
 1101 0058 00309DE5 		ldr	r3, [sp, #0]	@ tmp270, raw_entry
 1102 005c 0030D3E5 		ldrb	r3, [r3, #0]	@ zero_extendqisi2	@ D.11534,
 1103 0060 3F3003E2 		and	r3, r3, #63	@ D.11536, D.11535,
 1104 0064 013043E2 		sub	r3, r3, #1	@ D.11537, D.11536,
 1105 0068 0338A0E1 		mov	r3, r3, asl #16	@ tmp271, D.11537,
 1106 006c 2338A0E1 		mov	r3, r3, lsr #16	@ D.11538, tmp271,
 1107 0070 0320A0E1 		mov	r2, r3	@ movhi	@ tmp273, tmp272
 1108 0074 8220A0E1 		mov	r2, r2, asl #1	@ tmp274, tmp273,
 1109 0078 032082E0 		add	r2, r2, r3	@ tmp276, tmp275, tmp272
 1110 007c 0221A0E1 		mov	r2, r2, asl #2	@ tmp278, tmp277,
 1111 0080 033082E0 		add	r3, r2, r3	@ tmp280, tmp279, tmp272
 1112 0084 BE30CDE1 		strh	r3, [sp, #14]	@ movhi	@ tmp280, char_offset
 539:fat16.cpp     **** 
 540:fat16.cpp     ****         if(char_offset + 12 < sizeof(dir_entry->long_name))
 1113              		.loc 1 540 0
 1114 0088 BE30DDE1 		ldrh	r3, [sp, #14]	@ D.11539, char_offset
 1115 008c 0C3083E2 		add	r3, r3, #12	@ D.11540, D.11539,
 1116 0090 1F0053E3 		cmp	r3, #31	@ D.11541,
 1117 0094 6600008A 		bhi	.L78	@,
 541:fat16.cpp     ****         {
 542:fat16.cpp     ****             /* Lfn supports unicode, but we do not, for now.
 543:fat16.cpp     ****                                                  * So we assume pure ascii and read only every
 544:fat16.cpp     ****                                                  * second byte.
 545:fat16.cpp     ****                                                  */
 546:fat16.cpp     ****             long_name[char_offset + 0] = raw_entry[1];
 1118              		.loc 1 546 0
 1119 0098 BE30DDE1 		ldrh	r3, [sp, #14]	@ D.11544, char_offset
 1120 009c 10209DE5 		ldr	r2, [sp, #16]	@ tmp281, long_name
 1121 00a0 033082E0 		add	r3, r2, r3	@ D.11545, tmp281, D.11544
 1122 00a4 00209DE5 		ldr	r2, [sp, #0]	@ tmp282, raw_entry
 1123 00a8 012082E2 		add	r2, r2, #1	@ D.11546, tmp282,
 1124 00ac 0020D2E5 		ldrb	r2, [r2, #0]	@ zero_extendqisi2	@ D.11547,* D.11546
 1125 00b0 0020C3E5 		strb	r2, [r3, #0]	@ tmp283,* D.11545
 547:fat16.cpp     ****             long_name[char_offset + 1] = raw_entry[3];
 1126              		.loc 1 547 0
 1127 00b4 BE30DDE1 		ldrh	r3, [sp, #14]	@ D.11548, char_offset
 1128 00b8 013083E2 		add	r3, r3, #1	@ D.11549, D.11548,
 1129 00bc 10209DE5 		ldr	r2, [sp, #16]	@ tmp284, long_name
 1130 00c0 033082E0 		add	r3, r2, r3	@ D.11550, tmp284, D.11549
 1131 00c4 00209DE5 		ldr	r2, [sp, #0]	@ tmp285, raw_entry
 1132 00c8 032082E2 		add	r2, r2, #3	@ D.11551, tmp285,
 1133 00cc 0020D2E5 		ldrb	r2, [r2, #0]	@ zero_extendqisi2	@ D.11552,* D.11551
 1134 00d0 0020C3E5 		strb	r2, [r3, #0]	@ tmp286,* D.11550
ARM GAS  /tmp/ccwDRvq0.s 			page 31


 548:fat16.cpp     ****             long_name[char_offset + 2] = raw_entry[5];
 1135              		.loc 1 548 0
 1136 00d4 BE30DDE1 		ldrh	r3, [sp, #14]	@ D.11553, char_offset
 1137 00d8 023083E2 		add	r3, r3, #2	@ D.11554, D.11553,
 1138 00dc 10209DE5 		ldr	r2, [sp, #16]	@ tmp287, long_name
 1139 00e0 033082E0 		add	r3, r2, r3	@ D.11555, tmp287, D.11554
 1140 00e4 00209DE5 		ldr	r2, [sp, #0]	@ tmp288, raw_entry
 1141 00e8 052082E2 		add	r2, r2, #5	@ D.11556, tmp288,
 1142 00ec 0020D2E5 		ldrb	r2, [r2, #0]	@ zero_extendqisi2	@ D.11557,* D.11556
 1143 00f0 0020C3E5 		strb	r2, [r3, #0]	@ tmp289,* D.11555
 549:fat16.cpp     ****             long_name[char_offset + 3] = raw_entry[7];
 1144              		.loc 1 549 0
 1145 00f4 BE30DDE1 		ldrh	r3, [sp, #14]	@ D.11558, char_offset
 1146 00f8 033083E2 		add	r3, r3, #3	@ D.11559, D.11558,
 1147 00fc 10209DE5 		ldr	r2, [sp, #16]	@ tmp290, long_name
 1148 0100 033082E0 		add	r3, r2, r3	@ D.11560, tmp290, D.11559
 1149 0104 00209DE5 		ldr	r2, [sp, #0]	@ tmp291, raw_entry
 1150 0108 072082E2 		add	r2, r2, #7	@ D.11561, tmp291,
 1151 010c 0020D2E5 		ldrb	r2, [r2, #0]	@ zero_extendqisi2	@ D.11562,* D.11561
 1152 0110 0020C3E5 		strb	r2, [r3, #0]	@ tmp292,* D.11560
 550:fat16.cpp     ****             long_name[char_offset + 4] = raw_entry[9];
 1153              		.loc 1 550 0
 1154 0114 BE30DDE1 		ldrh	r3, [sp, #14]	@ D.11563, char_offset
 1155 0118 043083E2 		add	r3, r3, #4	@ D.11564, D.11563,
 1156 011c 10209DE5 		ldr	r2, [sp, #16]	@ tmp293, long_name
 1157 0120 033082E0 		add	r3, r2, r3	@ D.11565, tmp293, D.11564
 1158 0124 00209DE5 		ldr	r2, [sp, #0]	@ tmp294, raw_entry
 1159 0128 092082E2 		add	r2, r2, #9	@ D.11566, tmp294,
 1160 012c 0020D2E5 		ldrb	r2, [r2, #0]	@ zero_extendqisi2	@ D.11567,* D.11566
 1161 0130 0020C3E5 		strb	r2, [r3, #0]	@ tmp295,* D.11565
 551:fat16.cpp     ****             long_name[char_offset + 5] = raw_entry[14];
 1162              		.loc 1 551 0
 1163 0134 BE30DDE1 		ldrh	r3, [sp, #14]	@ D.11568, char_offset
 1164 0138 053083E2 		add	r3, r3, #5	@ D.11569, D.11568,
 1165 013c 10209DE5 		ldr	r2, [sp, #16]	@ tmp296, long_name
 1166 0140 033082E0 		add	r3, r2, r3	@ D.11570, tmp296, D.11569
 1167 0144 00209DE5 		ldr	r2, [sp, #0]	@ tmp297, raw_entry
 1168 0148 0E2082E2 		add	r2, r2, #14	@ D.11571, tmp297,
 1169 014c 0020D2E5 		ldrb	r2, [r2, #0]	@ zero_extendqisi2	@ D.11572,* D.11571
 1170 0150 0020C3E5 		strb	r2, [r3, #0]	@ tmp298,* D.11570
 552:fat16.cpp     ****             long_name[char_offset + 6] = raw_entry[16];
 1171              		.loc 1 552 0
 1172 0154 BE30DDE1 		ldrh	r3, [sp, #14]	@ D.11573, char_offset
 1173 0158 063083E2 		add	r3, r3, #6	@ D.11574, D.11573,
 1174 015c 10209DE5 		ldr	r2, [sp, #16]	@ tmp299, long_name
 1175 0160 033082E0 		add	r3, r2, r3	@ D.11575, tmp299, D.11574
 1176 0164 00209DE5 		ldr	r2, [sp, #0]	@ tmp300, raw_entry
 1177 0168 102082E2 		add	r2, r2, #16	@ D.11576, tmp300,
 1178 016c 0020D2E5 		ldrb	r2, [r2, #0]	@ zero_extendqisi2	@ D.11577,* D.11576
 1179 0170 0020C3E5 		strb	r2, [r3, #0]	@ tmp301,* D.11575
 553:fat16.cpp     ****             long_name[char_offset + 7] = raw_entry[18];
 1180              		.loc 1 553 0
 1181 0174 BE30DDE1 		ldrh	r3, [sp, #14]	@ D.11578, char_offset
 1182 0178 073083E2 		add	r3, r3, #7	@ D.11579, D.11578,
 1183 017c 10209DE5 		ldr	r2, [sp, #16]	@ tmp302, long_name
 1184 0180 033082E0 		add	r3, r2, r3	@ D.11580, tmp302, D.11579
 1185 0184 00209DE5 		ldr	r2, [sp, #0]	@ tmp303, raw_entry
ARM GAS  /tmp/ccwDRvq0.s 			page 32


 1186 0188 122082E2 		add	r2, r2, #18	@ D.11581, tmp303,
 1187 018c 0020D2E5 		ldrb	r2, [r2, #0]	@ zero_extendqisi2	@ D.11582,* D.11581
 1188 0190 0020C3E5 		strb	r2, [r3, #0]	@ tmp304,* D.11580
 554:fat16.cpp     ****             long_name[char_offset + 8] = raw_entry[20];
 1189              		.loc 1 554 0
 1190 0194 BE30DDE1 		ldrh	r3, [sp, #14]	@ D.11583, char_offset
 1191 0198 083083E2 		add	r3, r3, #8	@ D.11584, D.11583,
 1192 019c 10209DE5 		ldr	r2, [sp, #16]	@ tmp305, long_name
 1193 01a0 033082E0 		add	r3, r2, r3	@ D.11585, tmp305, D.11584
 1194 01a4 00209DE5 		ldr	r2, [sp, #0]	@ tmp306, raw_entry
 1195 01a8 142082E2 		add	r2, r2, #20	@ D.11586, tmp306,
 1196 01ac 0020D2E5 		ldrb	r2, [r2, #0]	@ zero_extendqisi2	@ D.11587,* D.11586
 1197 01b0 0020C3E5 		strb	r2, [r3, #0]	@ tmp307,* D.11585
 555:fat16.cpp     ****             long_name[char_offset + 9] = raw_entry[22];
 1198              		.loc 1 555 0
 1199 01b4 BE30DDE1 		ldrh	r3, [sp, #14]	@ D.11588, char_offset
 1200 01b8 093083E2 		add	r3, r3, #9	@ D.11589, D.11588,
 1201 01bc 10209DE5 		ldr	r2, [sp, #16]	@ tmp308, long_name
 1202 01c0 033082E0 		add	r3, r2, r3	@ D.11590, tmp308, D.11589
 1203 01c4 00209DE5 		ldr	r2, [sp, #0]	@ tmp309, raw_entry
 1204 01c8 162082E2 		add	r2, r2, #22	@ D.11591, tmp309,
 1205 01cc 0020D2E5 		ldrb	r2, [r2, #0]	@ zero_extendqisi2	@ D.11592,* D.11591
 1206 01d0 0020C3E5 		strb	r2, [r3, #0]	@ tmp310,* D.11590
 556:fat16.cpp     ****             long_name[char_offset + 10] = raw_entry[24];
 1207              		.loc 1 556 0
 1208 01d4 BE30DDE1 		ldrh	r3, [sp, #14]	@ D.11593, char_offset
 1209 01d8 0A3083E2 		add	r3, r3, #10	@ D.11594, D.11593,
 1210 01dc 10209DE5 		ldr	r2, [sp, #16]	@ tmp311, long_name
 1211 01e0 033082E0 		add	r3, r2, r3	@ D.11595, tmp311, D.11594
 1212 01e4 00209DE5 		ldr	r2, [sp, #0]	@ tmp312, raw_entry
 1213 01e8 182082E2 		add	r2, r2, #24	@ D.11596, tmp312,
 1214 01ec 0020D2E5 		ldrb	r2, [r2, #0]	@ zero_extendqisi2	@ D.11597,* D.11596
 1215 01f0 0020C3E5 		strb	r2, [r3, #0]	@ tmp313,* D.11595
 557:fat16.cpp     ****             long_name[char_offset + 11] = raw_entry[28];
 1216              		.loc 1 557 0
 1217 01f4 BE30DDE1 		ldrh	r3, [sp, #14]	@ D.11598, char_offset
 1218 01f8 0B3083E2 		add	r3, r3, #11	@ D.11599, D.11598,
 1219 01fc 10209DE5 		ldr	r2, [sp, #16]	@ tmp314, long_name
 1220 0200 033082E0 		add	r3, r2, r3	@ D.11600, tmp314, D.11599
 1221 0204 00209DE5 		ldr	r2, [sp, #0]	@ tmp315, raw_entry
 1222 0208 1C2082E2 		add	r2, r2, #28	@ D.11601, tmp315,
 1223 020c 0020D2E5 		ldrb	r2, [r2, #0]	@ zero_extendqisi2	@ D.11602,* D.11601
 1224 0210 0020C3E5 		strb	r2, [r3, #0]	@ tmp316,* D.11600
 558:fat16.cpp     ****             long_name[char_offset + 12] = raw_entry[30];
 1225              		.loc 1 558 0
 1226 0214 BE30DDE1 		ldrh	r3, [sp, #14]	@ D.11603, char_offset
 1227 0218 0C3083E2 		add	r3, r3, #12	@ D.11604, D.11603,
 1228 021c 10209DE5 		ldr	r2, [sp, #16]	@ tmp317, long_name
 1229 0220 033082E0 		add	r3, r2, r3	@ D.11605, tmp317, D.11604
 1230 0224 00209DE5 		ldr	r2, [sp, #0]	@ tmp318, raw_entry
 1231 0228 1E2082E2 		add	r2, r2, #30	@ D.11606, tmp318,
 1232 022c 0020D2E5 		ldrb	r2, [r2, #0]	@ zero_extendqisi2	@ D.11607,* D.11606
 1233 0230 0020C3E5 		strb	r2, [r3, #0]	@ tmp319,* D.11605
 1234              	.L78:
 559:fat16.cpp     ****         }
 560:fat16.cpp     **** 
 561:fat16.cpp     ****         return 1;
ARM GAS  /tmp/ccwDRvq0.s 			page 33


 1235              		.loc 1 561 0
 1236 0234 0130A0E3 		mov	r3, #1	@ D.11529,
 1237 0238 7E0000EA 		b	.L76	@
 1238              	.L77:
 1239              	.LBE10:
 1240              	.LBB11:
 1241              	.LBB12:
 562:fat16.cpp     ****     }
 563:fat16.cpp     ****     else
 564:fat16.cpp     ****     {
 565:fat16.cpp     ****         /* if we do not have a long name, take the short one */
 566:fat16.cpp     ****         if(long_name[0] == '\0')
 1242              		.loc 1 566 0
 1243 023c 10309DE5 		ldr	r3, [sp, #16]	@ tmp320, long_name
 1244 0240 0030D3E5 		ldrb	r3, [r3, #0]	@ zero_extendqisi2	@ D.11609,
 1245 0244 000053E3 		cmp	r3, #0	@ D.11609,
 1246 0248 4E00001A 		bne	.L79	@,
 1247              	.LBB13:
 567:fat16.cpp     ****         {
 568:fat16.cpp     ****             uint8_t i;
 569:fat16.cpp     ****             for(i = 0; i < 8; ++i)
 1248              		.loc 1 569 0
 1249 024c 0030A0E3 		mov	r3, #0	@ tmp321,
 1250 0250 1730CDE5 		strb	r3, [sp, #23]	@ tmp322, i
 1251 0254 100000EA 		b	.L80	@
 1252              	.L83:
 570:fat16.cpp     ****             {
 571:fat16.cpp     ****                 if(raw_entry[i] == ' ')
 1253              		.loc 1 571 0
 1254 0258 1730DDE5 		ldrb	r3, [sp, #23]	@ zero_extendqisi2	@ D.11617, i
 1255 025c 00209DE5 		ldr	r2, [sp, #0]	@ tmp323, raw_entry
 1256 0260 033082E0 		add	r3, r2, r3	@ D.11618, tmp323, D.11617
 1257 0264 0030D3E5 		ldrb	r3, [r3, #0]	@ zero_extendqisi2	@ D.11619,* D.11618
 1258 0268 200053E3 		cmp	r3, #32	@ D.11619,
 1259 026c 1200000A 		beq	.L89	@,
 1260              	.L81:
 572:fat16.cpp     ****                     break;
 573:fat16.cpp     ****                 long_name[i] = raw_entry[i];
 1261              		.loc 1 573 0
 1262 0270 1730DDE5 		ldrb	r3, [sp, #23]	@ zero_extendqisi2	@ D.11622, i
 1263 0274 10209DE5 		ldr	r2, [sp, #16]	@ tmp324, long_name
 1264 0278 033082E0 		add	r3, r2, r3	@ D.11623, tmp324, D.11622
 1265 027c 1720DDE5 		ldrb	r2, [sp, #23]	@ zero_extendqisi2	@ D.11624, i
 1266 0280 00109DE5 		ldr	r1, [sp, #0]	@ tmp325, raw_entry
 1267 0284 022081E0 		add	r2, r1, r2	@ D.11625, tmp325, D.11624
 1268 0288 0020D2E5 		ldrb	r2, [r2, #0]	@ zero_extendqisi2	@ D.11626,* D.11625
 1269 028c 0020C3E5 		strb	r2, [r3, #0]	@ tmp326,* D.11623
 569:fat16.cpp     ****             for(i = 0; i < 8; ++i)
 1270              		.loc 1 569 0
 1271 0290 1730DDE5 		ldrb	r3, [sp, #23]	@ tmp327, i
 1272 0294 013083E2 		add	r3, r3, #1	@ tmp328, tmp327,
 1273 0298 1730CDE5 		strb	r3, [sp, #23]	@ tmp329, i
 1274              	.L80:
 569:fat16.cpp     ****             for(i = 0; i < 8; ++i)
 1275              		.loc 1 569 0 is_stmt 0 discriminator 1
 1276 029c 1730DDE5 		ldrb	r3, [sp, #23]	@ zero_extendqisi2	@ tmp331, i
 1277 02a0 070053E3 		cmp	r3, #7	@ tmp331,
ARM GAS  /tmp/ccwDRvq0.s 			page 34


 1278 02a4 0030A083 		movhi	r3, #0	@, tmp332
 1279 02a8 0130A093 		movls	r3, #1	@, tmp332
 1280 02ac FF3003E2 		and	r3, r3, #255	@ D.11615, tmp330,
 1281 02b0 000053E3 		cmp	r3, #0	@ D.11615,
 1282 02b4 E7FFFF1A 		bne	.L83	@,
 1283 02b8 000000EA 		b	.L82	@
 1284              	.L89:
 572:fat16.cpp     ****                     break;
 1285              		.loc 1 572 0 is_stmt 1
 1286 02bc 0000A0E1 		mov	r0, r0	@ nop
 1287              	.L82:
 1288              	.LBB14:
 574:fat16.cpp     ****             }
 575:fat16.cpp     ****             if(raw_entry[8] != ' ')
 1289              		.loc 1 575 0
 1290 02c0 00309DE5 		ldr	r3, [sp, #0]	@ tmp333, raw_entry
 1291 02c4 083083E2 		add	r3, r3, #8	@ D.11627, tmp333,
 1292 02c8 0030D3E5 		ldrb	r3, [r3, #0]	@ zero_extendqisi2	@ D.11628,* D.11627
 1293 02cc 200053E3 		cmp	r3, #32	@ D.11628,
 1294 02d0 2700000A 		beq	.L84	@,
 1295              	.LBB15:
 576:fat16.cpp     ****             {
 577:fat16.cpp     ****                 long_name[i++] = '.';
 1296              		.loc 1 577 0
 1297 02d4 1730DDE5 		ldrb	r3, [sp, #23]	@ zero_extendqisi2	@ D.11631, i
 1298 02d8 10209DE5 		ldr	r2, [sp, #16]	@ tmp334, long_name
 1299 02dc 033082E0 		add	r3, r2, r3	@ D.11632, tmp334, D.11631
 1300 02e0 2E20A0E3 		mov	r2, #46	@ tmp335,
 1301 02e4 0020C3E5 		strb	r2, [r3, #0]	@ tmp336,* D.11632
 1302 02e8 1730DDE5 		ldrb	r3, [sp, #23]	@ tmp337, i
 1303 02ec 013083E2 		add	r3, r3, #1	@ tmp338, tmp337,
 1304 02f0 1730CDE5 		strb	r3, [sp, #23]	@ tmp339, i
 578:fat16.cpp     **** 
 579:fat16.cpp     ****                 uint8_t j = 8;
 1305              		.loc 1 579 0
 1306 02f4 0830A0E3 		mov	r3, #8	@ tmp340,
 1307 02f8 1630CDE5 		strb	r3, [sp, #22]	@ tmp341, j
 580:fat16.cpp     ****                 for(; j < 11; ++j)
 1308              		.loc 1 580 0
 1309 02fc 130000EA 		b	.L85	@
 1310              	.L88:
 581:fat16.cpp     ****                 {
 582:fat16.cpp     ****                     if(raw_entry[j] != ' ')
 1311              		.loc 1 582 0
 1312 0300 1630DDE5 		ldrb	r3, [sp, #22]	@ zero_extendqisi2	@ D.11638, j
 1313 0304 00209DE5 		ldr	r2, [sp, #0]	@ tmp342, raw_entry
 1314 0308 033082E0 		add	r3, r2, r3	@ D.11639, tmp342, D.11638
 1315 030c 0030D3E5 		ldrb	r3, [r3, #0]	@ zero_extendqisi2	@ D.11640,* D.11639
 1316 0310 200053E3 		cmp	r3, #32	@ D.11640,
 1317 0314 1500000A 		beq	.L90	@,
 583:fat16.cpp     ****                     {
 584:fat16.cpp     ****                         long_name[i++] = raw_entry[j];
 1318              		.loc 1 584 0
 1319 0318 1730DDE5 		ldrb	r3, [sp, #23]	@ zero_extendqisi2	@ D.11643, i
 1320 031c 10209DE5 		ldr	r2, [sp, #16]	@ tmp343, long_name
 1321 0320 033082E0 		add	r3, r2, r3	@ D.11644, tmp343, D.11643
 1322 0324 1620DDE5 		ldrb	r2, [sp, #22]	@ zero_extendqisi2	@ D.11645, j
ARM GAS  /tmp/ccwDRvq0.s 			page 35


 1323 0328 00109DE5 		ldr	r1, [sp, #0]	@ tmp344, raw_entry
 1324 032c 022081E0 		add	r2, r1, r2	@ D.11646, tmp344, D.11645
 1325 0330 0020D2E5 		ldrb	r2, [r2, #0]	@ zero_extendqisi2	@ D.11647,* D.11646
 1326 0334 0020C3E5 		strb	r2, [r3, #0]	@ tmp345,* D.11644
 1327 0338 1730DDE5 		ldrb	r3, [sp, #23]	@ tmp346, i
 1328 033c 013083E2 		add	r3, r3, #1	@ tmp347, tmp346,
 1329 0340 1730CDE5 		strb	r3, [sp, #23]	@ tmp348, i
 580:fat16.cpp     ****                 for(; j < 11; ++j)
 1330              		.loc 1 580 0
 1331 0344 1630DDE5 		ldrb	r3, [sp, #22]	@ tmp349, j
 1332 0348 013083E2 		add	r3, r3, #1	@ tmp350, tmp349,
 1333 034c 1630CDE5 		strb	r3, [sp, #22]	@ tmp351, j
 1334              	.L85:
 580:fat16.cpp     ****                 for(; j < 11; ++j)
 1335              		.loc 1 580 0 is_stmt 0 discriminator 1
 1336 0350 1630DDE5 		ldrb	r3, [sp, #22]	@ zero_extendqisi2	@ tmp353, j
 1337 0354 0A0053E3 		cmp	r3, #10	@ tmp353,
 1338 0358 0030A083 		movhi	r3, #0	@, tmp354
 1339 035c 0130A093 		movls	r3, #1	@, tmp354
 1340 0360 FF3003E2 		and	r3, r3, #255	@ D.11636, tmp352,
 1341 0364 000053E3 		cmp	r3, #0	@ D.11636,
 1342 0368 E4FFFF1A 		bne	.L88	@,
 1343 036c 000000EA 		b	.L84	@
 1344              	.L90:
 585:fat16.cpp     ****                     }
 586:fat16.cpp     ****                     else
 587:fat16.cpp     ****                     {
 588:fat16.cpp     ****                         break;
 1345              		.loc 1 588 0 is_stmt 1
 1346 0370 0000A0E1 		mov	r0, r0	@ nop
 1347              	.L84:
 1348              	.LBE15:
 1349              	.LBE14:
 589:fat16.cpp     ****                     }
 590:fat16.cpp     ****                 }
 591:fat16.cpp     ****             }
 592:fat16.cpp     **** 
 593:fat16.cpp     ****             long_name[i] = '\0';
 1350              		.loc 1 593 0
 1351 0374 1730DDE5 		ldrb	r3, [sp, #23]	@ zero_extendqisi2	@ D.11650, i
 1352 0378 10209DE5 		ldr	r2, [sp, #16]	@ tmp355, long_name
 1353 037c 033082E0 		add	r3, r2, r3	@ D.11651, tmp355, D.11650
 1354 0380 0020A0E3 		mov	r2, #0	@ tmp356,
 1355 0384 0020C3E5 		strb	r2, [r3, #0]	@ tmp357,* D.11651
 1356              	.L79:
 1357              	.LBE13:
 1358              	.LBE12:
 594:fat16.cpp     ****         }
 595:fat16.cpp     **** 
 596:fat16.cpp     ****         /* extract properties of file and store them within the structure */
 597:fat16.cpp     ****         dir_entry->attributes = raw_entry[11];
 1359              		.loc 1 597 0
 1360 0388 00309DE5 		ldr	r3, [sp, #0]	@ tmp358, raw_entry
 1361 038c 0B3083E2 		add	r3, r3, #11	@ D.11653, tmp358,
 1362 0390 0020D3E5 		ldrb	r2, [r3, #0]	@ zero_extendqisi2	@ D.11654,* D.11653
 1363 0394 04309DE5 		ldr	r3, [sp, #4]	@ tmp359, dir_entry
 1364 0398 2020C3E5 		strb	r2, [r3, #32]	@ tmp360, dir_entry_6(D)->attributes
ARM GAS  /tmp/ccwDRvq0.s 			page 36


 598:fat16.cpp     ****         dir_entry->cluster = ((uint16_t) raw_entry[26]) |
 1365              		.loc 1 598 0
 1366 039c 00309DE5 		ldr	r3, [sp, #0]	@ tmp361, raw_entry
 1367 03a0 1A3083E2 		add	r3, r3, #26	@ D.11655, tmp361,
 1368 03a4 0030D3E5 		ldrb	r3, [r3, #0]	@ zero_extendqisi2	@ D.11656,* D.11655
 599:fat16.cpp     ****         ((uint16_t) raw_entry[27] << 8);
 1369              		.loc 1 599 0
 1370 03a8 0320A0E1 		mov	r2, r3	@ D.11657, D.11656
 1371 03ac 00309DE5 		ldr	r3, [sp, #0]	@ tmp362, raw_entry
 1372 03b0 1B3083E2 		add	r3, r3, #27	@ D.11658, tmp362,
 1373 03b4 0030D3E5 		ldrb	r3, [r3, #0]	@ zero_extendqisi2	@ D.11659,* D.11658
 1374 03b8 0334A0E1 		mov	r3, r3, asl #8	@ D.11661, D.11660,
 1375 03bc 0338A0E1 		mov	r3, r3, asl #16	@ tmp363, D.11661,
 1376 03c0 2338A0E1 		mov	r3, r3, lsr #16	@ D.11662, tmp363,
 1377 03c4 033082E1 		orr	r3, r2, r3	@ tmp366, tmp364, tmp365
 1378 03c8 0338A0E1 		mov	r3, r3, asl #16	@ tmp367, tmp366,
 1379 03cc 2338A0E1 		mov	r3, r3, lsr #16	@ D.11663, tmp367,
 1380 03d0 0338A0E1 		mov	r3, r3, asl #16	@ tmp368, D.11663,
 1381 03d4 2328A0E1 		mov	r2, r3, lsr #16	@ D.11664, tmp368,
 1382 03d8 04309DE5 		ldr	r3, [sp, #4]	@ tmp369, dir_entry
 1383 03dc B222C3E1 		strh	r2, [r3, #34]	@ movhi	@ D.11664, dir_entry_6(D)->cluster
 600:fat16.cpp     ****         dir_entry->file_size = ((uint32_t) raw_entry[28]) |
 1384              		.loc 1 600 0
 1385 03e0 00309DE5 		ldr	r3, [sp, #0]	@ tmp370, raw_entry
 1386 03e4 1C3083E2 		add	r3, r3, #28	@ D.11665, tmp370,
 1387 03e8 0030D3E5 		ldrb	r3, [r3, #0]	@ zero_extendqisi2	@ D.11666,* D.11665
 601:fat16.cpp     ****         ((uint32_t) raw_entry[29] << 8) |
 602:fat16.cpp     ****         ((uint32_t) raw_entry[30] << 16) |
 603:fat16.cpp     ****         ((uint32_t) raw_entry[31] << 24);
 1388              		.loc 1 603 0
 1389 03ec 0320A0E1 		mov	r2, r3	@ D.11667, D.11666
 601:fat16.cpp     ****         ((uint32_t) raw_entry[29] << 8) |
 1390              		.loc 1 601 0
 1391 03f0 00309DE5 		ldr	r3, [sp, #0]	@ tmp371, raw_entry
 1392 03f4 1D3083E2 		add	r3, r3, #29	@ D.11668, tmp371,
 1393 03f8 0030D3E5 		ldrb	r3, [r3, #0]	@ zero_extendqisi2	@ D.11669,* D.11668
 1394              		.loc 1 603 0
 1395 03fc 0334A0E1 		mov	r3, r3, asl #8	@ D.11671, D.11670,
 1396 0400 032082E1 		orr	r2, r2, r3	@ D.11672, D.11667, D.11671
 602:fat16.cpp     ****         ((uint32_t) raw_entry[30] << 16) |
 1397              		.loc 1 602 0
 1398 0404 00309DE5 		ldr	r3, [sp, #0]	@ tmp372, raw_entry
 1399 0408 1E3083E2 		add	r3, r3, #30	@ D.11673, tmp372,
 1400 040c 0030D3E5 		ldrb	r3, [r3, #0]	@ zero_extendqisi2	@ D.11674,* D.11673
 1401              		.loc 1 603 0
 1402 0410 0338A0E1 		mov	r3, r3, asl #16	@ D.11676, D.11675,
 1403 0414 032082E1 		orr	r2, r2, r3	@ D.11677, D.11672, D.11676
 1404 0418 00309DE5 		ldr	r3, [sp, #0]	@ tmp373, raw_entry
 1405 041c 1F3083E2 		add	r3, r3, #31	@ D.11678, tmp373,
 1406 0420 0030D3E5 		ldrb	r3, [r3, #0]	@ zero_extendqisi2	@ D.11679,* D.11678
 1407 0424 033CA0E1 		mov	r3, r3, asl #24	@ D.11681, D.11680,
 1408 0428 032082E1 		orr	r2, r2, r3	@ D.11682, D.11677, D.11681
 1409 042c 04309DE5 		ldr	r3, [sp, #4]	@ tmp374, dir_entry
 1410 0430 242083E5 		str	r2, [r3, #36]	@ D.11682, dir_entry_6(D)->file_size
 604:fat16.cpp     **** 
 605:fat16.cpp     ****         return 2;
 1411              		.loc 1 605 0
ARM GAS  /tmp/ccwDRvq0.s 			page 37


 1412 0434 0230A0E3 		mov	r3, #2	@ D.11529,
 1413              	.L76:
 1414              	.LBE11:
 1415              	.LBE9:
 1416              	.LBE8:
 606:fat16.cpp     ****     }
 607:fat16.cpp     **** }
 1417              		.loc 1 607 0
 1418 0438 0300A0E1 		mov	r0, r3	@, <retval>
 1419 043c 18D08DE2 		add	sp, sp, #24	@,,
 1420 0440 1EFF2FE1 		bx	lr
 1421              		.cfi_endproc
 1422              	.LFE116:
 1423              		.size	_ZL25fat16_interpret_dir_entryP22fat16_dir_entry_structPKh, .-_ZL25fat16_interpret_dir_entry
 1424              		.section	.text._Z27fat16_get_dir_entry_of_pathP15fat16_fs_structPKcP22fat16_dir_entry_struct,"ax",
 1425              		.align	2
 1426              		.global	_Z27fat16_get_dir_entry_of_pathP15fat16_fs_structPKcP22fat16_dir_entry_struct
 1427              		.type	_Z27fat16_get_dir_entry_of_pathP15fat16_fs_structPKcP22fat16_dir_entry_struct, %function
 1428              	_Z27fat16_get_dir_entry_of_pathP15fat16_fs_structPKcP22fat16_dir_entry_struct:
 1429              	.LFB117:
 608:fat16.cpp     **** 
 609:fat16.cpp     **** /**
 610:fat16.cpp     ****  * \ingroup fat16_file
 611:fat16.cpp     ****  * Retrieves the directory entry of a path.
 612:fat16.cpp     ****  *
 613:fat16.cpp     ****  * The given path may both describe a file or a directory.
 614:fat16.cpp     ****  *
 615:fat16.cpp     ****  * \param[in] fs The FAT16 filesystem on which to search.
 616:fat16.cpp     ****  * \param[in] path The path of which to read the directory entry.
 617:fat16.cpp     ****  * \param[out] dir_entry The directory entry to fill.
 618:fat16.cpp     ****  * \returns 0 on failure, 1 on success.
 619:fat16.cpp     ****  * \see fat16_read_dir
 620:fat16.cpp     ****  */
 621:fat16.cpp     **** uint8_t fat16_get_dir_entry_of_path(struct fat16_fs_struct* fs, const char* path, struct fat16_dir_
 622:fat16.cpp     **** {
 1430              		.loc 1 622 0
 1431              		.cfi_startproc
 1432              		@ Function supports interworking.
 1433              		@ args = 0, pretend = 0, frame = 32
 1434              		@ frame_needed = 0, uses_anonymous_args = 0
 1435 0000 04E02DE5 		str	lr, [sp, #-4]!	@,
 1436              	.LCFI14:
 1437              		.cfi_def_cfa_offset 4
 1438 0004 24D04DE2 		sub	sp, sp, #36	@,,
 1439              	.LCFI15:
 1440              		.cfi_def_cfa_offset 40
 1441 0008 0C008DE5 		str	r0, [sp, #12]	@ fs, fs
 1442 000c 08108DE5 		str	r1, [sp, #8]	@ path, path
 1443 0010 04208DE5 		str	r2, [sp, #4]	@ dir_entry, dir_entry
 1444              	.LBB16:
 623:fat16.cpp     ****     if(!fs || !path || path[0] == '\0' || !dir_entry)
 1445              		.loc 1 623 0
 1446 0014 0C309DE5 		ldr	r3, [sp, #12]	@ tmp157, fs
 1447 0018 000053E3 		cmp	r3, #0	@ tmp157,
 1448 001c 0900000A 		beq	.L92	@,
 1449              		.cfi_offset 14, -4
 1450              		.loc 1 623 0 is_stmt 0 discriminator 1
ARM GAS  /tmp/ccwDRvq0.s 			page 38


 1451 0020 08309DE5 		ldr	r3, [sp, #8]	@ tmp158, path
 1452 0024 000053E3 		cmp	r3, #0	@ tmp158,
 1453 0028 0600000A 		beq	.L92	@,
 1454              		.loc 1 623 0 discriminator 2
 1455 002c 08309DE5 		ldr	r3, [sp, #8]	@ tmp159, path
 1456 0030 0030D3E5 		ldrb	r3, [r3, #0]	@ zero_extendqisi2	@ D.11476,
 1457 0034 000053E3 		cmp	r3, #0	@ D.11476,
 1458 0038 0200000A 		beq	.L92	@,
 1459              		.loc 1 623 0 discriminator 3
 1460 003c 04309DE5 		ldr	r3, [sp, #4]	@ tmp160, dir_entry
 1461 0040 000053E3 		cmp	r3, #0	@ tmp160,
 1462 0044 0100001A 		bne	.L93	@,
 1463              	.L92:
 624:fat16.cpp     ****         return 0;
 1464              		.loc 1 624 0 is_stmt 1
 1465 0048 0030A0E3 		mov	r3, #0	@ D.11478,
 1466 004c 670000EA 		b	.L94	@
 1467              	.L93:
 625:fat16.cpp     **** 
 626:fat16.cpp     ****     if(path[0] == '/')
 1468              		.loc 1 626 0
 1469 0050 08309DE5 		ldr	r3, [sp, #8]	@ tmp161, path
 1470 0054 0030D3E5 		ldrb	r3, [r3, #0]	@ zero_extendqisi2	@ D.11479,
 1471 0058 2F0053E3 		cmp	r3, #47	@ D.11479,
 1472 005c 0200001A 		bne	.L95	@,
 627:fat16.cpp     ****         ++path;
 1473              		.loc 1 627 0
 1474 0060 08309DE5 		ldr	r3, [sp, #8]	@ tmp162, path
 1475 0064 013083E2 		add	r3, r3, #1	@ tmp163, tmp162,
 1476 0068 08308DE5 		str	r3, [sp, #8]	@ tmp163, path
 1477              	.L95:
 628:fat16.cpp     **** 
 629:fat16.cpp     ****     /* begin with the root directory */
 630:fat16.cpp     ****     memset(dir_entry, 0, sizeof(*dir_entry));
 1478              		.loc 1 630 0
 1479 006c 04009DE5 		ldr	r0, [sp, #4]	@, dir_entry
 1480 0070 0010A0E3 		mov	r1, #0	@,
 1481 0074 2C20A0E3 		mov	r2, #44	@,
 1482 0078 FEFFFFEB 		bl	memset	@
 631:fat16.cpp     ****     dir_entry->attributes = FAT16_ATTRIB_DIR;
 1483              		.loc 1 631 0
 1484 007c 04309DE5 		ldr	r3, [sp, #4]	@ tmp164, dir_entry
 1485 0080 1020A0E3 		mov	r2, #16	@ tmp165,
 1486 0084 2020C3E5 		strb	r2, [r3, #32]	@ tmp166, dir_entry_10(D)->attributes
 632:fat16.cpp     **** 
 633:fat16.cpp     ****     if(path[0] == '\0')
 1487              		.loc 1 633 0
 1488 0088 08309DE5 		ldr	r3, [sp, #8]	@ tmp167, path
 1489 008c 0030D3E5 		ldrb	r3, [r3, #0]	@ zero_extendqisi2	@ D.11483,
 1490 0090 000053E3 		cmp	r3, #0	@ D.11483,
 1491 0094 0100001A 		bne	.L96	@,
 634:fat16.cpp     ****         return 1;
 1492              		.loc 1 634 0
 1493 0098 0130A0E3 		mov	r3, #1	@ D.11478,
 1494 009c 530000EA 		b	.L94	@
 1495              	.L96:
 1496              	.LBB17:
ARM GAS  /tmp/ccwDRvq0.s 			page 39


 635:fat16.cpp     **** 
 636:fat16.cpp     ****     while(1)
 637:fat16.cpp     ****     {
 638:fat16.cpp     ****         struct fat16_dir_struct* dd = fat16_open_dir(fs, dir_entry);
 1497              		.loc 1 638 0
 1498 00a0 0C009DE5 		ldr	r0, [sp, #12]	@, fs
 1499 00a4 04109DE5 		ldr	r1, [sp, #4]	@, dir_entry
 1500 00a8 FEFFFFEB 		bl	_Z14fat16_open_dirP15fat16_fs_structPK22fat16_dir_entry_struct	@
 1501 00ac 1C008DE5 		str	r0, [sp, #28]	@, dd
 639:fat16.cpp     ****         if(!dd)
 1502              		.loc 1 639 0
 1503 00b0 1C309DE5 		ldr	r3, [sp, #28]	@ tmp168, dd
 1504 00b4 000053E3 		cmp	r3, #0	@ tmp168,
 1505 00b8 0100001A 		bne	.L97	@,
 1506              	.LBE17:
 640:fat16.cpp     ****             break;
 641:fat16.cpp     **** 
 642:fat16.cpp     ****         /* extract the next hierarchy we will search for */
 643:fat16.cpp     ****         const char* sep_pos = strchr(path, '/');
 644:fat16.cpp     ****         if(!sep_pos)
 645:fat16.cpp     ****             sep_pos = path + strlen(path);
 646:fat16.cpp     ****         uint8_t length_to_sep = sep_pos - path;
 647:fat16.cpp     **** 
 648:fat16.cpp     ****         /* read directory entries */
 649:fat16.cpp     ****         while(fat16_read_dir(dd, dir_entry))
 650:fat16.cpp     ****         {
 651:fat16.cpp     ****             /* check if we have found the next hierarchy */
 652:fat16.cpp     ****             if((strlen(dir_entry->long_name) != length_to_sep ||
 653:fat16.cpp     ****                 strncmp(path, dir_entry->long_name, length_to_sep) != 0))
 654:fat16.cpp     ****             continue;
 655:fat16.cpp     **** 
 656:fat16.cpp     ****             fat16_close_dir(dd);
 657:fat16.cpp     ****             dd = 0;
 658:fat16.cpp     **** 
 659:fat16.cpp     ****             if(path[length_to_sep] == '\0')
 660:fat16.cpp     ****     /* we iterated through the whole path and have found the file */
 661:fat16.cpp     ****                 return 1;
 662:fat16.cpp     **** 
 663:fat16.cpp     ****             if(dir_entry->attributes & FAT16_ATTRIB_DIR)
 664:fat16.cpp     ****             {
 665:fat16.cpp     ****                 /* we found a parent directory of the file we are searching for */
 666:fat16.cpp     ****                 path = sep_pos + 1;
 667:fat16.cpp     ****                 break;
 668:fat16.cpp     ****             }
 669:fat16.cpp     **** 
 670:fat16.cpp     ****             /* a parent of the file exists, but not the file itself */
 671:fat16.cpp     ****             return 0;
 672:fat16.cpp     ****         }
 673:fat16.cpp     **** 
 674:fat16.cpp     ****         fat16_close_dir(dd);
 675:fat16.cpp     ****     }
 676:fat16.cpp     **** 
 677:fat16.cpp     ****     return 0;
 1507              		.loc 1 677 0
 1508 00bc 0030A0E3 		mov	r3, #0	@ D.11478,
 1509 00c0 4A0000EA 		b	.L94	@
 1510              	.L97:
ARM GAS  /tmp/ccwDRvq0.s 			page 40


 1511              	.LBB18:
 643:fat16.cpp     ****         const char* sep_pos = strchr(path, '/');
 1512              		.loc 1 643 0
 1513 00c4 08009DE5 		ldr	r0, [sp, #8]	@, path
 1514 00c8 2F10A0E3 		mov	r1, #47	@,
 1515 00cc FEFFFFEB 		bl	strchr	@
 1516 00d0 18008DE5 		str	r0, [sp, #24]	@, sep_pos
 644:fat16.cpp     ****         if(!sep_pos)
 1517              		.loc 1 644 0
 1518 00d4 18309DE5 		ldr	r3, [sp, #24]	@ tmp169, sep_pos
 1519 00d8 000053E3 		cmp	r3, #0	@ tmp169,
 1520 00dc 0500001A 		bne	.L98	@,
 645:fat16.cpp     ****             sep_pos = path + strlen(path);
 1521              		.loc 1 645 0
 1522 00e0 08009DE5 		ldr	r0, [sp, #8]	@, path
 1523 00e4 FEFFFFEB 		bl	strlen	@
 1524 00e8 0030A0E1 		mov	r3, r0	@ tmp170,
 1525 00ec 08209DE5 		ldr	r2, [sp, #8]	@ tmp171, path
 1526 00f0 033082E0 		add	r3, r2, r3	@ tmp172, tmp171, D.11493
 1527 00f4 18308DE5 		str	r3, [sp, #24]	@ tmp172, sep_pos
 1528              	.L98:
 646:fat16.cpp     ****         uint8_t length_to_sep = sep_pos - path;
 1529              		.loc 1 646 0
 1530 00f8 18309DE5 		ldr	r3, [sp, #24]	@ sep_pos.31, sep_pos
 1531 00fc FF2003E2 		and	r2, r3, #255	@ D.11496, sep_pos.31,
 1532 0100 08309DE5 		ldr	r3, [sp, #8]	@ path.32, path
 1533 0104 FF3003E2 		and	r3, r3, #255	@ D.11498, path.32,
 1534 0108 023063E0 		rsb	r3, r3, r2	@ tmp173, D.11498, D.11496
 1535 010c 1730CDE5 		strb	r3, [sp, #23]	@ tmp174, length_to_sep
 649:fat16.cpp     ****         while(fat16_read_dir(dd, dir_entry))
 1536              		.loc 1 649 0
 1537 0110 290000EA 		b	.L99	@
 1538              	.L105:
 652:fat16.cpp     ****             if((strlen(dir_entry->long_name) != length_to_sep ||
 1539              		.loc 1 652 0
 1540 0114 04309DE5 		ldr	r3, [sp, #4]	@ D.11506, dir_entry
 1541 0118 0300A0E1 		mov	r0, r3	@, D.11506
 1542 011c FEFFFFEB 		bl	strlen	@
 1543 0120 0020A0E1 		mov	r2, r0	@ D.11507,
 1544 0124 1730DDE5 		ldrb	r3, [sp, #23]	@ zero_extendqisi2	@ D.11508, length_to_sep
 1545 0128 030052E1 		cmp	r2, r3	@ D.11507, D.11508
 1546 012c 1F00001A 		bne	.L106	@,
 653:fat16.cpp     ****                 strncmp(path, dir_entry->long_name, length_to_sep) != 0))
 1547              		.loc 1 653 0 discriminator 1
 1548 0130 04209DE5 		ldr	r2, [sp, #4]	@ D.11510, dir_entry
 1549 0134 1730DDE5 		ldrb	r3, [sp, #23]	@ zero_extendqisi2	@ D.11511, length_to_sep
 1550 0138 08009DE5 		ldr	r0, [sp, #8]	@, path
 1551 013c 0210A0E1 		mov	r1, r2	@, D.11510
 1552 0140 0320A0E1 		mov	r2, r3	@, D.11511
 1553 0144 FEFFFFEB 		bl	strncmp	@
 1554 0148 0030A0E1 		mov	r3, r0	@ tmp175,
 652:fat16.cpp     ****             if((strlen(dir_entry->long_name) != length_to_sep ||
 1555              		.loc 1 652 0 discriminator 1
 1556 014c 000053E3 		cmp	r3, #0	@ D.11512,
 1557 0150 1800001A 		bne	.L107	@,
 1558              	.L101:
 656:fat16.cpp     ****             fat16_close_dir(dd);
ARM GAS  /tmp/ccwDRvq0.s 			page 41


 1559              		.loc 1 656 0
 1560 0154 1C009DE5 		ldr	r0, [sp, #28]	@, dd
 1561 0158 FEFFFFEB 		bl	_Z15fat16_close_dirP16fat16_dir_struct	@
 657:fat16.cpp     ****             dd = 0;
 1562              		.loc 1 657 0
 1563 015c 0030A0E3 		mov	r3, #0	@ tmp176,
 1564 0160 1C308DE5 		str	r3, [sp, #28]	@ tmp176, dd
 659:fat16.cpp     ****             if(path[length_to_sep] == '\0')
 1565              		.loc 1 659 0
 1566 0164 1730DDE5 		ldrb	r3, [sp, #23]	@ zero_extendqisi2	@ D.11513, length_to_sep
 1567 0168 08209DE5 		ldr	r2, [sp, #8]	@ tmp177, path
 1568 016c 033082E0 		add	r3, r2, r3	@ D.11514, tmp177, D.11513
 1569 0170 0030D3E5 		ldrb	r3, [r3, #0]	@ zero_extendqisi2	@ D.11515,* D.11514
 1570 0174 000053E3 		cmp	r3, #0	@ D.11515,
 1571 0178 0100001A 		bne	.L102	@,
 661:fat16.cpp     ****                 return 1;
 1572              		.loc 1 661 0
 1573 017c 0130A0E3 		mov	r3, #1	@ D.11478,
 1574 0180 1A0000EA 		b	.L94	@
 1575              	.L102:
 663:fat16.cpp     ****             if(dir_entry->attributes & FAT16_ATTRIB_DIR)
 1576              		.loc 1 663 0
 1577 0184 04309DE5 		ldr	r3, [sp, #4]	@ tmp178, dir_entry
 1578 0188 2030D3E5 		ldrb	r3, [r3, #32]	@ zero_extendqisi2	@ D.11518, dir_entry_10(D)->attributes
 1579 018c 103003E2 		and	r3, r3, #16	@ D.11520, D.11519,
 1580 0190 000053E3 		cmp	r3, #0	@ D.11520,
 1581 0194 0300000A 		beq	.L103	@,
 666:fat16.cpp     ****                 path = sep_pos + 1;
 1582              		.loc 1 666 0
 1583 0198 18309DE5 		ldr	r3, [sp, #24]	@ tmp179, sep_pos
 1584 019c 013083E2 		add	r3, r3, #1	@ tmp180, tmp179,
 1585 01a0 08308DE5 		str	r3, [sp, #8]	@ tmp180, path
 667:fat16.cpp     ****                 break;
 1586              		.loc 1 667 0
 1587 01a4 0E0000EA 		b	.L104	@
 1588              	.L103:
 671:fat16.cpp     ****             return 0;
 1589              		.loc 1 671 0
 1590 01a8 0030A0E3 		mov	r3, #0	@ D.11478,
 1591 01ac 0F0000EA 		b	.L94	@
 1592              	.L106:
 654:fat16.cpp     ****             continue;
 1593              		.loc 1 654 0
 1594 01b0 0000A0E1 		mov	r0, r0	@ nop
 1595 01b4 000000EA 		b	.L99	@
 1596              	.L107:
 1597 01b8 0000A0E1 		mov	r0, r0	@ nop
 1598              	.L99:
 649:fat16.cpp     ****         while(fat16_read_dir(dd, dir_entry))
 1599              		.loc 1 649 0 discriminator 1
 1600 01bc 1C009DE5 		ldr	r0, [sp, #28]	@, dd
 1601 01c0 04109DE5 		ldr	r1, [sp, #4]	@, dir_entry
 1602 01c4 FEFFFFEB 		bl	_Z14fat16_read_dirP16fat16_dir_structP22fat16_dir_entry_struct	@
 1603 01c8 0030A0E1 		mov	r3, r0	@ tmp181,
 1604 01cc 000053E3 		cmp	r3, #0	@ D.11503,
 1605 01d0 0030A003 		moveq	r3, #0	@, tmp183
 1606 01d4 0130A013 		movne	r3, #1	@, tmp183
ARM GAS  /tmp/ccwDRvq0.s 			page 42


 1607 01d8 FF3003E2 		and	r3, r3, #255	@ retval.33, tmp182,
 1608 01dc 000053E3 		cmp	r3, #0	@ retval.33,
 1609 01e0 CBFFFF1A 		bne	.L105	@,
 1610              	.L104:
 674:fat16.cpp     ****         fat16_close_dir(dd);
 1611              		.loc 1 674 0
 1612 01e4 1C009DE5 		ldr	r0, [sp, #28]	@, dd
 1613 01e8 FEFFFFEB 		bl	_Z15fat16_close_dirP16fat16_dir_struct	@
 1614              	.LBE18:
 636:fat16.cpp     ****     while(1)
 1615              		.loc 1 636 0
 1616 01ec ABFFFFEA 		b	.L96	@
 1617              	.L94:
 1618              	.LBE16:
 678:fat16.cpp     **** }
 1619              		.loc 1 678 0
 1620 01f0 0300A0E1 		mov	r0, r3	@, <retval>
 1621 01f4 24D08DE2 		add	sp, sp, #36	@,,
 1622 01f8 04E09DE4 		ldr	lr, [sp], #4
 1623 01fc 1EFF2FE1 		bx	lr
 1624              		.cfi_endproc
 1625              	.LFE117:
 1626              		.size	_Z27fat16_get_dir_entry_of_pathP15fat16_fs_structPKcP22fat16_dir_entry_struct, .-_Z27fat16_g
 1627              		.section	.text._ZL22fat16_get_next_clusterPK15fat16_fs_structt,"ax",%progbits
 1628              		.align	2
 1629              		.type	_ZL22fat16_get_next_clusterPK15fat16_fs_structt, %function
 1630              	_ZL22fat16_get_next_clusterPK15fat16_fs_structt:
 1631              	.LFB118:
 679:fat16.cpp     **** 
 680:fat16.cpp     **** /**
 681:fat16.cpp     ****  * \ingroup fat16_fs
 682:fat16.cpp     ****  * Retrieves the next following cluster of a given cluster.
 683:fat16.cpp     ****  *
 684:fat16.cpp     ****  * Using the filesystem file allocation table, this function returns
 685:fat16.cpp     ****  * the number of the cluster containing the data directly following
 686:fat16.cpp     ****  * the data within the cluster with the given number.
 687:fat16.cpp     ****  *
 688:fat16.cpp     ****  * \param[in] fs The filesystem for which to determine the next cluster.
 689:fat16.cpp     ****  * \param[in] cluster_num The number of the cluster for which to determine its successor.
 690:fat16.cpp     ****  * \returns The wanted cluster number, or 0 on error.
 691:fat16.cpp     ****  */
 692:fat16.cpp     **** uint16_t fat16_get_next_cluster(const struct fat16_fs_struct* fs, uint16_t cluster_num)
 693:fat16.cpp     **** {
 1632              		.loc 1 693 0
 1633              		.cfi_startproc
 1634              		@ Function supports interworking.
 1635              		@ args = 0, pretend = 0, frame = 16
 1636              		@ frame_needed = 0, uses_anonymous_args = 0
 1637 0000 04E02DE5 		str	lr, [sp, #-4]!	@,
 1638              	.LCFI16:
 1639              		.cfi_def_cfa_offset 4
 1640 0004 14D04DE2 		sub	sp, sp, #20	@,,
 1641              	.LCFI17:
 1642              		.cfi_def_cfa_offset 24
 1643 0008 04008DE5 		str	r0, [sp, #4]	@ fs, fs
 1644 000c 0130A0E1 		mov	r3, r1	@ tmp151, cluster_num
 1645 0010 B230CDE1 		strh	r3, [sp, #2]	@ movhi	@ tmp151, cluster_num
ARM GAS  /tmp/ccwDRvq0.s 			page 43


 1646              	.LBB19:
 694:fat16.cpp     ****     if(!fs || cluster_num < 2)
 1647              		.loc 1 694 0
 1648 0014 04309DE5 		ldr	r3, [sp, #4]	@ tmp152, fs
 1649 0018 000053E3 		cmp	r3, #0	@ tmp152,
 1650 001c 0200000A 		beq	.L109	@,
 1651              		.cfi_offset 14, -4
 1652              		.loc 1 694 0 is_stmt 0 discriminator 1
 1653 0020 B230DDE1 		ldrh	r3, [sp, #2]	@ tmp153, cluster_num
 1654 0024 010053E3 		cmp	r3, #1	@ tmp153,
 1655 0028 0100008A 		bhi	.L110	@,
 1656              	.L109:
 695:fat16.cpp     ****         return 0;
 1657              		.loc 1 695 0 is_stmt 1
 1658 002c 0030A0E3 		mov	r3, #0	@ D.11446,
 1659 0030 360000EA 		b	.L111	@
 1660              	.L110:
 696:fat16.cpp     **** 
 697:fat16.cpp     ****     /* read appropriate fat entry */
 698:fat16.cpp     ****     uint8_t fat_entry[2];
 699:fat16.cpp     ****     if(!fs->partition->device_read(fs->header.fat_offset + 2 * cluster_num, fat_entry, 2))
 1661              		.loc 1 699 0
 1662 0034 04309DE5 		ldr	r3, [sp, #4]	@ tmp154, fs
 1663 0038 003093E5 		ldr	r3, [r3, #0]	@ D.11448, fs_2(D)->partition
 1664 003c 003093E5 		ldr	r3, [r3, #0]	@ D.11449, D.11448_4->device_read
 1665 0040 04209DE5 		ldr	r2, [sp, #4]	@ tmp155, fs
 1666 0044 081092E5 		ldr	r1, [r2, #8]	@ D.11450, fs_2(D)->header.fat_offset
 1667 0048 B220DDE1 		ldrh	r2, [sp, #2]	@ D.11451, cluster_num
 1668 004c 8220A0E1 		mov	r2, r2, asl #1	@ D.11452, D.11451,
 1669 0050 021081E0 		add	r1, r1, r2	@ D.11454, D.11450, D.11453
 1670 0054 0C208DE2 		add	r2, sp, #12	@ tmp156,,
 1671 0058 0100A0E1 		mov	r0, r1	@, D.11454
 1672 005c 0210A0E1 		mov	r1, r2	@, tmp156
 1673 0060 0220A0E3 		mov	r2, #2	@,
 1674 0064 0FE0A0E1 		mov	lr, pc
 1675 0068 13FF2FE1 		bx	r3	@ D.11449
 1676 006c 0030A0E1 		mov	r3, r0	@ tmp157,
 1677 0070 000053E3 		cmp	r3, #0	@ D.11455,
 1678 0074 0030A013 		movne	r3, #0	@, tmp159
 1679 0078 0130A003 		moveq	r3, #1	@, tmp159
 1680 007c FF3003E2 		and	r3, r3, #255	@ retval.30, tmp158,
 1681 0080 000053E3 		cmp	r3, #0	@ retval.30,
 1682 0084 0100000A 		beq	.L112	@,
 700:fat16.cpp     ****         return 0;
 1683              		.loc 1 700 0
 1684 0088 0030A0E3 		mov	r3, #0	@ D.11446,
 1685 008c 1F0000EA 		b	.L111	@
 1686              	.L112:
 701:fat16.cpp     **** 
 702:fat16.cpp     ****     /* determine next cluster from fat */
 703:fat16.cpp     ****     cluster_num = ((uint16_t) fat_entry[0]) |
 1687              		.loc 1 703 0
 1688 0090 0C30DDE5 		ldrb	r3, [sp, #12]	@ zero_extendqisi2	@ D.11458, fat_entry
 704:fat16.cpp     ****     ((uint16_t) fat_entry[1] << 8);
 1689              		.loc 1 704 0
 1690 0094 0320A0E1 		mov	r2, r3	@ D.11459, D.11458
 1691 0098 0D30DDE5 		ldrb	r3, [sp, #13]	@ zero_extendqisi2	@ D.11460, fat_entry
ARM GAS  /tmp/ccwDRvq0.s 			page 44


 1692 009c 0334A0E1 		mov	r3, r3, asl #8	@ D.11462, D.11461,
 1693 00a0 0338A0E1 		mov	r3, r3, asl #16	@ tmp160, D.11462,
 1694 00a4 2338A0E1 		mov	r3, r3, lsr #16	@ D.11463, tmp160,
 1695 00a8 033082E1 		orr	r3, r2, r3	@ tmp163, tmp161, tmp162
 1696 00ac 0338A0E1 		mov	r3, r3, asl #16	@ tmp164, tmp163,
 1697 00b0 2338A0E1 		mov	r3, r3, lsr #16	@ D.11464, tmp164,
 1698 00b4 B230CDE1 		strh	r3, [sp, #2]	@ movhi	@ D.11464, cluster_num
 705:fat16.cpp     **** 	///*
 706:fat16.cpp     ****     if(cluster_num == FAT16_CLUSTER_FREE ||
 1699              		.loc 1 706 0
 1700 00b8 B230DDE1 		ldrh	r3, [sp, #2]	@ tmp165, cluster_num
 1701 00bc 000053E3 		cmp	r3, #0	@ tmp165,
 1702 00c0 0F00000A 		beq	.L113	@,
 1703              		.loc 1 706 0 is_stmt 0 discriminator 1
 1704 00c4 B220DDE1 		ldrh	r2, [sp, #2]	@ tmp166, cluster_num
 1705 00c8 50309FE5 		ldr	r3, .L116	@ tmp167,
 1706 00cc 030052E1 		cmp	r2, r3	@ tmp166, tmp167
 1707 00d0 0B00000A 		beq	.L113	@,
 1708              		.loc 1 706 0 discriminator 2
 1709 00d4 B220DDE1 		ldrh	r2, [sp, #2]	@ tmp168, cluster_num
 1710 00d8 44309FE5 		ldr	r3, .L116+4	@ tmp169,
 1711 00dc 030052E1 		cmp	r2, r3	@ tmp168, tmp169
 1712 00e0 0300009A 		bls	.L114	@,
 1713              		.loc 1 706 0 discriminator 3
 1714 00e4 B220DDE1 		ldrh	r2, [sp, #2]	@ tmp170, cluster_num
 1715 00e8 38309FE5 		ldr	r3, .L116+8	@ tmp171,
 1716 00ec 030052E1 		cmp	r2, r3	@ tmp170, tmp171
 1717 00f0 0300009A 		bls	.L113	@,
 1718              	.L114:
 1719              		.loc 1 706 0 discriminator 4
 1720 00f4 B220DDE1 		ldrh	r2, [sp, #2]	@ tmp172, cluster_num
 1721 00f8 20309FE5 		ldr	r3, .L116	@ tmp173,
 1722 00fc 030052E1 		cmp	r2, r3	@ tmp172, tmp173
 1723 0100 0100009A 		bls	.L115	@,
 1724              	.L113:
 707:fat16.cpp     ****         cluster_num == FAT16_CLUSTER_BAD ||
 708:fat16.cpp     ****        (cluster_num >= FAT16_CLUSTER_RESERVED_MIN && cluster_num <= FAT16_CLUSTER_RESERVED_MAX) ||
 709:fat16.cpp     ****        (cluster_num >= FAT16_CLUSTER_LAST_MIN && cluster_num <= FAT16_CLUSTER_LAST_MAX))
 710:fat16.cpp     ****     //*/
 711:fat16.cpp     **** 	return 0;
 1725              		.loc 1 711 0 is_stmt 1
 1726 0104 0030A0E3 		mov	r3, #0	@ D.11446,
 1727 0108 000000EA 		b	.L111	@
 1728              	.L115:
 712:fat16.cpp     **** 
 713:fat16.cpp     ****     return cluster_num;
 1729              		.loc 1 713 0
 1730 010c B230DDE1 		ldrh	r3, [sp, #2]	@ D.11446, cluster_num
 1731              	.L111:
 1732              	.LBE19:
 714:fat16.cpp     **** }
 1733              		.loc 1 714 0
 1734 0110 0300A0E1 		mov	r0, r3	@, <retval>
 1735 0114 14D08DE2 		add	sp, sp, #20	@,,
 1736 0118 04E09DE4 		ldr	lr, [sp], #4
 1737 011c 1EFF2FE1 		bx	lr
 1738              	.L117:
ARM GAS  /tmp/ccwDRvq0.s 			page 45


 1739              		.align	2
 1740              	.L116:
 1741 0120 F7FF0000 		.word	65527
 1742 0124 EFFF0000 		.word	65519
 1743 0128 F6FF0000 		.word	65526
 1744              		.cfi_endproc
 1745              	.LFE118:
 1746              		.size	_ZL22fat16_get_next_clusterPK15fat16_fs_structt, .-_ZL22fat16_get_next_clusterPK15fat16_fs_s
 1747              		.section	.text._ZL21fat16_append_clustersPK15fat16_fs_structtt,"ax",%progbits
 1748              		.align	2
 1749              		.type	_ZL21fat16_append_clustersPK15fat16_fs_structtt, %function
 1750              	_ZL21fat16_append_clustersPK15fat16_fs_structtt:
 1751              	.LFB119:
 715:fat16.cpp     **** 
 716:fat16.cpp     **** /**
 717:fat16.cpp     ****  * \ingroup fat16_fs
 718:fat16.cpp     ****  * Appends a new cluster chain to an existing one.
 719:fat16.cpp     ****  *
 720:fat16.cpp     ****  * Set cluster_num to zero to create a completely new one.
 721:fat16.cpp     ****  *
 722:fat16.cpp     ****  * \param[in] fs The file system on which to operate.
 723:fat16.cpp     ****  * \param[in] cluster_num The cluster to which to append the new chain.
 724:fat16.cpp     ****  * \param[in] count The number of clusters to allocate.
 725:fat16.cpp     ****  * \returns 0 on failure, the number of the first new cluster on success.
 726:fat16.cpp     ****  */
 727:fat16.cpp     **** uint16_t fat16_append_clusters(const struct fat16_fs_struct* fs, uint16_t cluster_num, uint16_t cou
 728:fat16.cpp     **** {
 1752              		.loc 1 728 0
 1753              		.cfi_startproc
 1754              		@ Function supports interworking.
 1755              		@ args = 0, pretend = 0, frame = 32
 1756              		@ frame_needed = 0, uses_anonymous_args = 0
 1757 0000 04E02DE5 		str	lr, [sp, #-4]!	@,
 1758              	.LCFI18:
 1759              		.cfi_def_cfa_offset 4
 1760 0004 24D04DE2 		sub	sp, sp, #36	@,,
 1761              	.LCFI19:
 1762              		.cfi_def_cfa_offset 40
 1763 0008 04008DE5 		str	r0, [sp, #4]	@ fs, fs
 1764 000c 0230A0E1 		mov	r3, r2	@ tmp168, count
 1765 0010 B210CDE1 		strh	r1, [sp, #2]	@ movhi	@ tmp167, cluster_num
 1766 0014 B030CDE1 		strh	r3, [sp, #0]	@ movhi	@ tmp168, count
 1767              	.LBB20:
 729:fat16.cpp     ****     #if FAT16_WRITE_SUPPORT
 730:fat16.cpp     ****         if(!fs)
 1768              		.loc 1 730 0
 1769 0018 04309DE5 		ldr	r3, [sp, #4]	@ tmp169, fs
 1770 001c 000053E3 		cmp	r3, #0	@ tmp169,
 1771 0020 0100001A 		bne	.L119	@,
 1772              		.cfi_offset 14, -4
 731:fat16.cpp     ****             return 0;
 1773              		.loc 1 731 0
 1774 0024 0030A0E3 		mov	r3, #0	@ D.11382,
 1775 0028 9C0000EA 		b	.L120	@
 1776              	.L119:
 732:fat16.cpp     ****     
 733:fat16.cpp     ****         device_read_t device_read = fs->partition->device_read;
ARM GAS  /tmp/ccwDRvq0.s 			page 46


 1777              		.loc 1 733 0
 1778 002c 04309DE5 		ldr	r3, [sp, #4]	@ tmp170, fs
 1779 0030 003093E5 		ldr	r3, [r3, #0]	@ D.11383, fs_9(D)->partition
 1780 0034 003093E5 		ldr	r3, [r3, #0]	@ tmp171, D.11383_11->device_read
 1781 0038 14308DE5 		str	r3, [sp, #20]	@ tmp171, device_read
 734:fat16.cpp     ****         device_write_t device_write = fs->partition->device_write;
 1782              		.loc 1 734 0
 1783 003c 04309DE5 		ldr	r3, [sp, #4]	@ tmp172, fs
 1784 0040 003093E5 		ldr	r3, [r3, #0]	@ D.11384, fs_9(D)->partition
 1785 0044 083093E5 		ldr	r3, [r3, #8]	@ tmp173, D.11384_13->device_write
 1786 0048 10308DE5 		str	r3, [sp, #16]	@ tmp173, device_write
 735:fat16.cpp     ****         uint32_t fat_offset = fs->header.fat_offset;
 1787              		.loc 1 735 0
 1788 004c 04309DE5 		ldr	r3, [sp, #4]	@ tmp174, fs
 1789 0050 083093E5 		ldr	r3, [r3, #8]	@ tmp175, fs_9(D)->header.fat_offset
 1790 0054 0C308DE5 		str	r3, [sp, #12]	@ tmp175, fat_offset
 736:fat16.cpp     ****         uint16_t cluster_max = fs->header.fat_size / 2;
 1791              		.loc 1 736 0
 1792 0058 04309DE5 		ldr	r3, [sp, #4]	@ tmp176, fs
 1793 005c 0C3093E5 		ldr	r3, [r3, #12]	@ D.11385, fs_9(D)->header.fat_size
 1794 0060 A330A0E1 		mov	r3, r3, lsr #1	@ D.11386, D.11385,
 1795 0064 BA30CDE1 		strh	r3, [sp, #10]	@ movhi	@ D.11386, cluster_max
 737:fat16.cpp     ****         uint16_t cluster_next = 0;
 1796              		.loc 1 737 0
 1797 0068 0030A0E3 		mov	r3, #0	@ tmp178,
 1798 006c BE31CDE1 		strh	r3, [sp, #30]	@ movhi	@ tmp177, cluster_next
 738:fat16.cpp     ****         uint16_t count_left = count;
 1799              		.loc 1 738 0
 1800 0070 B030DDE1 		ldrh	r3, [sp, #0]	@ movhi	@ tmp179, count
 1801 0074 BC31CDE1 		strh	r3, [sp, #28]	@ movhi	@ tmp179, count_left
 739:fat16.cpp     ****         uint8_t buffer[2];
 740:fat16.cpp     ****         uint16_t cluster_new;
 741:fat16.cpp     ****         for(cluster_new = 0; cluster_new < cluster_max; ++cluster_new)
 1802              		.loc 1 741 0
 1803 0078 0030A0E3 		mov	r3, #0	@ tmp181,
 1804 007c BA31CDE1 		strh	r3, [sp, #26]	@ movhi	@ tmp180, cluster_new
 1805 0080 4E0000EA 		b	.L121	@
 1806              	.L128:
 742:fat16.cpp     ****         {
 743:fat16.cpp     ****             if(!device_read(fat_offset + 2 * cluster_new, buffer, sizeof(buffer)))
 1807              		.loc 1 743 0
 1808 0084 BA31DDE1 		ldrh	r3, [sp, #26]	@ D.11393, cluster_new
 1809 0088 8330A0E1 		mov	r3, r3, asl #1	@ D.11394, D.11393,
 1810 008c 0320A0E1 		mov	r2, r3	@ D.11395, D.11394
 1811 0090 0C309DE5 		ldr	r3, [sp, #12]	@ tmp182, fat_offset
 1812 0094 031082E0 		add	r1, r2, r3	@ D.11396, D.11395, tmp182
 1813 0098 08208DE2 		add	r2, sp, #8	@ tmp183,,
 1814 009c 14309DE5 		ldr	r3, [sp, #20]	@ tmp184, device_read
 1815 00a0 0100A0E1 		mov	r0, r1	@, D.11396
 1816 00a4 0210A0E1 		mov	r1, r2	@, tmp183
 1817 00a8 0220A0E3 		mov	r2, #2	@,
 1818 00ac 0FE0A0E1 		mov	lr, pc
 1819 00b0 13FF2FE1 		bx	r3	@ tmp184
 1820 00b4 0030A0E1 		mov	r3, r0	@ tmp185,
 1821 00b8 000053E3 		cmp	r3, #0	@ D.11397,
 1822 00bc 0030A013 		movne	r3, #0	@, tmp187
 1823 00c0 0130A003 		moveq	r3, #1	@, tmp187
ARM GAS  /tmp/ccwDRvq0.s 			page 47


 1824 00c4 FF3003E2 		and	r3, r3, #255	@ retval.26, tmp186,
 1825 00c8 000053E3 		cmp	r3, #0	@ retval.26,
 1826 00cc 0100000A 		beq	.L122	@,
 744:fat16.cpp     ****                 return 0;
 1827              		.loc 1 744 0
 1828 00d0 0030A0E3 		mov	r3, #0	@ D.11382,
 1829 00d4 710000EA 		b	.L120	@
 1830              	.L122:
 745:fat16.cpp     ****     
 746:fat16.cpp     ****             /* check if this is a free cluster */
 747:fat16.cpp     ****             if(buffer[0] == (FAT16_CLUSTER_FREE & 0xff) &&
 1831              		.loc 1 747 0
 1832 00d8 0830DDE5 		ldrb	r3, [sp, #8]	@ zero_extendqisi2	@ D.11400, buffer
 1833 00dc 000053E3 		cmp	r3, #0	@ D.11400,
 1834 00e0 3300001A 		bne	.L123	@,
 748:fat16.cpp     ****                 buffer[1] == ((FAT16_CLUSTER_FREE >> 8) & 0xff))
 1835              		.loc 1 748 0 discriminator 1
 1836 00e4 0930DDE5 		ldrb	r3, [sp, #9]	@ zero_extendqisi2	@ D.11403, buffer
 747:fat16.cpp     ****             if(buffer[0] == (FAT16_CLUSTER_FREE & 0xff) &&
 1837              		.loc 1 747 0 discriminator 1
 1838 00e8 000053E3 		cmp	r3, #0	@ D.11403,
 1839 00ec 3000001A 		bne	.L123	@,
 749:fat16.cpp     ****             {
 750:fat16.cpp     ****                 /* allocate cluster */
 751:fat16.cpp     ****                 if(count_left == count)
 1840              		.loc 1 751 0
 1841 00f0 BC21DDE1 		ldrh	r2, [sp, #28]	@ tmp188, count_left
 1842 00f4 B030DDE1 		ldrh	r3, [sp, #0]	@ tmp189, count
 1843 00f8 030052E1 		cmp	r2, r3	@ tmp188, tmp189
 1844 00fc 0400001A 		bne	.L124	@,
 752:fat16.cpp     ****                 {
 753:fat16.cpp     ****                     buffer[0] = FAT16_CLUSTER_LAST_MAX & 0xff;
 1845              		.loc 1 753 0
 1846 0100 0030E0E3 		mvn	r3, #0	@ tmp190,
 1847 0104 0830CDE5 		strb	r3, [sp, #8]	@ tmp191, buffer
 754:fat16.cpp     ****                     buffer[1] = (FAT16_CLUSTER_LAST_MAX >> 8) & 0xff;
 1848              		.loc 1 754 0
 1849 0108 0030E0E3 		mvn	r3, #0	@ tmp192,
 1850 010c 0930CDE5 		strb	r3, [sp, #9]	@ tmp193, buffer
 1851 0110 080000EA 		b	.L125	@
 1852              	.L124:
 755:fat16.cpp     ****                 }
 756:fat16.cpp     ****                 else
 757:fat16.cpp     ****                 {
 758:fat16.cpp     ****                     buffer[0] = cluster_next & 0xff;
 1853              		.loc 1 758 0
 1854 0114 BE31DDE1 		ldrh	r3, [sp, #30]	@ movhi	@ tmp194, cluster_next
 1855 0118 FF3003E2 		and	r3, r3, #255	@ D.11409, tmp194,
 1856 011c 0830CDE5 		strb	r3, [sp, #8]	@ tmp195, buffer
 759:fat16.cpp     ****                     buffer[1] = (cluster_next >> 8) & 0xff;
 1857              		.loc 1 759 0
 1858 0120 BE31DDE1 		ldrh	r3, [sp, #30]	@ tmp196, cluster_next
 1859 0124 2334A0E1 		mov	r3, r3, lsr #8	@ tmp197, tmp196,
 1860 0128 0338A0E1 		mov	r3, r3, asl #16	@ tmp198, tmp197,
 1861 012c 2338A0E1 		mov	r3, r3, lsr #16	@ D.11410, tmp198,
 1862 0130 FF3003E2 		and	r3, r3, #255	@ D.11411, D.11410,
 1863 0134 0930CDE5 		strb	r3, [sp, #9]	@ tmp199, buffer
ARM GAS  /tmp/ccwDRvq0.s 			page 48


 1864              	.L125:
 760:fat16.cpp     ****                 }
 761:fat16.cpp     ****     
 762:fat16.cpp     ****                 if(!device_write(fat_offset + 2 * cluster_new, buffer, sizeof(buffer)))
 1865              		.loc 1 762 0
 1866 0138 BA31DDE1 		ldrh	r3, [sp, #26]	@ D.11413, cluster_new
 1867 013c 8330A0E1 		mov	r3, r3, asl #1	@ D.11414, D.11413,
 1868 0140 0320A0E1 		mov	r2, r3	@ D.11415, D.11414
 1869 0144 0C309DE5 		ldr	r3, [sp, #12]	@ tmp200, fat_offset
 1870 0148 031082E0 		add	r1, r2, r3	@ D.11416, D.11415, tmp200
 1871 014c 08208DE2 		add	r2, sp, #8	@ tmp201,,
 1872 0150 10309DE5 		ldr	r3, [sp, #16]	@ tmp202, device_write
 1873 0154 0100A0E1 		mov	r0, r1	@, D.11416
 1874 0158 0210A0E1 		mov	r1, r2	@, tmp201
 1875 015c 0220A0E3 		mov	r2, #2	@,
 1876 0160 0FE0A0E1 		mov	lr, pc
 1877 0164 13FF2FE1 		bx	r3	@ tmp202
 1878 0168 0030A0E1 		mov	r3, r0	@ tmp203,
 1879 016c 000053E3 		cmp	r3, #0	@ D.11417,
 1880 0170 0030A013 		movne	r3, #0	@, tmp205
 1881 0174 0130A003 		moveq	r3, #1	@, tmp205
 1882 0178 FF3003E2 		and	r3, r3, #255	@ retval.27, tmp204,
 1883 017c 000053E3 		cmp	r3, #0	@ retval.27,
 1884 0180 1700001A 		bne	.L132	@,
 1885              	.L126:
 763:fat16.cpp     ****                     break;
 764:fat16.cpp     ****     
 765:fat16.cpp     ****                 cluster_next = cluster_new;
 1886              		.loc 1 765 0
 1887 0184 BA31DDE1 		ldrh	r3, [sp, #26]	@ movhi	@ tmp206, cluster_new
 1888 0188 BE31CDE1 		strh	r3, [sp, #30]	@ movhi	@ tmp206, cluster_next
 766:fat16.cpp     ****                 if(--count_left == 0)
 1889              		.loc 1 766 0
 1890 018c BC31DDE1 		ldrh	r3, [sp, #28]	@ movhi	@ tmp207, count_left
 1891 0190 013043E2 		sub	r3, r3, #1	@ tmp208, tmp207,
 1892 0194 BC31CDE1 		strh	r3, [sp, #28]	@ movhi	@ tmp208, count_left
 1893 0198 BC31DDE1 		ldrh	r3, [sp, #28]	@ tmp210, count_left
 1894 019c 000053E3 		cmp	r3, #0	@ tmp210,
 1895 01a0 0030A013 		movne	r3, #0	@, tmp211
 1896 01a4 0130A003 		moveq	r3, #1	@, tmp211
 1897 01a8 FF3003E2 		and	r3, r3, #255	@ retval.28, tmp209,
 1898 01ac 000053E3 		cmp	r3, #0	@ retval.28,
 1899 01b0 0D00001A 		bne	.L133	@,
 1900              	.L123:
 741:fat16.cpp     ****         for(cluster_new = 0; cluster_new < cluster_max; ++cluster_new)
 1901              		.loc 1 741 0
 1902 01b4 BA31DDE1 		ldrh	r3, [sp, #26]	@ movhi	@ tmp212, cluster_new
 1903 01b8 013083E2 		add	r3, r3, #1	@ tmp213, tmp212,
 1904 01bc BA31CDE1 		strh	r3, [sp, #26]	@ movhi	@ tmp213, cluster_new
 1905              	.L121:
 741:fat16.cpp     ****         for(cluster_new = 0; cluster_new < cluster_max; ++cluster_new)
 1906              		.loc 1 741 0 is_stmt 0 discriminator 1
 1907 01c0 BA21DDE1 		ldrh	r2, [sp, #26]	@ tmp215, cluster_new
 1908 01c4 BA30DDE1 		ldrh	r3, [sp, #10]	@ tmp216, cluster_max
 1909 01c8 030052E1 		cmp	r2, r3	@ tmp215, tmp216
 1910 01cc 0030A023 		movcs	r3, #0	@, tmp217
 1911 01d0 0130A033 		movcc	r3, #1	@, tmp217
ARM GAS  /tmp/ccwDRvq0.s 			page 49


 1912 01d4 FF3003E2 		and	r3, r3, #255	@ D.11390, tmp214,
 1913 01d8 000053E3 		cmp	r3, #0	@ D.11390,
 1914 01dc A8FFFF1A 		bne	.L128	@,
 1915 01e0 020000EA 		b	.L127	@
 1916              	.L132:
 763:fat16.cpp     ****                     break;
 1917              		.loc 1 763 0 is_stmt 1
 1918 01e4 0000A0E1 		mov	r0, r0	@ nop
 1919 01e8 000000EA 		b	.L127	@
 1920              	.L133:
 767:fat16.cpp     ****                     break;
 1921              		.loc 1 767 0
 1922 01ec 0000A0E1 		mov	r0, r0	@ nop
 1923              	.L127:
 768:fat16.cpp     ****             }
 769:fat16.cpp     ****         }
 770:fat16.cpp     ****     
 771:fat16.cpp     ****         do
 772:fat16.cpp     ****         {
 773:fat16.cpp     ****             if(count_left > 0)
 1924              		.loc 1 773 0
 1925 01f0 BC31DDE1 		ldrh	r3, [sp, #28]	@ tmp218, count_left
 1926 01f4 000053E3 		cmp	r3, #0	@ tmp218,
 1927 01f8 2000001A 		bne	.L134	@,
 1928              	.L129:
 774:fat16.cpp     ****                 break;
 775:fat16.cpp     ****     
 776:fat16.cpp     ****             /* We allocated a new cluster chain. Now join
 777:fat16.cpp     ****                                              * it with the existing one.
 778:fat16.cpp     ****                                              */
 779:fat16.cpp     ****             if(cluster_num >= 2)
 1929              		.loc 1 779 0
 1930 01fc B230DDE1 		ldrh	r3, [sp, #2]	@ tmp219, cluster_num
 1931 0200 010053E3 		cmp	r3, #1	@ tmp219,
 1932 0204 1B00009A 		bls	.L131	@,
 780:fat16.cpp     ****             {
 781:fat16.cpp     ****                 buffer[0] = cluster_next & 0xff;
 1933              		.loc 1 781 0
 1934 0208 BE31DDE1 		ldrh	r3, [sp, #30]	@ movhi	@ tmp220, cluster_next
 1935 020c FF3003E2 		and	r3, r3, #255	@ D.11430, tmp220,
 1936 0210 0830CDE5 		strb	r3, [sp, #8]	@ tmp221, buffer
 782:fat16.cpp     ****                 buffer[1] = (cluster_next >> 8) & 0xff;
 1937              		.loc 1 782 0
 1938 0214 BE31DDE1 		ldrh	r3, [sp, #30]	@ tmp222, cluster_next
 1939 0218 2334A0E1 		mov	r3, r3, lsr #8	@ tmp223, tmp222,
 1940 021c 0338A0E1 		mov	r3, r3, asl #16	@ tmp224, tmp223,
 1941 0220 2338A0E1 		mov	r3, r3, lsr #16	@ D.11431, tmp224,
 1942 0224 FF3003E2 		and	r3, r3, #255	@ D.11432, D.11431,
 1943 0228 0930CDE5 		strb	r3, [sp, #9]	@ tmp225, buffer
 783:fat16.cpp     ****                 if(!device_write(fat_offset + 2 * cluster_num, buffer, sizeof(buffer)))
 1944              		.loc 1 783 0
 1945 022c B230DDE1 		ldrh	r3, [sp, #2]	@ D.11434, cluster_num
 1946 0230 8330A0E1 		mov	r3, r3, asl #1	@ D.11435, D.11434,
 1947 0234 0320A0E1 		mov	r2, r3	@ D.11436, D.11435
 1948 0238 0C309DE5 		ldr	r3, [sp, #12]	@ tmp226, fat_offset
 1949 023c 031082E0 		add	r1, r2, r3	@ D.11437, D.11436, tmp226
 1950 0240 08208DE2 		add	r2, sp, #8	@ tmp227,,
ARM GAS  /tmp/ccwDRvq0.s 			page 50


 1951 0244 10309DE5 		ldr	r3, [sp, #16]	@ tmp228, device_write
 1952 0248 0100A0E1 		mov	r0, r1	@, D.11437
 1953 024c 0210A0E1 		mov	r1, r2	@, tmp227
 1954 0250 0220A0E3 		mov	r2, #2	@,
 1955 0254 0FE0A0E1 		mov	lr, pc
 1956 0258 13FF2FE1 		bx	r3	@ tmp228
 1957 025c 0030A0E1 		mov	r3, r0	@ tmp229,
 1958 0260 000053E3 		cmp	r3, #0	@ D.11438,
 1959 0264 0030A013 		movne	r3, #0	@, tmp231
 1960 0268 0130A003 		moveq	r3, #1	@, tmp231
 1961 026c FF3003E2 		and	r3, r3, #255	@ retval.29, tmp230,
 1962 0270 000053E3 		cmp	r3, #0	@ retval.29,
 1963 0274 0300001A 		bne	.L135	@,
 1964              	.L131:
 784:fat16.cpp     ****                     break;
 785:fat16.cpp     ****             }
 786:fat16.cpp     ****     
 787:fat16.cpp     ****             return cluster_next;
 1965              		.loc 1 787 0
 1966 0278 BE31DDE1 		ldrh	r3, [sp, #30]	@ D.11382, cluster_next
 1967 027c 070000EA 		b	.L120	@
 1968              	.L134:
 774:fat16.cpp     ****                 break;
 1969              		.loc 1 774 0
 1970 0280 0000A0E1 		mov	r0, r0	@ nop
 1971 0284 000000EA 		b	.L130	@
 1972              	.L135:
 784:fat16.cpp     ****                     break;
 1973              		.loc 1 784 0
 1974 0288 0000A0E1 		mov	r0, r0	@ nop
 1975              	.L130:
 788:fat16.cpp     ****     
 789:fat16.cpp     ****         }
 790:fat16.cpp     ****         while(0);
 791:fat16.cpp     ****     
 792:fat16.cpp     ****         /* No space left on device or writing error.
 793:fat16.cpp     ****                              * Free up all clusters already allocated.
 794:fat16.cpp     ****                              */
 795:fat16.cpp     ****         fat16_free_clusters(fs, cluster_next);
 1976              		.loc 1 795 0
 1977 028c BE31DDE1 		ldrh	r3, [sp, #30]	@ tmp232, cluster_next
 1978 0290 04009DE5 		ldr	r0, [sp, #4]	@, fs
 1979 0294 0310A0E1 		mov	r1, r3	@, tmp232
 1980 0298 FEFFFFEB 		bl	_ZL19fat16_free_clustersPK15fat16_fs_structt	@
 796:fat16.cpp     ****     
 797:fat16.cpp     ****         return 0;
 1981              		.loc 1 797 0
 1982 029c 0030A0E3 		mov	r3, #0	@ D.11382,
 1983              	.L120:
 1984              	.LBE20:
 798:fat16.cpp     ****     #else
 799:fat16.cpp     ****         return 0;
 800:fat16.cpp     ****     #endif
 801:fat16.cpp     **** }
 1985              		.loc 1 801 0
 1986 02a0 0300A0E1 		mov	r0, r3	@, <retval>
 1987 02a4 24D08DE2 		add	sp, sp, #36	@,,
ARM GAS  /tmp/ccwDRvq0.s 			page 51


 1988 02a8 04E09DE4 		ldr	lr, [sp], #4
 1989 02ac 1EFF2FE1 		bx	lr
 1990              		.cfi_endproc
 1991              	.LFE119:
 1992              		.size	_ZL21fat16_append_clustersPK15fat16_fs_structtt, .-_ZL21fat16_append_clustersPK15fat16_fs_st
 1993              		.section	.text._ZL19fat16_free_clustersPK15fat16_fs_structt,"ax",%progbits
 1994              		.align	2
 1995              		.type	_ZL19fat16_free_clustersPK15fat16_fs_structt, %function
 1996              	_ZL19fat16_free_clustersPK15fat16_fs_structt:
 1997              	.LFB120:
 802:fat16.cpp     **** 
 803:fat16.cpp     **** /**
 804:fat16.cpp     ****  * \ingroup fat16_fs
 805:fat16.cpp     ****  * Frees a cluster chain, or a part thereof.
 806:fat16.cpp     ****  *
 807:fat16.cpp     ****  * Marks the specified cluster and all clusters which are sequentially
 808:fat16.cpp     ****  * referenced by it as free. They may then be used again for future
 809:fat16.cpp     ****  * file allocations.
 810:fat16.cpp     ****  *
 811:fat16.cpp     ****  * \note If this function is used for freeing just a part of a cluster
 812:fat16.cpp     ****  *       chain, the new end of the chain is not correctly terminated
 813:fat16.cpp     ****  *       within the FAT. Use fat16_terminate_clusters() instead.
 814:fat16.cpp     ****  *
 815:fat16.cpp     ****  * \param[in] fs The filesystem on which to operate.
 816:fat16.cpp     ****  * \param[in] cluster_num The starting cluster of the chain which to free.
 817:fat16.cpp     ****  * \returns 0 on failure, 1 on success.
 818:fat16.cpp     ****  * \see fat16_terminate_clusters
 819:fat16.cpp     ****  */
 820:fat16.cpp     **** uint8_t fat16_free_clusters(const struct fat16_fs_struct* fs, uint16_t cluster_num)
 821:fat16.cpp     **** {
 1998              		.loc 1 821 0
 1999              		.cfi_startproc
 2000              		@ Function supports interworking.
 2001              		@ args = 0, pretend = 0, frame = 24
 2002              		@ frame_needed = 0, uses_anonymous_args = 0
 2003 0000 04E02DE5 		str	lr, [sp, #-4]!	@,
 2004              	.LCFI20:
 2005              		.cfi_def_cfa_offset 4
 2006 0004 1CD04DE2 		sub	sp, sp, #28	@,,
 2007              	.LCFI21:
 2008              		.cfi_def_cfa_offset 32
 2009 0008 04008DE5 		str	r0, [sp, #4]	@ fs, fs
 2010 000c 0130A0E1 		mov	r3, r1	@ tmp157, cluster_num
 2011 0010 B230CDE1 		strh	r3, [sp, #2]	@ movhi	@ tmp157, cluster_num
 2012              	.LBB21:
 822:fat16.cpp     ****     #if FAT16_WRITE_SUPPORT
 823:fat16.cpp     ****         if(!fs || cluster_num < 2)
 2013              		.loc 1 823 0
 2014 0014 04309DE5 		ldr	r3, [sp, #4]	@ tmp158, fs
 2015 0018 000053E3 		cmp	r3, #0	@ tmp158,
 2016 001c 0200000A 		beq	.L137	@,
 2017              		.cfi_offset 14, -4
 2018              		.loc 1 823 0 is_stmt 0 discriminator 1
 2019 0020 B230DDE1 		ldrh	r3, [sp, #2]	@ tmp159, cluster_num
 2020 0024 010053E3 		cmp	r3, #1	@ tmp159,
 2021 0028 0100008A 		bhi	.L138	@,
 2022              	.L137:
ARM GAS  /tmp/ccwDRvq0.s 			page 52


 824:fat16.cpp     ****             return 0;
 2023              		.loc 1 824 0 is_stmt 1
 2024 002c 0030A0E3 		mov	r3, #0	@ D.11342,
 2025 0030 590000EA 		b	.L139	@
 2026              	.L138:
 825:fat16.cpp     ****     
 826:fat16.cpp     ****         uint32_t fat_offset = fs->header.fat_offset;
 2027              		.loc 1 826 0
 2028 0034 04309DE5 		ldr	r3, [sp, #4]	@ tmp160, fs
 2029 0038 083093E5 		ldr	r3, [r3, #8]	@ tmp161, fs_4(D)->header.fat_offset
 2030 003c 10308DE5 		str	r3, [sp, #16]	@ tmp161, fat_offset
 827:fat16.cpp     ****         uint8_t buffer[2];
 828:fat16.cpp     ****         while(cluster_num)
 2031              		.loc 1 828 0
 2032 0040 4D0000EA 		b	.L140	@
 2033              	.L146:
 2034              	.LBB22:
 829:fat16.cpp     ****         {
 830:fat16.cpp     ****             if(!fs->partition->device_read(fat_offset + 2 * cluster_num, buffer, 2))
 2035              		.loc 1 830 0
 2036 0044 04309DE5 		ldr	r3, [sp, #4]	@ tmp162, fs
 2037 0048 003093E5 		ldr	r3, [r3, #0]	@ D.11348, fs_4(D)->partition
 2038 004c 003093E5 		ldr	r3, [r3, #0]	@ D.11349, D.11348_8->device_read
 2039 0050 B220DDE1 		ldrh	r2, [sp, #2]	@ D.11350, cluster_num
 2040 0054 8220A0E1 		mov	r2, r2, asl #1	@ D.11351, D.11350,
 2041 0058 0210A0E1 		mov	r1, r2	@ D.11352, D.11351
 2042 005c 10209DE5 		ldr	r2, [sp, #16]	@ tmp163, fat_offset
 2043 0060 021081E0 		add	r1, r1, r2	@ D.11353, D.11352, tmp163
 2044 0064 0C208DE2 		add	r2, sp, #12	@ tmp164,,
 2045 0068 0100A0E1 		mov	r0, r1	@, D.11353
 2046 006c 0210A0E1 		mov	r1, r2	@, tmp164
 2047 0070 0220A0E3 		mov	r2, #2	@,
 2048 0074 0FE0A0E1 		mov	lr, pc
 2049 0078 13FF2FE1 		bx	r3	@ D.11349
 2050 007c 0030A0E1 		mov	r3, r0	@ tmp165,
 2051 0080 000053E3 		cmp	r3, #0	@ D.11354,
 2052 0084 0030A013 		movne	r3, #0	@, tmp167
 2053 0088 0130A003 		moveq	r3, #1	@, tmp167
 2054 008c FF3003E2 		and	r3, r3, #255	@ retval.25, tmp166,
 2055 0090 000053E3 		cmp	r3, #0	@ retval.25,
 2056 0094 0100000A 		beq	.L141	@,
 831:fat16.cpp     ****                 return 0;
 2057              		.loc 1 831 0
 2058 0098 0030A0E3 		mov	r3, #0	@ D.11342,
 2059 009c 3E0000EA 		b	.L139	@
 2060              	.L141:
 832:fat16.cpp     ****     
 833:fat16.cpp     ****             /* get next cluster of current cluster before freeing current cluster */
 834:fat16.cpp     ****             uint16_t cluster_num_next = ((uint16_t) buffer[0]) |
 2061              		.loc 1 834 0
 2062 00a0 0C30DDE5 		ldrb	r3, [sp, #12]	@ zero_extendqisi2	@ D.11357, buffer
 835:fat16.cpp     ****             ((uint16_t) buffer[1] << 8);
 2063              		.loc 1 835 0
 2064 00a4 0320A0E1 		mov	r2, r3	@ D.11358, D.11357
 2065 00a8 0D30DDE5 		ldrb	r3, [sp, #13]	@ zero_extendqisi2	@ D.11359, buffer
 2066 00ac 0334A0E1 		mov	r3, r3, asl #8	@ D.11361, D.11360,
 2067 00b0 0338A0E1 		mov	r3, r3, asl #16	@ tmp168, D.11361,
ARM GAS  /tmp/ccwDRvq0.s 			page 53


 2068 00b4 2338A0E1 		mov	r3, r3, lsr #16	@ D.11362, tmp168,
 2069 00b8 033082E1 		orr	r3, r2, r3	@ tmp171, tmp169, tmp170
 2070 00bc 0338A0E1 		mov	r3, r3, asl #16	@ tmp172, tmp171,
 2071 00c0 2338A0E1 		mov	r3, r3, lsr #16	@ D.11363, tmp172,
 2072 00c4 B631CDE1 		strh	r3, [sp, #22]	@ movhi	@ D.11363, cluster_num_next
 836:fat16.cpp     ****     
 837:fat16.cpp     ****             if(cluster_num_next == FAT16_CLUSTER_FREE)
 2073              		.loc 1 837 0
 2074 00c8 B631DDE1 		ldrh	r3, [sp, #22]	@ tmp173, cluster_num_next
 2075 00cc 000053E3 		cmp	r3, #0	@ tmp173,
 2076 00d0 0100001A 		bne	.L142	@,
 838:fat16.cpp     ****                 return 1;
 2077              		.loc 1 838 0
 2078 00d4 0130A0E3 		mov	r3, #1	@ D.11342,
 2079 00d8 2F0000EA 		b	.L139	@
 2080              	.L142:
 839:fat16.cpp     ****             if(cluster_num_next == FAT16_CLUSTER_BAD ||
 2081              		.loc 1 839 0
 2082 00dc B621DDE1 		ldrh	r2, [sp, #22]	@ tmp174, cluster_num_next
 2083 00e0 C4309FE5 		ldr	r3, .L147	@ tmp175,
 2084 00e4 030052E1 		cmp	r2, r3	@ tmp174, tmp175
 2085 00e8 0700000A 		beq	.L143	@,
 2086              		.loc 1 839 0 is_stmt 0 discriminator 1
 2087 00ec B621DDE1 		ldrh	r2, [sp, #22]	@ tmp176, cluster_num_next
 2088 00f0 B8309FE5 		ldr	r3, .L147+4	@ tmp177,
 2089 00f4 030052E1 		cmp	r2, r3	@ tmp176, tmp177
 2090 00f8 0500009A 		bls	.L144	@,
 2091              		.loc 1 839 0 discriminator 2
 2092 00fc B621DDE1 		ldrh	r2, [sp, #22]	@ tmp178, cluster_num_next
 2093 0100 AC309FE5 		ldr	r3, .L147+8	@ tmp179,
 2094 0104 030052E1 		cmp	r2, r3	@ tmp178, tmp179
 2095 0108 0100008A 		bhi	.L144	@,
 2096              	.L143:
 840:fat16.cpp     ****                 (cluster_num_next >= FAT16_CLUSTER_RESERVED_MIN &&
 841:fat16.cpp     ****                cluster_num_next <= FAT16_CLUSTER_RESERVED_MAX
 842:fat16.cpp     ****                )
 843:fat16.cpp     ****                )
 844:fat16.cpp     ****             return 0;
 2097              		.loc 1 844 0 is_stmt 1
 2098 010c 0030A0E3 		mov	r3, #0	@ D.11342,
 2099 0110 210000EA 		b	.L139	@
 2100              	.L144:
 845:fat16.cpp     **** 			///*
 846:fat16.cpp     ****             if((cluster_num_next >= FAT16_CLUSTER_LAST_MIN) &&
 2101              		.loc 1 846 0
 2102 0114 B621DDE1 		ldrh	r2, [sp, #22]	@ tmp180, cluster_num_next
 2103 0118 8C309FE5 		ldr	r3, .L147	@ tmp181,
 2104 011c 030052E1 		cmp	r2, r3	@ tmp180, tmp181
 2105 0120 0100009A 		bls	.L145	@,
 847:fat16.cpp     ****                 (cluster_num_next <= FAT16_CLUSTER_LAST_MAX)
 848:fat16.cpp     ****                )
 849:fat16.cpp     **** 			//*/
 850:fat16.cpp     ****             cluster_num_next = 0;
 2106              		.loc 1 850 0
 2107 0124 0030A0E3 		mov	r3, #0	@ tmp183,
 2108 0128 B631CDE1 		strh	r3, [sp, #22]	@ movhi	@ tmp182, cluster_num_next
 2109              	.L145:
ARM GAS  /tmp/ccwDRvq0.s 			page 54


 851:fat16.cpp     ****     
 852:fat16.cpp     ****             /* free cluster */
 853:fat16.cpp     ****             buffer[0] = FAT16_CLUSTER_FREE & 0xff;
 2110              		.loc 1 853 0
 2111 012c 0030A0E3 		mov	r3, #0	@ tmp184,
 2112 0130 0C30CDE5 		strb	r3, [sp, #12]	@ tmp185, buffer
 854:fat16.cpp     ****             buffer[1] = (FAT16_CLUSTER_FREE >> 8) & 0xff;
 2113              		.loc 1 854 0
 2114 0134 0030A0E3 		mov	r3, #0	@ tmp186,
 2115 0138 0D30CDE5 		strb	r3, [sp, #13]	@ tmp187, buffer
 855:fat16.cpp     ****             fs->partition->device_write(fat_offset + 2 * cluster_num, buffer, 2);
 2116              		.loc 1 855 0
 2117 013c 04309DE5 		ldr	r3, [sp, #4]	@ tmp188, fs
 2118 0140 003093E5 		ldr	r3, [r3, #0]	@ D.11373, fs_4(D)->partition
 2119 0144 083093E5 		ldr	r3, [r3, #8]	@ D.11374, D.11373_27->device_write
 2120 0148 B220DDE1 		ldrh	r2, [sp, #2]	@ D.11375, cluster_num
 2121 014c 8220A0E1 		mov	r2, r2, asl #1	@ D.11376, D.11375,
 2122 0150 0210A0E1 		mov	r1, r2	@ D.11377, D.11376
 2123 0154 10209DE5 		ldr	r2, [sp, #16]	@ tmp189, fat_offset
 2124 0158 021081E0 		add	r1, r1, r2	@ D.11378, D.11377, tmp189
 2125 015c 0C208DE2 		add	r2, sp, #12	@ tmp190,,
 2126 0160 0100A0E1 		mov	r0, r1	@, D.11378
 2127 0164 0210A0E1 		mov	r1, r2	@, tmp190
 2128 0168 0220A0E3 		mov	r2, #2	@,
 2129 016c 0FE0A0E1 		mov	lr, pc
 2130 0170 13FF2FE1 		bx	r3	@ D.11374
 856:fat16.cpp     ****     
 857:fat16.cpp     ****             /* We continue in any case here, even if freeing the cluster failed.
 858:fat16.cpp     ****                                              * The cluster is lost, but maybe we can still free up 
 859:fat16.cpp     ****                                              */
 860:fat16.cpp     ****     
 861:fat16.cpp     ****             cluster_num = cluster_num_next;
 2131              		.loc 1 861 0
 2132 0174 B631DDE1 		ldrh	r3, [sp, #22]	@ movhi	@ tmp191, cluster_num_next
 2133 0178 B230CDE1 		strh	r3, [sp, #2]	@ movhi	@ tmp191, cluster_num
 2134              	.L140:
 2135              	.LBE22:
 828:fat16.cpp     ****         while(cluster_num)
 2136              		.loc 1 828 0 discriminator 1
 2137 017c B230DDE1 		ldrh	r3, [sp, #2]	@ tmp193, cluster_num
 2138 0180 000053E3 		cmp	r3, #0	@ tmp193,
 2139 0184 0030A003 		moveq	r3, #0	@, tmp194
 2140 0188 0130A013 		movne	r3, #1	@, tmp194
 2141 018c FF3003E2 		and	r3, r3, #255	@ D.11346, tmp192,
 2142 0190 000053E3 		cmp	r3, #0	@ D.11346,
 2143 0194 AAFFFF1A 		bne	.L146	@,
 862:fat16.cpp     ****         }
 863:fat16.cpp     ****     
 864:fat16.cpp     ****         return 1;
 2144              		.loc 1 864 0
 2145 0198 0130A0E3 		mov	r3, #1	@ D.11342,
 2146              	.L139:
 2147              	.LBE21:
 865:fat16.cpp     ****     #else
 866:fat16.cpp     ****         return 0;
 867:fat16.cpp     ****     #endif
 868:fat16.cpp     **** }
ARM GAS  /tmp/ccwDRvq0.s 			page 55


 2148              		.loc 1 868 0
 2149 019c 0300A0E1 		mov	r0, r3	@, <retval>
 2150 01a0 1CD08DE2 		add	sp, sp, #28	@,,
 2151 01a4 04E09DE4 		ldr	lr, [sp], #4
 2152 01a8 1EFF2FE1 		bx	lr
 2153              	.L148:
 2154              		.align	2
 2155              	.L147:
 2156 01ac F7FF0000 		.word	65527
 2157 01b0 EFFF0000 		.word	65519
 2158 01b4 F6FF0000 		.word	65526
 2159              		.cfi_endproc
 2160              	.LFE120:
 2161              		.size	_ZL19fat16_free_clustersPK15fat16_fs_structt, .-_ZL19fat16_free_clustersPK15fat16_fs_structt
 2162              		.section	.text._ZL24fat16_terminate_clustersPK15fat16_fs_structt,"ax",%progbits
 2163              		.align	2
 2164              		.type	_ZL24fat16_terminate_clustersPK15fat16_fs_structt, %function
 2165              	_ZL24fat16_terminate_clustersPK15fat16_fs_structt:
 2166              	.LFB121:
 869:fat16.cpp     **** 
 870:fat16.cpp     **** /**
 871:fat16.cpp     ****  * \ingroup fat16_fs
 872:fat16.cpp     ****  * Frees a part of a cluster chain and correctly terminates the rest.
 873:fat16.cpp     ****  *
 874:fat16.cpp     ****  * Marks the specified cluster as the new end of a cluster chain and
 875:fat16.cpp     ****  * frees all following clusters.
 876:fat16.cpp     ****  *
 877:fat16.cpp     ****  * \param[in] fs The filesystem on which to operate.
 878:fat16.cpp     ****  * \param[in] cluster_num The new end of the cluster chain.
 879:fat16.cpp     ****  * \returns 0 on failure, 1 on success.
 880:fat16.cpp     ****  * \see fat16_free_clusters
 881:fat16.cpp     ****  */
 882:fat16.cpp     **** uint8_t fat16_terminate_clusters(const struct fat16_fs_struct* fs, uint16_t cluster_num)
 883:fat16.cpp     **** {
 2167              		.loc 1 883 0
 2168              		.cfi_startproc
 2169              		@ Function supports interworking.
 2170              		@ args = 0, pretend = 0, frame = 16
 2171              		@ frame_needed = 0, uses_anonymous_args = 0
 2172 0000 04E02DE5 		str	lr, [sp, #-4]!	@,
 2173              	.LCFI22:
 2174              		.cfi_def_cfa_offset 4
 2175 0004 14D04DE2 		sub	sp, sp, #20	@,,
 2176              	.LCFI23:
 2177              		.cfi_def_cfa_offset 24
 2178 0008 04008DE5 		str	r0, [sp, #4]	@ fs, fs
 2179 000c 0130A0E1 		mov	r3, r1	@ tmp144, cluster_num
 2180 0010 B230CDE1 		strh	r3, [sp, #2]	@ movhi	@ tmp144, cluster_num
 2181              	.LBB23:
 884:fat16.cpp     ****     #if FAT16_WRITE_SUPPORT
 885:fat16.cpp     ****         if(!fs || cluster_num < 2)
 2182              		.loc 1 885 0
 2183 0014 04309DE5 		ldr	r3, [sp, #4]	@ tmp145, fs
 2184 0018 000053E3 		cmp	r3, #0	@ tmp145,
 2185 001c 0200000A 		beq	.L150	@,
 2186              		.cfi_offset 14, -4
 2187              		.loc 1 885 0 is_stmt 0 discriminator 1
ARM GAS  /tmp/ccwDRvq0.s 			page 56


 2188 0020 B230DDE1 		ldrh	r3, [sp, #2]	@ tmp146, cluster_num
 2189 0024 010053E3 		cmp	r3, #1	@ tmp146,
 2190 0028 0100008A 		bhi	.L151	@,
 2191              	.L150:
 886:fat16.cpp     ****             return 0;
 2192              		.loc 1 886 0 is_stmt 1
 2193 002c 0030A0E3 		mov	r3, #0	@ D.11324,
 2194 0030 2A0000EA 		b	.L152	@
 2195              	.L151:
 887:fat16.cpp     ****     
 888:fat16.cpp     ****         /* fetch next cluster before overwriting the cluster entry */
 889:fat16.cpp     ****         uint16_t cluster_num_next = fat16_get_next_cluster(fs, cluster_num);
 2196              		.loc 1 889 0
 2197 0034 B230DDE1 		ldrh	r3, [sp, #2]	@ tmp147, cluster_num
 2198 0038 04009DE5 		ldr	r0, [sp, #4]	@, fs
 2199 003c 0310A0E1 		mov	r1, r3	@, tmp147
 2200 0040 FEFFFFEB 		bl	_ZL22fat16_get_next_clusterPK15fat16_fs_structt	@
 2201 0044 0030A0E1 		mov	r3, r0	@ tmp148,
 2202 0048 BE30CDE1 		strh	r3, [sp, #14]	@ movhi	@ tmp148, cluster_num_next
 890:fat16.cpp     ****     
 891:fat16.cpp     ****         /* mark cluster as the last one */
 892:fat16.cpp     ****         uint8_t buffer[2];
 893:fat16.cpp     ****         buffer[0] = FAT16_CLUSTER_LAST_MAX & 0xff;
 2203              		.loc 1 893 0
 2204 004c 0030E0E3 		mvn	r3, #0	@ tmp149,
 2205 0050 0C30CDE5 		strb	r3, [sp, #12]	@ tmp150, buffer
 894:fat16.cpp     ****         buffer[1] = (FAT16_CLUSTER_LAST_MAX >> 8) & 0xff;
 2206              		.loc 1 894 0
 2207 0054 0030E0E3 		mvn	r3, #0	@ tmp151,
 2208 0058 0D30CDE5 		strb	r3, [sp, #13]	@ tmp152, buffer
 895:fat16.cpp     ****         if(!fs->partition->device_write(fs->header.fat_offset + 2 * cluster_num, buffer, 2))
 2209              		.loc 1 895 0
 2210 005c 04309DE5 		ldr	r3, [sp, #4]	@ tmp153, fs
 2211 0060 003093E5 		ldr	r3, [r3, #0]	@ D.11326, fs_2(D)->partition
 2212 0064 083093E5 		ldr	r3, [r3, #8]	@ D.11327, D.11326_5->device_write
 2213 0068 04209DE5 		ldr	r2, [sp, #4]	@ tmp154, fs
 2214 006c 081092E5 		ldr	r1, [r2, #8]	@ D.11328, fs_2(D)->header.fat_offset
 2215 0070 B220DDE1 		ldrh	r2, [sp, #2]	@ D.11329, cluster_num
 2216 0074 8220A0E1 		mov	r2, r2, asl #1	@ D.11330, D.11329,
 2217 0078 021081E0 		add	r1, r1, r2	@ D.11332, D.11328, D.11331
 2218 007c 0C208DE2 		add	r2, sp, #12	@ tmp155,,
 2219 0080 0100A0E1 		mov	r0, r1	@, D.11332
 2220 0084 0210A0E1 		mov	r1, r2	@, tmp155
 2221 0088 0220A0E3 		mov	r2, #2	@,
 2222 008c 0FE0A0E1 		mov	lr, pc
 2223 0090 13FF2FE1 		bx	r3	@ D.11327
 2224 0094 0030A0E1 		mov	r3, r0	@ tmp156,
 2225 0098 000053E3 		cmp	r3, #0	@ D.11333,
 2226 009c 0030A013 		movne	r3, #0	@, tmp158
 2227 00a0 0130A003 		moveq	r3, #1	@, tmp158
 2228 00a4 FF3003E2 		and	r3, r3, #255	@ retval.24, tmp157,
 2229 00a8 000053E3 		cmp	r3, #0	@ retval.24,
 2230 00ac 0100000A 		beq	.L153	@,
 896:fat16.cpp     ****             return 0;
 2231              		.loc 1 896 0
 2232 00b0 0030A0E3 		mov	r3, #0	@ D.11324,
 2233 00b4 090000EA 		b	.L152	@
ARM GAS  /tmp/ccwDRvq0.s 			page 57


 2234              	.L153:
 897:fat16.cpp     ****     
 898:fat16.cpp     ****         /* free remaining clusters */
 899:fat16.cpp     ****         if(cluster_num_next)
 2235              		.loc 1 899 0
 2236 00b8 BE30DDE1 		ldrh	r3, [sp, #14]	@ tmp159, cluster_num_next
 2237 00bc 000053E3 		cmp	r3, #0	@ tmp159,
 2238 00c0 0500000A 		beq	.L154	@,
 900:fat16.cpp     ****             return fat16_free_clusters(fs, cluster_num_next);
 2239              		.loc 1 900 0
 2240 00c4 BE30DDE1 		ldrh	r3, [sp, #14]	@ tmp160, cluster_num_next
 2241 00c8 04009DE5 		ldr	r0, [sp, #4]	@, fs
 2242 00cc 0310A0E1 		mov	r1, r3	@, tmp160
 2243 00d0 FEFFFFEB 		bl	_ZL19fat16_free_clustersPK15fat16_fs_structt	@
 2244 00d4 0030A0E1 		mov	r3, r0	@ tmp161,
 2245 00d8 000000EA 		b	.L152	@
 2246              	.L154:
 901:fat16.cpp     ****         else
 902:fat16.cpp     ****             return 1;
 2247              		.loc 1 902 0
 2248 00dc 0130A0E3 		mov	r3, #1	@ D.11324,
 2249              	.L152:
 2250              	.LBE23:
 903:fat16.cpp     ****     #else
 904:fat16.cpp     ****         return 0;
 905:fat16.cpp     ****     #endif
 906:fat16.cpp     **** }
 2251              		.loc 1 906 0
 2252 00e0 0300A0E1 		mov	r0, r3	@, <retval>
 2253 00e4 14D08DE2 		add	sp, sp, #20	@,,
 2254 00e8 04E09DE4 		ldr	lr, [sp], #4
 2255 00ec 1EFF2FE1 		bx	lr
 2256              		.cfi_endproc
 2257              	.LFE121:
 2258              		.size	_ZL24fat16_terminate_clustersPK15fat16_fs_structt, .-_ZL24fat16_terminate_clustersPK15fat16_
 2259              		.section	.text._Z15fat16_open_fileP15fat16_fs_structPK22fat16_dir_entry_struct,"ax",%progbits
 2260              		.align	2
 2261              		.global	_Z15fat16_open_fileP15fat16_fs_structPK22fat16_dir_entry_struct
 2262              		.type	_Z15fat16_open_fileP15fat16_fs_structPK22fat16_dir_entry_struct, %function
 2263              	_Z15fat16_open_fileP15fat16_fs_structPK22fat16_dir_entry_struct:
 2264              	.LFB122:
 907:fat16.cpp     **** 
 908:fat16.cpp     **** /**
 909:fat16.cpp     ****  * \ingroup fat16_file
 910:fat16.cpp     ****  * Opens a file on a FAT16 filesystem.
 911:fat16.cpp     ****  *
 912:fat16.cpp     ****  * \param[in] fs The filesystem on which the file to open lies.
 913:fat16.cpp     ****  * \param[in] dir_entry The directory entry of the file to open.
 914:fat16.cpp     ****  * \returns The file handle, or 0 on failure.
 915:fat16.cpp     ****  * \see fat16_close_file
 916:fat16.cpp     ****  */
 917:fat16.cpp     **** struct fat16_file_struct* fat16_open_file(struct fat16_fs_struct* fs, const struct fat16_dir_entry_
 918:fat16.cpp     **** {
 2265              		.loc 1 918 0
 2266              		.cfi_startproc
 2267              		@ Function supports interworking.
 2268              		@ args = 0, pretend = 0, frame = 16
ARM GAS  /tmp/ccwDRvq0.s 			page 58


 2269              		@ frame_needed = 0, uses_anonymous_args = 0
 2270 0000 04E02DE5 		str	lr, [sp, #-4]!	@,
 2271              	.LCFI24:
 2272              		.cfi_def_cfa_offset 4
 2273 0004 14D04DE2 		sub	sp, sp, #20	@,,
 2274              	.LCFI25:
 2275              		.cfi_def_cfa_offset 24
 2276 0008 04008DE5 		str	r0, [sp, #4]	@ fs, fs
 2277 000c 00108DE5 		str	r1, [sp, #0]	@ dir_entry, dir_entry
 2278              	.LBB24:
 919:fat16.cpp     ****     if(!fs || !dir_entry || (dir_entry->attributes & FAT16_ATTRIB_DIR))
 2279              		.loc 1 919 0
 2280 0010 04309DE5 		ldr	r3, [sp, #4]	@ tmp141, fs
 2281 0014 000053E3 		cmp	r3, #0	@ tmp141,
 2282 0018 0700000A 		beq	.L156	@,
 2283              		.cfi_offset 14, -4
 2284              		.loc 1 919 0 is_stmt 0 discriminator 1
 2285 001c 00309DE5 		ldr	r3, [sp, #0]	@ tmp142, dir_entry
 2286 0020 000053E3 		cmp	r3, #0	@ tmp142,
 2287 0024 0400000A 		beq	.L156	@,
 2288              		.loc 1 919 0 discriminator 2
 2289 0028 00309DE5 		ldr	r3, [sp, #0]	@ tmp143, dir_entry
 2290 002c 2030D3E5 		ldrb	r3, [r3, #32]	@ zero_extendqisi2	@ D.11311, dir_entry_3(D)->attributes
 2291 0030 103003E2 		and	r3, r3, #16	@ D.11313, D.11312,
 2292 0034 000053E3 		cmp	r3, #0	@ D.11313,
 2293 0038 0100000A 		beq	.L157	@,
 2294              	.L156:
 920:fat16.cpp     ****         return 0;
 2295              		.loc 1 920 0 is_stmt 1
 2296 003c 0030A0E3 		mov	r3, #0	@ D.11314,
 2297 0040 190000EA 		b	.L158	@
 2298              	.L157:
 921:fat16.cpp     **** 
 922:fat16.cpp     ****     struct fat16_file_struct* fd = (fat16_file_struct*)malloc(sizeof(*fd));
 2299              		.loc 1 922 0
 2300 0044 3800A0E3 		mov	r0, #56	@,
 2301 0048 FEFFFFEB 		bl	malloc	@
 2302 004c 0030A0E1 		mov	r3, r0	@ tmp144,
 2303 0050 0C308DE5 		str	r3, [sp, #12]	@ D.11315, fd
 923:fat16.cpp     ****     if(!fd)
 2304              		.loc 1 923 0
 2305 0054 0C309DE5 		ldr	r3, [sp, #12]	@ tmp145, fd
 2306 0058 000053E3 		cmp	r3, #0	@ tmp145,
 2307 005c 0100001A 		bne	.L159	@,
 924:fat16.cpp     ****         return 0;
 2308              		.loc 1 924 0
 2309 0060 0030A0E3 		mov	r3, #0	@ D.11314,
 2310 0064 100000EA 		b	.L158	@
 2311              	.L159:
 925:fat16.cpp     **** 
 926:fat16.cpp     ****     memcpy(&fd->dir_entry, dir_entry, sizeof(*dir_entry));
 2312              		.loc 1 926 0
 2313 0068 0C309DE5 		ldr	r3, [sp, #12]	@ tmp146, fd
 2314 006c 043083E2 		add	r3, r3, #4	@ D.11318, tmp146,
 2315 0070 0300A0E1 		mov	r0, r3	@, D.11318
 2316 0074 00109DE5 		ldr	r1, [sp, #0]	@, dir_entry
 2317 0078 2C20A0E3 		mov	r2, #44	@,
ARM GAS  /tmp/ccwDRvq0.s 			page 59


 2318 007c FEFFFFEB 		bl	memcpy	@
 927:fat16.cpp     ****     fd->fs = fs;
 2319              		.loc 1 927 0
 2320 0080 0C309DE5 		ldr	r3, [sp, #12]	@ tmp147, fd
 2321 0084 04209DE5 		ldr	r2, [sp, #4]	@ tmp148, fs
 2322 0088 002083E5 		str	r2, [r3, #0]	@ tmp148, fd_8->fs
 928:fat16.cpp     ****     fd->pos = 0;
 2323              		.loc 1 928 0
 2324 008c 0C309DE5 		ldr	r3, [sp, #12]	@ tmp149, fd
 2325 0090 0020A0E3 		mov	r2, #0	@ tmp150,
 2326 0094 302083E5 		str	r2, [r3, #48]	@ tmp150, fd_8->pos
 929:fat16.cpp     ****     fd->pos_cluster = dir_entry->cluster;
 2327              		.loc 1 929 0
 2328 0098 00309DE5 		ldr	r3, [sp, #0]	@ tmp151, dir_entry
 2329 009c B222D3E1 		ldrh	r2, [r3, #34]	@ D.11319, dir_entry_3(D)->cluster
 2330 00a0 0C309DE5 		ldr	r3, [sp, #12]	@ tmp152, fd
 2331 00a4 B423C3E1 		strh	r2, [r3, #52]	@ movhi	@ D.11319, fd_8->pos_cluster
 930:fat16.cpp     **** 
 931:fat16.cpp     ****     return fd;
 2332              		.loc 1 931 0
 2333 00a8 0C309DE5 		ldr	r3, [sp, #12]	@ D.11314, fd
 2334              	.L158:
 2335              	.LBE24:
 932:fat16.cpp     **** }
 2336              		.loc 1 932 0
 2337 00ac 0300A0E1 		mov	r0, r3	@, <retval>
 2338 00b0 14D08DE2 		add	sp, sp, #20	@,,
 2339 00b4 04E09DE4 		ldr	lr, [sp], #4
 2340 00b8 1EFF2FE1 		bx	lr
 2341              		.cfi_endproc
 2342              	.LFE122:
 2343              		.size	_Z15fat16_open_fileP15fat16_fs_structPK22fat16_dir_entry_struct, .-_Z15fat16_open_fileP15fat
 2344              		.section	.text._Z16fat16_close_fileP17fat16_file_struct,"ax",%progbits
 2345              		.align	2
 2346              		.global	_Z16fat16_close_fileP17fat16_file_struct
 2347              		.type	_Z16fat16_close_fileP17fat16_file_struct, %function
 2348              	_Z16fat16_close_fileP17fat16_file_struct:
 2349              	.LFB123:
 933:fat16.cpp     **** 
 934:fat16.cpp     **** /**
 935:fat16.cpp     ****  * \ingroup fat16_file
 936:fat16.cpp     ****  * Closes a file.
 937:fat16.cpp     ****  *
 938:fat16.cpp     ****  * \param[in] fd The file handle of the file to close.
 939:fat16.cpp     ****  * \see fat16_open_file
 940:fat16.cpp     ****  */
 941:fat16.cpp     **** void fat16_close_file(struct fat16_file_struct* fd)
 942:fat16.cpp     **** {
 2350              		.loc 1 942 0
 2351              		.cfi_startproc
 2352              		@ Function supports interworking.
 2353              		@ args = 0, pretend = 0, frame = 8
 2354              		@ frame_needed = 0, uses_anonymous_args = 0
 2355 0000 04E02DE5 		str	lr, [sp, #-4]!	@,
 2356              	.LCFI26:
 2357              		.cfi_def_cfa_offset 4
 2358 0004 0CD04DE2 		sub	sp, sp, #12	@,,
ARM GAS  /tmp/ccwDRvq0.s 			page 60


 2359              	.LCFI27:
 2360              		.cfi_def_cfa_offset 16
 2361 0008 04008DE5 		str	r0, [sp, #4]	@ fd, fd
 943:fat16.cpp     ****     if(fd)
 2362              		.loc 1 943 0
 2363 000c 04309DE5 		ldr	r3, [sp, #4]	@ tmp133, fd
 2364 0010 000053E3 		cmp	r3, #0	@ tmp133,
 2365 0014 0100000A 		beq	.L160	@,
 2366              		.cfi_offset 14, -4
 944:fat16.cpp     ****         free(fd);
 2367              		.loc 1 944 0
 2368 0018 04009DE5 		ldr	r0, [sp, #4]	@, fd
 2369 001c FEFFFFEB 		bl	free	@
 2370              	.L160:
 945:fat16.cpp     **** }
 2371              		.loc 1 945 0
 2372 0020 0CD08DE2 		add	sp, sp, #12	@,,
 2373 0024 04E09DE4 		ldr	lr, [sp], #4
 2374 0028 1EFF2FE1 		bx	lr
 2375              		.cfi_endproc
 2376              	.LFE123:
 2377              		.size	_Z16fat16_close_fileP17fat16_file_struct, .-_Z16fat16_close_fileP17fat16_file_struct
 2378              		.global	__aeabi_uidivmod
 2379              		.section	.text._Z15fat16_read_fileP17fat16_file_structPht,"ax",%progbits
 2380              		.align	2
 2381              		.global	_Z15fat16_read_fileP17fat16_file_structPht
 2382              		.type	_Z15fat16_read_fileP17fat16_file_structPht, %function
 2383              	_Z15fat16_read_fileP17fat16_file_structPht:
 2384              	.LFB124:
 946:fat16.cpp     **** 
 947:fat16.cpp     **** /**
 948:fat16.cpp     ****  * \ingroup fat16_file
 949:fat16.cpp     ****  * Reads data from a file.
 950:fat16.cpp     ****  *
 951:fat16.cpp     ****  * The data requested is read from the current file location.
 952:fat16.cpp     ****  *
 953:fat16.cpp     ****  * \param[in] fd The file handle of the file from which to read.
 954:fat16.cpp     ****  * \param[out] buffer The buffer into which to write.
 955:fat16.cpp     ****  * \param[in] buffer_len The amount of data to read.
 956:fat16.cpp     ****  * \returns The number of bytes read, 0 on end of file, or -1 on failure.
 957:fat16.cpp     ****  * \see fat16_write_file
 958:fat16.cpp     ****  */
 959:fat16.cpp     **** int16_t fat16_read_file(struct fat16_file_struct* fd, uint8_t* buffer, uint16_t buffer_len)
 960:fat16.cpp     **** {
 2385              		.loc 1 960 0
 2386              		.cfi_startproc
 2387              		@ Function supports interworking.
 2388              		@ args = 0, pretend = 0, frame = 40
 2389              		@ frame_needed = 0, uses_anonymous_args = 0
 2390 0000 04E02DE5 		str	lr, [sp, #-4]!	@,
 2391              	.LCFI28:
 2392              		.cfi_def_cfa_offset 4
 2393 0004 2CD04DE2 		sub	sp, sp, #44	@,,
 2394              	.LCFI29:
 2395              		.cfi_def_cfa_offset 48
 2396 0008 0C008DE5 		str	r0, [sp, #12]	@ fd, fd
 2397 000c 08108DE5 		str	r1, [sp, #8]	@ buffer, buffer
ARM GAS  /tmp/ccwDRvq0.s 			page 61


 2398 0010 0230A0E1 		mov	r3, r2	@ tmp180, buffer_len
 2399 0014 B630CDE1 		strh	r3, [sp, #6]	@ movhi	@ tmp180, buffer_len
 2400              	.LBB25:
 961:fat16.cpp     ****     /* check arguments */
 962:fat16.cpp     ****     if(!fd || !buffer || buffer_len < 1)
 2401              		.loc 1 962 0
 2402 0018 0C309DE5 		ldr	r3, [sp, #12]	@ tmp181, fd
 2403 001c 000053E3 		cmp	r3, #0	@ tmp181,
 2404 0020 0500000A 		beq	.L163	@,
 2405              		.cfi_offset 14, -4
 2406              		.loc 1 962 0 is_stmt 0 discriminator 1
 2407 0024 08309DE5 		ldr	r3, [sp, #8]	@ tmp182, buffer
 2408 0028 000053E3 		cmp	r3, #0	@ tmp182,
 2409 002c 0200000A 		beq	.L163	@,
 2410              		.loc 1 962 0 discriminator 2
 2411 0030 B630DDE1 		ldrh	r3, [sp, #6]	@ tmp183, buffer_len
 2412 0034 000053E3 		cmp	r3, #0	@ tmp183,
 2413 0038 0100001A 		bne	.L164	@,
 2414              	.L163:
 963:fat16.cpp     ****         return -1;
 2415              		.loc 1 963 0 is_stmt 1
 2416 003c 24339FE5 		ldr	r3, .L177	@ D.11223,
 2417 0040 C20000EA 		b	.L165	@
 2418              	.L164:
 964:fat16.cpp     **** 
 965:fat16.cpp     ****     /* determine number of bytes to read */
 966:fat16.cpp     ****     if(fd->pos + buffer_len > fd->dir_entry.file_size)
 2419              		.loc 1 966 0
 2420 0044 0C309DE5 		ldr	r3, [sp, #12]	@ tmp184, fd
 2421 0048 302093E5 		ldr	r2, [r3, #48]	@ D.11224, fd_12(D)->pos
 2422 004c B630DDE1 		ldrh	r3, [sp, #6]	@ D.11225, buffer_len
 2423 0050 032082E0 		add	r2, r2, r3	@ D.11226, D.11224, D.11225
 2424 0054 0C309DE5 		ldr	r3, [sp, #12]	@ tmp185, fd
 2425 0058 283093E5 		ldr	r3, [r3, #40]	@ D.11227, fd_12(D)->dir_entry.file_size
 2426 005c 030052E1 		cmp	r2, r3	@ D.11226, D.11227
 2427 0060 0900009A 		bls	.L166	@,
 967:fat16.cpp     ****         buffer_len = fd->dir_entry.file_size - fd->pos;
 2428              		.loc 1 967 0
 2429 0064 0C309DE5 		ldr	r3, [sp, #12]	@ tmp186, fd
 2430 0068 283093E5 		ldr	r3, [r3, #40]	@ D.11230, fd_12(D)->dir_entry.file_size
 2431 006c 0338A0E1 		mov	r3, r3, asl #16	@ tmp187, D.11230,
 2432 0070 2328A0E1 		mov	r2, r3, lsr #16	@ D.11231, tmp187,
 2433 0074 0C309DE5 		ldr	r3, [sp, #12]	@ tmp188, fd
 2434 0078 303093E5 		ldr	r3, [r3, #48]	@ D.11232, fd_12(D)->pos
 2435 007c 0338A0E1 		mov	r3, r3, asl #16	@ tmp189, D.11232,
 2436 0080 2338A0E1 		mov	r3, r3, lsr #16	@ D.11233, tmp189,
 2437 0084 023063E0 		rsb	r3, r3, r2	@ tmp190, D.11233, D.11231
 2438 0088 B630CDE1 		strh	r3, [sp, #6]	@ movhi	@ tmp190, buffer_len
 2439              	.L166:
 968:fat16.cpp     ****     if(buffer_len == 0)
 2440              		.loc 1 968 0
 2441 008c B630DDE1 		ldrh	r3, [sp, #6]	@ tmp191, buffer_len
 2442 0090 000053E3 		cmp	r3, #0	@ tmp191,
 2443 0094 0100001A 		bne	.L167	@,
 969:fat16.cpp     ****         return 0;
 2444              		.loc 1 969 0
 2445 0098 0030A0E3 		mov	r3, #0	@ D.11223,
ARM GAS  /tmp/ccwDRvq0.s 			page 62


 2446 009c AB0000EA 		b	.L165	@
 2447              	.L167:
 970:fat16.cpp     **** 
 971:fat16.cpp     ****     uint16_t cluster_size = fd->fs->header.cluster_size;
 2448              		.loc 1 971 0
 2449 00a0 0C309DE5 		ldr	r3, [sp, #12]	@ tmp192, fd
 2450 00a4 003093E5 		ldr	r3, [r3, #0]	@ D.11237, fd_12(D)->fs
 2451 00a8 B231D3E1 		ldrh	r3, [r3, #18]	@ movhi	@ tmp193, D.11237_25->header.cluster_size
 2452 00ac B831CDE1 		strh	r3, [sp, #24]	@ movhi	@ tmp193, cluster_size
 972:fat16.cpp     ****     uint16_t cluster_num = fd->pos_cluster;
 2453              		.loc 1 972 0
 2454 00b0 0C309DE5 		ldr	r3, [sp, #12]	@ tmp194, fd
 2455 00b4 B433D3E1 		ldrh	r3, [r3, #52]	@ movhi	@ tmp195, fd_12(D)->pos_cluster
 2456 00b8 B632CDE1 		strh	r3, [sp, #38]	@ movhi	@ tmp195, cluster_num
 973:fat16.cpp     ****     uint16_t buffer_left = buffer_len;
 2457              		.loc 1 973 0
 2458 00bc B630DDE1 		ldrh	r3, [sp, #6]	@ movhi	@ tmp196, buffer_len
 2459 00c0 B432CDE1 		strh	r3, [sp, #36]	@ movhi	@ tmp196, buffer_left
 974:fat16.cpp     ****     uint16_t first_cluster_offset = fd->pos % cluster_size;
 2460              		.loc 1 974 0
 2461 00c4 0C309DE5 		ldr	r3, [sp, #12]	@ tmp197, fd
 2462 00c8 302093E5 		ldr	r2, [r3, #48]	@ D.11238, fd_12(D)->pos
 2463 00cc B831DDE1 		ldrh	r3, [sp, #24]	@ D.11239, cluster_size
 2464 00d0 0200A0E1 		mov	r0, r2	@, D.11238
 2465 00d4 0310A0E1 		mov	r1, r3	@, D.11239
 2466 00d8 FEFFFFEB 		bl	__aeabi_uidivmod	@
 2467 00dc 0130A0E1 		mov	r3, r1	@ tmp202,
 2468 00e0 B232CDE1 		strh	r3, [sp, #34]	@ movhi	@ D.11240, first_cluster_offset
 2469              	.LBB26:
 975:fat16.cpp     **** 
 976:fat16.cpp     ****     /* find cluster in which to start reading */
 977:fat16.cpp     ****     if(!cluster_num)
 2470              		.loc 1 977 0
 2471 00e4 B632DDE1 		ldrh	r3, [sp, #38]	@ tmp203, cluster_num
 2472 00e8 000053E3 		cmp	r3, #0	@ tmp203,
 2473 00ec 2E00001A 		bne	.L168	@,
 2474              	.LBB27:
 978:fat16.cpp     ****     {
 979:fat16.cpp     ****         cluster_num = fd->dir_entry.cluster;
 2475              		.loc 1 979 0
 2476 00f0 0C309DE5 		ldr	r3, [sp, #12]	@ tmp204, fd
 2477 00f4 B632D3E1 		ldrh	r3, [r3, #38]	@ movhi	@ tmp205, fd_12(D)->dir_entry.cluster
 2478 00f8 B632CDE1 		strh	r3, [sp, #38]	@ movhi	@ tmp205, cluster_num
 980:fat16.cpp     **** 
 981:fat16.cpp     ****         if(!cluster_num)
 2479              		.loc 1 981 0
 2480 00fc B632DDE1 		ldrh	r3, [sp, #38]	@ tmp206, cluster_num
 2481 0100 000053E3 		cmp	r3, #0	@ tmp206,
 2482 0104 0700001A 		bne	.L169	@,
 982:fat16.cpp     ****         {
 983:fat16.cpp     ****             if(!fd->pos)
 2483              		.loc 1 983 0
 2484 0108 0C309DE5 		ldr	r3, [sp, #12]	@ tmp207, fd
 2485 010c 303093E5 		ldr	r3, [r3, #48]	@ D.11245, fd_12(D)->pos
 2486 0110 000053E3 		cmp	r3, #0	@ D.11245,
 2487 0114 0100001A 		bne	.L170	@,
 984:fat16.cpp     ****                 return 0;
ARM GAS  /tmp/ccwDRvq0.s 			page 63


 2488              		.loc 1 984 0
 2489 0118 0030A0E3 		mov	r3, #0	@ D.11223,
 2490 011c 8B0000EA 		b	.L165	@
 2491              	.L170:
 985:fat16.cpp     ****             else
 986:fat16.cpp     ****                 return -1;
 2492              		.loc 1 986 0
 2493 0120 40329FE5 		ldr	r3, .L177	@ D.11223,
 2494 0124 890000EA 		b	.L165	@
 2495              	.L169:
 2496              	.LBB28:
 987:fat16.cpp     ****         }
 988:fat16.cpp     **** 
 989:fat16.cpp     ****         if(fd->pos)
 2497              		.loc 1 989 0
 2498 0128 0C309DE5 		ldr	r3, [sp, #12]	@ tmp208, fd
 2499 012c 303093E5 		ldr	r3, [r3, #48]	@ D.11248, fd_12(D)->pos
 2500 0130 000053E3 		cmp	r3, #0	@ D.11248,
 2501 0134 1C00000A 		beq	.L168	@,
 2502              	.LBB29:
 990:fat16.cpp     ****         {
 991:fat16.cpp     ****             uint32_t pos = fd->pos;
 2503              		.loc 1 991 0
 2504 0138 0C309DE5 		ldr	r3, [sp, #12]	@ tmp209, fd
 2505 013c 303093E5 		ldr	r3, [r3, #48]	@ tmp210, fd_12(D)->pos
 2506 0140 1C308DE5 		str	r3, [sp, #28]	@ tmp210, pos
 992:fat16.cpp     ****             while(pos >= cluster_size)
 2507              		.loc 1 992 0
 2508 0144 100000EA 		b	.L171	@
 2509              	.L172:
 993:fat16.cpp     ****             {
 994:fat16.cpp     ****                 pos -= cluster_size;
 2510              		.loc 1 994 0
 2511 0148 B831DDE1 		ldrh	r3, [sp, #24]	@ D.11256, cluster_size
 2512 014c 1C209DE5 		ldr	r2, [sp, #28]	@ tmp211, pos
 2513 0150 023063E0 		rsb	r3, r3, r2	@ tmp212, D.11256, tmp211
 2514 0154 1C308DE5 		str	r3, [sp, #28]	@ tmp212, pos
 995:fat16.cpp     ****                 cluster_num = fat16_get_next_cluster(fd->fs, cluster_num);
 2515              		.loc 1 995 0
 2516 0158 0C309DE5 		ldr	r3, [sp, #12]	@ tmp213, fd
 2517 015c 002093E5 		ldr	r2, [r3, #0]	@ D.11257, fd_12(D)->fs
 2518 0160 B632DDE1 		ldrh	r3, [sp, #38]	@ tmp214, cluster_num
 2519 0164 0200A0E1 		mov	r0, r2	@, D.11257
 2520 0168 0310A0E1 		mov	r1, r3	@, tmp214
 2521 016c FEFFFFEB 		bl	_ZL22fat16_get_next_clusterPK15fat16_fs_structt	@
 2522 0170 0030A0E1 		mov	r3, r0	@ tmp215,
 2523 0174 B632CDE1 		strh	r3, [sp, #38]	@ movhi	@ tmp215, cluster_num
 996:fat16.cpp     ****                 if(!cluster_num)
 2524              		.loc 1 996 0
 2525 0178 B632DDE1 		ldrh	r3, [sp, #38]	@ tmp216, cluster_num
 2526 017c 000053E3 		cmp	r3, #0	@ tmp216,
 2527 0180 0100001A 		bne	.L171	@,
 997:fat16.cpp     ****                     return -1;
 2528              		.loc 1 997 0
 2529 0184 DC319FE5 		ldr	r3, .L177	@ D.11223,
 2530 0188 700000EA 		b	.L165	@
 2531              	.L171:
ARM GAS  /tmp/ccwDRvq0.s 			page 64


 992:fat16.cpp     ****             while(pos >= cluster_size)
 2532              		.loc 1 992 0 discriminator 1
 2533 018c B821DDE1 		ldrh	r2, [sp, #24]	@ D.11254, cluster_size
 2534 0190 1C309DE5 		ldr	r3, [sp, #28]	@ tmp218, pos
 2535 0194 030052E1 		cmp	r2, r3	@ D.11254, tmp218
 2536 0198 0030A083 		movhi	r3, #0	@, tmp219
 2537 019c 0130A093 		movls	r3, #1	@, tmp219
 2538 01a0 FF3003E2 		and	r3, r3, #255	@ D.11255, tmp217,
 2539 01a4 000053E3 		cmp	r3, #0	@ D.11255,
 2540 01a8 E6FFFF1A 		bne	.L172	@,
 2541              	.L168:
 2542              	.LBE29:
 2543              	.LBE28:
 2544              	.LBE27:
 2545              	.LBE26:
 2546              	.LBB30:
 998:fat16.cpp     ****             }
 999:fat16.cpp     ****         }
1000:fat16.cpp     ****     }
1001:fat16.cpp     **** 
1002:fat16.cpp     ****     /* read data */
1003:fat16.cpp     ****     do
1004:fat16.cpp     ****     {
1005:fat16.cpp     ****         /* calculate data size to copy from cluster */
1006:fat16.cpp     ****         uint32_t cluster_offset = fd->fs->header.cluster_zero_offset +
1007:fat16.cpp     ****         (uint32_t) (cluster_num - 2) * cluster_size + first_cluster_offset;
 2547              		.loc 1 1007 0
 2548 01ac 0C309DE5 		ldr	r3, [sp, #12]	@ tmp220, fd
 2549 01b0 003093E5 		ldr	r3, [r3, #0]	@ D.11266, fd_12(D)->fs
 2550 01b4 182093E5 		ldr	r2, [r3, #24]	@ D.11267, D.11266_46->header.cluster_zero_offset
 2551 01b8 B632DDE1 		ldrh	r3, [sp, #38]	@ D.11268, cluster_num
 2552 01bc 023043E2 		sub	r3, r3, #2	@ D.11269, D.11268,
 2553 01c0 B811DDE1 		ldrh	r1, [sp, #24]	@ D.11271, cluster_size
 2554 01c4 910303E0 		mul	r3, r1, r3	@ D.11272, D.11271, D.11270
 2555 01c8 032082E0 		add	r2, r2, r3	@ D.11273, D.11267, D.11272
 2556 01cc B232DDE1 		ldrh	r3, [sp, #34]	@ D.11274, first_cluster_offset
 2557 01d0 033082E0 		add	r3, r2, r3	@ tmp221, D.11273, D.11274
 2558 01d4 14308DE5 		str	r3, [sp, #20]	@ tmp221, cluster_offset
1008:fat16.cpp     ****         uint16_t copy_length = cluster_size - first_cluster_offset;
 2559              		.loc 1 1008 0
 2560 01d8 B821DDE1 		ldrh	r2, [sp, #24]	@ movhi	@ tmp222, cluster_size
 2561 01dc B232DDE1 		ldrh	r3, [sp, #34]	@ movhi	@ tmp223, first_cluster_offset
 2562 01e0 023063E0 		rsb	r3, r3, r2	@ tmp224, tmp223, tmp222
 2563 01e4 BA31CDE1 		strh	r3, [sp, #26]	@ movhi	@ tmp224, copy_length
1009:fat16.cpp     ****         if(copy_length > buffer_left)
 2564              		.loc 1 1009 0
 2565 01e8 BA21DDE1 		ldrh	r2, [sp, #26]	@ tmp225, copy_length
 2566 01ec B432DDE1 		ldrh	r3, [sp, #36]	@ tmp226, buffer_left
 2567 01f0 030052E1 		cmp	r2, r3	@ tmp225, tmp226
 2568 01f4 0100009A 		bls	.L173	@,
1010:fat16.cpp     ****             copy_length = buffer_left;
 2569              		.loc 1 1010 0
 2570 01f8 B432DDE1 		ldrh	r3, [sp, #36]	@ movhi	@ tmp227, buffer_left
 2571 01fc BA31CDE1 		strh	r3, [sp, #26]	@ movhi	@ tmp227, copy_length
 2572              	.L173:
1011:fat16.cpp     **** 
1012:fat16.cpp     ****         /* read data */
ARM GAS  /tmp/ccwDRvq0.s 			page 65


1013:fat16.cpp     ****         if(!fd->fs->partition->device_read(cluster_offset, buffer, copy_length))
 2573              		.loc 1 1013 0
 2574 0200 0C309DE5 		ldr	r3, [sp, #12]	@ tmp228, fd
 2575 0204 003093E5 		ldr	r3, [r3, #0]	@ D.11279, fd_12(D)->fs
 2576 0208 003093E5 		ldr	r3, [r3, #0]	@ D.11280, D.11279_58->partition
 2577 020c 003093E5 		ldr	r3, [r3, #0]	@ D.11281, D.11280_59->device_read
 2578 0210 BA21DDE1 		ldrh	r2, [sp, #26]	@ tmp229, copy_length
 2579 0214 14009DE5 		ldr	r0, [sp, #20]	@, cluster_offset
 2580 0218 08109DE5 		ldr	r1, [sp, #8]	@, buffer
 2581 021c 0FE0A0E1 		mov	lr, pc
 2582 0220 13FF2FE1 		bx	r3	@ D.11281
 2583 0224 0030A0E1 		mov	r3, r0	@ tmp230,
 2584 0228 000053E3 		cmp	r3, #0	@ D.11282,
 2585 022c 0030A013 		movne	r3, #0	@, tmp232
 2586 0230 0130A003 		moveq	r3, #1	@, tmp232
 2587 0234 FF3003E2 		and	r3, r3, #255	@ retval.22, tmp231,
 2588 0238 000053E3 		cmp	r3, #0	@ retval.22,
 2589 023c 0700000A 		beq	.L174	@,
1014:fat16.cpp     ****             return buffer_len - buffer_left;
 2590              		.loc 1 1014 0
 2591 0240 B620DDE1 		ldrh	r2, [sp, #6]	@ movhi	@ tmp233, buffer_len
 2592 0244 B432DDE1 		ldrh	r3, [sp, #36]	@ movhi	@ tmp234, buffer_left
 2593 0248 023063E0 		rsb	r3, r3, r2	@ tmp235, tmp234, tmp233
 2594 024c 0338A0E1 		mov	r3, r3, asl #16	@ tmp236, tmp235,
 2595 0250 2338A0E1 		mov	r3, r3, lsr #16	@ D.11285, tmp236,
 2596 0254 0338A0E1 		mov	r3, r3, asl #16	@ tmp237, D.11285,
 2597 0258 2338A0E1 		mov	r3, r3, lsr #16	@ D.11223, tmp237,
 2598 025c 3B0000EA 		b	.L165	@
 2599              	.L174:
1015:fat16.cpp     **** 
1016:fat16.cpp     ****         /* calculate new file position */
1017:fat16.cpp     ****         buffer += copy_length;
 2600              		.loc 1 1017 0
 2601 0260 BA31DDE1 		ldrh	r3, [sp, #26]	@ D.11286, copy_length
 2602 0264 08209DE5 		ldr	r2, [sp, #8]	@ tmp238, buffer
 2603 0268 033082E0 		add	r3, r2, r3	@ tmp239, tmp238, D.11286
 2604 026c 08308DE5 		str	r3, [sp, #8]	@ tmp239, buffer
1018:fat16.cpp     ****         buffer_left -= copy_length;
 2605              		.loc 1 1018 0
 2606 0270 B422DDE1 		ldrh	r2, [sp, #36]	@ movhi	@ tmp240, buffer_left
 2607 0274 BA31DDE1 		ldrh	r3, [sp, #26]	@ movhi	@ tmp241, copy_length
 2608 0278 023063E0 		rsb	r3, r3, r2	@ tmp242, tmp241, tmp240
 2609 027c B432CDE1 		strh	r3, [sp, #36]	@ movhi	@ tmp242, buffer_left
1019:fat16.cpp     ****         fd->pos += copy_length;
 2610              		.loc 1 1019 0
 2611 0280 0C309DE5 		ldr	r3, [sp, #12]	@ tmp243, fd
 2612 0284 302093E5 		ldr	r2, [r3, #48]	@ D.11287, fd_12(D)->pos
 2613 0288 BA31DDE1 		ldrh	r3, [sp, #26]	@ D.11288, copy_length
 2614 028c 032082E0 		add	r2, r2, r3	@ D.11289, D.11287, D.11288
 2615 0290 0C309DE5 		ldr	r3, [sp, #12]	@ tmp244, fd
 2616 0294 302083E5 		str	r2, [r3, #48]	@ D.11289, fd_12(D)->pos
1020:fat16.cpp     **** 
1021:fat16.cpp     ****         if(first_cluster_offset + copy_length >= cluster_size)
 2617              		.loc 1 1021 0
 2618 0298 B222DDE1 		ldrh	r2, [sp, #34]	@ D.11290, first_cluster_offset
 2619 029c BA31DDE1 		ldrh	r3, [sp, #26]	@ D.11291, copy_length
 2620 02a0 032082E0 		add	r2, r2, r3	@ D.11292, D.11290, D.11291
ARM GAS  /tmp/ccwDRvq0.s 			page 66


 2621 02a4 B831DDE1 		ldrh	r3, [sp, #24]	@ D.11293, cluster_size
 2622 02a8 030052E1 		cmp	r2, r3	@ D.11292, D.11293
 2623 02ac 1C0000BA 		blt	.L175	@,
1022:fat16.cpp     ****         {
1023:fat16.cpp     ****             /* we are on a cluster boundary, so get the next cluster */
1024:fat16.cpp     ****             if((cluster_num = fat16_get_next_cluster(fd->fs, cluster_num)))
 2624              		.loc 1 1024 0
 2625 02b0 0C309DE5 		ldr	r3, [sp, #12]	@ tmp245, fd
 2626 02b4 002093E5 		ldr	r2, [r3, #0]	@ D.11297, fd_12(D)->fs
 2627 02b8 B632DDE1 		ldrh	r3, [sp, #38]	@ tmp246, cluster_num
 2628 02bc 0200A0E1 		mov	r0, r2	@, D.11297
 2629 02c0 0310A0E1 		mov	r1, r3	@, tmp246
 2630 02c4 FEFFFFEB 		bl	_ZL22fat16_get_next_clusterPK15fat16_fs_structt	@
 2631 02c8 0030A0E1 		mov	r3, r0	@ tmp247,
 2632 02cc B632CDE1 		strh	r3, [sp, #38]	@ movhi	@ tmp247, cluster_num
 2633 02d0 B632DDE1 		ldrh	r3, [sp, #38]	@ tmp249, cluster_num
 2634 02d4 000053E3 		cmp	r3, #0	@ tmp249,
 2635 02d8 0030A003 		moveq	r3, #0	@, tmp250
 2636 02dc 0130A013 		movne	r3, #1	@, tmp250
 2637 02e0 FF3003E2 		and	r3, r3, #255	@ retval.23, tmp248,
 2638 02e4 000053E3 		cmp	r3, #0	@ retval.23,
 2639 02e8 0200000A 		beq	.L176	@,
1025:fat16.cpp     ****             {
1026:fat16.cpp     ****                 first_cluster_offset = 0;
 2640              		.loc 1 1026 0
 2641 02ec 0030A0E3 		mov	r3, #0	@ tmp252,
 2642 02f0 B232CDE1 		strh	r3, [sp, #34]	@ movhi	@ tmp251, first_cluster_offset
 2643 02f4 0A0000EA 		b	.L175	@
 2644              	.L176:
1027:fat16.cpp     ****             }
1028:fat16.cpp     ****             else
1029:fat16.cpp     ****             {
1030:fat16.cpp     ****                 fd->pos_cluster = 0;
 2645              		.loc 1 1030 0
 2646 02f8 0C309DE5 		ldr	r3, [sp, #12]	@ tmp253, fd
 2647 02fc 0020A0E3 		mov	r2, #0	@ tmp255,
 2648 0300 B423C3E1 		strh	r2, [r3, #52]	@ movhi	@ tmp254, fd_12(D)->pos_cluster
1031:fat16.cpp     ****                 return buffer_len - buffer_left;
 2649              		.loc 1 1031 0
 2650 0304 B620DDE1 		ldrh	r2, [sp, #6]	@ movhi	@ tmp256, buffer_len
 2651 0308 B432DDE1 		ldrh	r3, [sp, #36]	@ movhi	@ tmp257, buffer_left
 2652 030c 023063E0 		rsb	r3, r3, r2	@ tmp258, tmp257, tmp256
 2653 0310 0338A0E1 		mov	r3, r3, asl #16	@ tmp259, tmp258,
 2654 0314 2338A0E1 		mov	r3, r3, lsr #16	@ D.11301, tmp259,
 2655 0318 0338A0E1 		mov	r3, r3, asl #16	@ tmp260, D.11301,
 2656 031c 2338A0E1 		mov	r3, r3, lsr #16	@ D.11223, tmp260,
 2657 0320 0A0000EA 		b	.L165	@
 2658              	.L175:
1032:fat16.cpp     ****             }
1033:fat16.cpp     ****         }
1034:fat16.cpp     **** 
1035:fat16.cpp     ****         fd->pos_cluster = cluster_num;
 2659              		.loc 1 1035 0
 2660 0324 0C309DE5 		ldr	r3, [sp, #12]	@ tmp261, fd
 2661 0328 B622DDE1 		ldrh	r2, [sp, #38]	@ movhi	@ tmp262, cluster_num
 2662 032c B423C3E1 		strh	r2, [r3, #52]	@ movhi	@ tmp262, fd_12(D)->pos_cluster
 2663              	.LBE30:
ARM GAS  /tmp/ccwDRvq0.s 			page 67


1003:fat16.cpp     ****     do
 2664              		.loc 1 1003 0
 2665 0330 B432DDE1 		ldrh	r3, [sp, #36]	@ tmp264, buffer_left
 2666 0334 000053E3 		cmp	r3, #0	@ tmp264,
 2667 0338 0030A003 		moveq	r3, #0	@, tmp265
 2668 033c 0130A013 		movne	r3, #1	@, tmp265
 2669 0340 FF3003E2 		and	r3, r3, #255	@ D.11265, tmp263,
 2670 0344 000053E3 		cmp	r3, #0	@ D.11265,
 2671 0348 97FFFF1A 		bne	.L168	@,
1036:fat16.cpp     **** 
1037:fat16.cpp     ****     }
1038:fat16.cpp     ****     while(buffer_left > 0); /* check if we are done */
1039:fat16.cpp     **** 
1040:fat16.cpp     ****     return buffer_len;
 2672              		.loc 1 1040 0
 2673 034c B630DDE1 		ldrh	r3, [sp, #6]	@ D.11223, buffer_len
 2674              	.L165:
 2675 0350 0338A0E1 		mov	r3, r3, asl #16	@ tmp268, D.11223,
 2676 0354 4338A0E1 		mov	r3, r3, asr #16	@ tmp267, tmp268,
 2677              	.LBE25:
1041:fat16.cpp     **** }
 2678              		.loc 1 1041 0
 2679 0358 0300A0E1 		mov	r0, r3	@, <retval>
 2680 035c 2CD08DE2 		add	sp, sp, #44	@,,
 2681 0360 04E09DE4 		ldr	lr, [sp], #4
 2682 0364 1EFF2FE1 		bx	lr
 2683              	.L178:
 2684              		.align	2
 2685              	.L177:
 2686 0368 FFFF0000 		.word	65535
 2687              		.cfi_endproc
 2688              	.LFE124:
 2689              		.size	_Z15fat16_read_fileP17fat16_file_structPht, .-_Z15fat16_read_fileP17fat16_file_structPht
 2690              		.section	.text._Z16fat16_write_fileP17fat16_file_structPKht,"ax",%progbits
 2691              		.align	2
 2692              		.global	_Z16fat16_write_fileP17fat16_file_structPKht
 2693              		.type	_Z16fat16_write_fileP17fat16_file_structPKht, %function
 2694              	_Z16fat16_write_fileP17fat16_file_structPKht:
 2695              	.LFB125:
1042:fat16.cpp     **** 
1043:fat16.cpp     **** /**
1044:fat16.cpp     ****  * \ingroup fat16_file
1045:fat16.cpp     ****  * Writes data to a file.
1046:fat16.cpp     ****  *
1047:fat16.cpp     ****  * The data is written to the current file location.
1048:fat16.cpp     ****  *
1049:fat16.cpp     ****  * \param[in] fd The file handle of the file to which to write.
1050:fat16.cpp     ****  * \param[in] buffer The buffer from which to read the data to be written.
1051:fat16.cpp     ****  * \param[in] buffer_len The amount of data to write.
1052:fat16.cpp     ****  * \returns The number of bytes written, 0 on disk full, or -1 on failure.
1053:fat16.cpp     ****  * \see fat16_read_file
1054:fat16.cpp     ****  */
1055:fat16.cpp     **** int16_t fat16_write_file(struct fat16_file_struct* fd, const uint8_t* buffer, uint16_t buffer_len)
1056:fat16.cpp     **** {
 2696              		.loc 1 1056 0
 2697              		.cfi_startproc
 2698              		@ Function supports interworking.
ARM GAS  /tmp/ccwDRvq0.s 			page 68


 2699              		@ args = 0, pretend = 0, frame = 48
 2700              		@ frame_needed = 0, uses_anonymous_args = 0
 2701 0000 04E02DE5 		str	lr, [sp, #-4]!	@,
 2702              	.LCFI30:
 2703              		.cfi_def_cfa_offset 4
 2704 0004 34D04DE2 		sub	sp, sp, #52	@,,
 2705              	.LCFI31:
 2706              		.cfi_def_cfa_offset 56
 2707 0008 0C008DE5 		str	r0, [sp, #12]	@ fd, fd
 2708 000c 08108DE5 		str	r1, [sp, #8]	@ buffer, buffer
 2709 0010 0230A0E1 		mov	r3, r2	@ tmp185, buffer_len
 2710 0014 B630CDE1 		strh	r3, [sp, #6]	@ movhi	@ tmp185, buffer_len
 2711              	.LBB31:
1057:fat16.cpp     ****     #if FAT16_WRITE_SUPPORT
1058:fat16.cpp     ****         /* check arguments */
1059:fat16.cpp     ****         if(!fd || !buffer || buffer_len < 1)
 2712              		.loc 1 1059 0
 2713 0018 0C309DE5 		ldr	r3, [sp, #12]	@ tmp186, fd
 2714 001c 000053E3 		cmp	r3, #0	@ tmp186,
 2715 0020 0500000A 		beq	.L180	@,
 2716              		.cfi_offset 14, -4
 2717              		.loc 1 1059 0 is_stmt 0 discriminator 1
 2718 0024 08309DE5 		ldr	r3, [sp, #8]	@ tmp187, buffer
 2719 0028 000053E3 		cmp	r3, #0	@ tmp187,
 2720 002c 0200000A 		beq	.L180	@,
 2721              		.loc 1 1059 0 discriminator 2
 2722 0030 B630DDE1 		ldrh	r3, [sp, #6]	@ tmp188, buffer_len
 2723 0034 000053E3 		cmp	r3, #0	@ tmp188,
 2724 0038 0100001A 		bne	.L181	@,
 2725              	.L180:
1060:fat16.cpp     ****             return -1;
 2726              		.loc 1 1060 0 is_stmt 1
 2727 003c 14349FE5 		ldr	r3, .L199	@ D.11117,
 2728 0040 FE0000EA 		b	.L182	@
 2729              	.L181:
1061:fat16.cpp     ****         if(fd->pos > fd->dir_entry.file_size)
 2730              		.loc 1 1061 0
 2731 0044 0C309DE5 		ldr	r3, [sp, #12]	@ tmp189, fd
 2732 0048 302093E5 		ldr	r2, [r3, #48]	@ D.11118, fd_16(D)->pos
 2733 004c 0C309DE5 		ldr	r3, [sp, #12]	@ tmp190, fd
 2734 0050 283093E5 		ldr	r3, [r3, #40]	@ D.11119, fd_16(D)->dir_entry.file_size
 2735 0054 030052E1 		cmp	r2, r3	@ D.11118, D.11119
 2736 0058 0100009A 		bls	.L183	@,
1062:fat16.cpp     ****             return -1;
 2737              		.loc 1 1062 0
 2738 005c F4339FE5 		ldr	r3, .L199	@ D.11117,
 2739 0060 F60000EA 		b	.L182	@
 2740              	.L183:
1063:fat16.cpp     ****     
1064:fat16.cpp     ****         uint16_t cluster_size = fd->fs->header.cluster_size;
 2741              		.loc 1 1064 0
 2742 0064 0C309DE5 		ldr	r3, [sp, #12]	@ tmp191, fd
 2743 0068 003093E5 		ldr	r3, [r3, #0]	@ D.11122, fd_16(D)->fs
 2744 006c B231D3E1 		ldrh	r3, [r3, #18]	@ movhi	@ tmp192, D.11122_22->header.cluster_size
 2745 0070 BC31CDE1 		strh	r3, [sp, #28]	@ movhi	@ tmp192, cluster_size
1065:fat16.cpp     ****         uint16_t cluster_num = fd->pos_cluster;
 2746              		.loc 1 1065 0
ARM GAS  /tmp/ccwDRvq0.s 			page 69


 2747 0074 0C309DE5 		ldr	r3, [sp, #12]	@ tmp193, fd
 2748 0078 B433D3E1 		ldrh	r3, [r3, #52]	@ movhi	@ tmp194, fd_16(D)->pos_cluster
 2749 007c BE32CDE1 		strh	r3, [sp, #46]	@ movhi	@ tmp194, cluster_num
1066:fat16.cpp     ****         uint16_t buffer_left = buffer_len;
 2750              		.loc 1 1066 0
 2751 0080 B630DDE1 		ldrh	r3, [sp, #6]	@ movhi	@ tmp195, buffer_len
 2752 0084 BC32CDE1 		strh	r3, [sp, #44]	@ movhi	@ tmp195, buffer_left
1067:fat16.cpp     ****         uint16_t first_cluster_offset = fd->pos % cluster_size;
 2753              		.loc 1 1067 0
 2754 0088 0C309DE5 		ldr	r3, [sp, #12]	@ tmp196, fd
 2755 008c 302093E5 		ldr	r2, [r3, #48]	@ D.11123, fd_16(D)->pos
 2756 0090 BC31DDE1 		ldrh	r3, [sp, #28]	@ D.11124, cluster_size
 2757 0094 0200A0E1 		mov	r0, r2	@, D.11123
 2758 0098 0310A0E1 		mov	r1, r3	@, D.11124
 2759 009c FEFFFFEB 		bl	__aeabi_uidivmod	@
 2760 00a0 0130A0E1 		mov	r3, r1	@ tmp201,
 2761 00a4 BA32CDE1 		strh	r3, [sp, #42]	@ movhi	@ D.11125, first_cluster_offset
 2762              	.LBB32:
1068:fat16.cpp     ****     
1069:fat16.cpp     ****         /* find cluster in which to start writing */
1070:fat16.cpp     ****         if(!cluster_num)
 2763              		.loc 1 1070 0
 2764 00a8 BE32DDE1 		ldrh	r3, [sp, #46]	@ tmp202, cluster_num
 2765 00ac 000053E3 		cmp	r3, #0	@ tmp202,
 2766 00b0 4D00001A 		bne	.L184	@,
 2767              	.LBB33:
1071:fat16.cpp     ****         {
1072:fat16.cpp     ****             cluster_num = fd->dir_entry.cluster;
 2768              		.loc 1 1072 0
 2769 00b4 0C309DE5 		ldr	r3, [sp, #12]	@ tmp203, fd
 2770 00b8 B632D3E1 		ldrh	r3, [r3, #38]	@ movhi	@ tmp204, fd_16(D)->dir_entry.cluster
 2771 00bc BE32CDE1 		strh	r3, [sp, #46]	@ movhi	@ tmp204, cluster_num
1073:fat16.cpp     ****     
1074:fat16.cpp     ****             if(!cluster_num)
 2772              		.loc 1 1074 0
 2773 00c0 BE32DDE1 		ldrh	r3, [sp, #46]	@ tmp205, cluster_num
 2774 00c4 000053E3 		cmp	r3, #0	@ tmp205,
 2775 00c8 1500001A 		bne	.L185	@,
1075:fat16.cpp     ****             {
1076:fat16.cpp     ****                 if(!fd->pos)
 2776              		.loc 1 1076 0
 2777 00cc 0C309DE5 		ldr	r3, [sp, #12]	@ tmp206, fd
 2778 00d0 303093E5 		ldr	r3, [r3, #48]	@ D.11130, fd_16(D)->pos
 2779 00d4 000053E3 		cmp	r3, #0	@ D.11130,
 2780 00d8 0F00001A 		bne	.L186	@,
1077:fat16.cpp     ****                 {
1078:fat16.cpp     ****                     /* empty file */
1079:fat16.cpp     ****                     fd->dir_entry.cluster = cluster_num = fat16_append_clusters(fd->fs, 0, 1);
 2781              		.loc 1 1079 0
 2782 00dc 0C309DE5 		ldr	r3, [sp, #12]	@ tmp207, fd
 2783 00e0 003093E5 		ldr	r3, [r3, #0]	@ D.11133, fd_16(D)->fs
 2784 00e4 0300A0E1 		mov	r0, r3	@, D.11133
 2785 00e8 0010A0E3 		mov	r1, #0	@,
 2786 00ec 0120A0E3 		mov	r2, #1	@,
 2787 00f0 FEFFFFEB 		bl	_ZL21fat16_append_clustersPK15fat16_fs_structtt	@
 2788 00f4 0030A0E1 		mov	r3, r0	@ tmp208,
 2789 00f8 BE32CDE1 		strh	r3, [sp, #46]	@ movhi	@ tmp208, cluster_num
ARM GAS  /tmp/ccwDRvq0.s 			page 70


 2790 00fc 0C309DE5 		ldr	r3, [sp, #12]	@ tmp209, fd
 2791 0100 BE22DDE1 		ldrh	r2, [sp, #46]	@ movhi	@ tmp210, cluster_num
 2792 0104 B622C3E1 		strh	r2, [r3, #38]	@ movhi	@ tmp210, fd_16(D)->dir_entry.cluster
1080:fat16.cpp     ****                     if(!cluster_num)
 2793              		.loc 1 1080 0
 2794 0108 BE32DDE1 		ldrh	r3, [sp, #46]	@ tmp211, cluster_num
 2795 010c 000053E3 		cmp	r3, #0	@ tmp211,
 2796 0110 0300001A 		bne	.L185	@,
1081:fat16.cpp     ****                         return -1;
 2797              		.loc 1 1081 0
 2798 0114 3C339FE5 		ldr	r3, .L199	@ D.11117,
 2799 0118 C80000EA 		b	.L182	@
 2800              	.L186:
1082:fat16.cpp     ****                 }
1083:fat16.cpp     ****                 else
1084:fat16.cpp     ****                 {
1085:fat16.cpp     ****                     return -1;
 2801              		.loc 1 1085 0
 2802 011c 34339FE5 		ldr	r3, .L199	@ D.11117,
 2803 0120 C60000EA 		b	.L182	@
 2804              	.L185:
 2805              	.LBB34:
1086:fat16.cpp     ****                 }
1087:fat16.cpp     ****             }
1088:fat16.cpp     ****     
1089:fat16.cpp     ****             if(fd->pos)
 2806              		.loc 1 1089 0
 2807 0124 0C309DE5 		ldr	r3, [sp, #12]	@ tmp212, fd
 2808 0128 303093E5 		ldr	r3, [r3, #48]	@ D.11138, fd_16(D)->pos
 2809 012c 000053E3 		cmp	r3, #0	@ D.11138,
 2810 0130 2D00000A 		beq	.L184	@,
 2811              	.LBB35:
1090:fat16.cpp     ****             {
1091:fat16.cpp     ****                 uint32_t pos = fd->pos;
 2812              		.loc 1 1091 0
 2813 0134 0C309DE5 		ldr	r3, [sp, #12]	@ tmp213, fd
 2814 0138 303093E5 		ldr	r3, [r3, #48]	@ tmp214, fd_16(D)->pos
 2815 013c 24308DE5 		str	r3, [sp, #36]	@ tmp214, pos
1092:fat16.cpp     ****                 uint16_t cluster_num_next;
1093:fat16.cpp     ****                 while(pos >= cluster_size)
 2816              		.loc 1 1093 0
 2817 0140 210000EA 		b	.L187	@
 2818              	.L190:
1094:fat16.cpp     ****                 {
1095:fat16.cpp     ****                     pos -= cluster_size;
 2819              		.loc 1 1095 0
 2820 0144 BC31DDE1 		ldrh	r3, [sp, #28]	@ D.11146, cluster_size
 2821 0148 24209DE5 		ldr	r2, [sp, #36]	@ tmp215, pos
 2822 014c 023063E0 		rsb	r3, r3, r2	@ tmp216, D.11146, tmp215
 2823 0150 24308DE5 		str	r3, [sp, #36]	@ tmp216, pos
1096:fat16.cpp     ****                     cluster_num_next = fat16_get_next_cluster(fd->fs, cluster_num);
 2824              		.loc 1 1096 0
 2825 0154 0C309DE5 		ldr	r3, [sp, #12]	@ tmp217, fd
 2826 0158 002093E5 		ldr	r2, [r3, #0]	@ D.11147, fd_16(D)->fs
 2827 015c BE32DDE1 		ldrh	r3, [sp, #46]	@ tmp218, cluster_num
 2828 0160 0200A0E1 		mov	r0, r2	@, D.11147
 2829 0164 0310A0E1 		mov	r1, r3	@, tmp218
ARM GAS  /tmp/ccwDRvq0.s 			page 71


 2830 0168 FEFFFFEB 		bl	_ZL22fat16_get_next_clusterPK15fat16_fs_structt	@
 2831 016c 0030A0E1 		mov	r3, r0	@ tmp219,
 2832 0170 B232CDE1 		strh	r3, [sp, #34]	@ movhi	@ tmp219, cluster_num_next
1097:fat16.cpp     ****                     if(!cluster_num_next && pos == 0)
 2833              		.loc 1 1097 0
 2834 0174 B232DDE1 		ldrh	r3, [sp, #34]	@ tmp220, cluster_num_next
 2835 0178 000053E3 		cmp	r3, #0	@ tmp220,
 2836 017c 0B00001A 		bne	.L188	@,
 2837              		.loc 1 1097 0 is_stmt 0 discriminator 1
 2838 0180 24309DE5 		ldr	r3, [sp, #36]	@ tmp221, pos
 2839 0184 000053E3 		cmp	r3, #0	@ tmp221,
 2840 0188 0800001A 		bne	.L188	@,
1098:fat16.cpp     ****         /* the file exactly ends on a cluster boundary, and we append to it */
1099:fat16.cpp     ****                         cluster_num_next = fat16_append_clusters(fd->fs, cluster_num, 1);
 2841              		.loc 1 1099 0 is_stmt 1
 2842 018c 0C309DE5 		ldr	r3, [sp, #12]	@ tmp222, fd
 2843 0190 002093E5 		ldr	r2, [r3, #0]	@ D.11152, fd_16(D)->fs
 2844 0194 BE32DDE1 		ldrh	r3, [sp, #46]	@ tmp223, cluster_num
 2845 0198 0200A0E1 		mov	r0, r2	@, D.11152
 2846 019c 0310A0E1 		mov	r1, r3	@, tmp223
 2847 01a0 0120A0E3 		mov	r2, #1	@,
 2848 01a4 FEFFFFEB 		bl	_ZL21fat16_append_clustersPK15fat16_fs_structtt	@
 2849 01a8 0030A0E1 		mov	r3, r0	@ tmp224,
 2850 01ac B232CDE1 		strh	r3, [sp, #34]	@ movhi	@ tmp224, cluster_num_next
 2851              	.L188:
1100:fat16.cpp     ****                     if(!cluster_num_next)
 2852              		.loc 1 1100 0
 2853 01b0 B232DDE1 		ldrh	r3, [sp, #34]	@ tmp225, cluster_num_next
 2854 01b4 000053E3 		cmp	r3, #0	@ tmp225,
 2855 01b8 0100001A 		bne	.L189	@,
1101:fat16.cpp     ****                         return -1;
 2856              		.loc 1 1101 0
 2857 01bc 94329FE5 		ldr	r3, .L199	@ D.11117,
 2858 01c0 9E0000EA 		b	.L182	@
 2859              	.L189:
1102:fat16.cpp     ****     
1103:fat16.cpp     ****                     cluster_num = cluster_num_next;
 2860              		.loc 1 1103 0
 2861 01c4 B232DDE1 		ldrh	r3, [sp, #34]	@ movhi	@ tmp226, cluster_num_next
 2862 01c8 BE32CDE1 		strh	r3, [sp, #46]	@ movhi	@ tmp226, cluster_num
 2863              	.L187:
1093:fat16.cpp     ****                 while(pos >= cluster_size)
 2864              		.loc 1 1093 0 discriminator 1
 2865 01cc BC21DDE1 		ldrh	r2, [sp, #28]	@ D.11144, cluster_size
 2866 01d0 24309DE5 		ldr	r3, [sp, #36]	@ tmp228, pos
 2867 01d4 030052E1 		cmp	r2, r3	@ D.11144, tmp228
 2868 01d8 0030A083 		movhi	r3, #0	@, tmp229
 2869 01dc 0130A093 		movls	r3, #1	@, tmp229
 2870 01e0 FF3003E2 		and	r3, r3, #255	@ D.11145, tmp227,
 2871 01e4 000053E3 		cmp	r3, #0	@ D.11145,
 2872 01e8 D5FFFF1A 		bne	.L190	@,
 2873              	.L184:
 2874              	.LBE35:
 2875              	.LBE34:
 2876              	.LBE33:
 2877              	.LBE32:
 2878              	.LBB36:
ARM GAS  /tmp/ccwDRvq0.s 			page 72


1104:fat16.cpp     ****                 }
1105:fat16.cpp     ****             }
1106:fat16.cpp     ****         }
1107:fat16.cpp     ****     
1108:fat16.cpp     ****         /* write data */
1109:fat16.cpp     ****         do
1110:fat16.cpp     ****         {
1111:fat16.cpp     ****             /* calculate data size to write to cluster */
1112:fat16.cpp     ****             uint32_t cluster_offset = fd->fs->header.cluster_zero_offset +
1113:fat16.cpp     ****             (uint32_t) (cluster_num - 2) * cluster_size + first_cluster_offset;
 2879              		.loc 1 1113 0
 2880 01ec 0C309DE5 		ldr	r3, [sp, #12]	@ tmp230, fd
 2881 01f0 003093E5 		ldr	r3, [r3, #0]	@ D.11162, fd_16(D)->fs
 2882 01f4 182093E5 		ldr	r2, [r3, #24]	@ D.11163, D.11162_48->header.cluster_zero_offset
 2883 01f8 BE32DDE1 		ldrh	r3, [sp, #46]	@ D.11164, cluster_num
 2884 01fc 023043E2 		sub	r3, r3, #2	@ D.11165, D.11164,
 2885 0200 BC11DDE1 		ldrh	r1, [sp, #28]	@ D.11167, cluster_size
 2886 0204 910303E0 		mul	r3, r1, r3	@ D.11168, D.11167, D.11166
 2887 0208 032082E0 		add	r2, r2, r3	@ D.11169, D.11163, D.11168
 2888 020c BA32DDE1 		ldrh	r3, [sp, #42]	@ D.11170, first_cluster_offset
 2889 0210 033082E0 		add	r3, r2, r3	@ tmp231, D.11169, D.11170
 2890 0214 18308DE5 		str	r3, [sp, #24]	@ tmp231, cluster_offset
1114:fat16.cpp     ****             uint16_t write_length = cluster_size - first_cluster_offset;
 2891              		.loc 1 1114 0
 2892 0218 BC21DDE1 		ldrh	r2, [sp, #28]	@ movhi	@ tmp232, cluster_size
 2893 021c BA32DDE1 		ldrh	r3, [sp, #42]	@ movhi	@ tmp233, first_cluster_offset
 2894 0220 023063E0 		rsb	r3, r3, r2	@ tmp234, tmp233, tmp232
 2895 0224 B032CDE1 		strh	r3, [sp, #32]	@ movhi	@ tmp234, write_length
1115:fat16.cpp     ****             if(write_length > buffer_left)
 2896              		.loc 1 1115 0
 2897 0228 B022DDE1 		ldrh	r2, [sp, #32]	@ tmp235, write_length
 2898 022c BC32DDE1 		ldrh	r3, [sp, #44]	@ tmp236, buffer_left
 2899 0230 030052E1 		cmp	r2, r3	@ tmp235, tmp236
 2900 0234 0100009A 		bls	.L191	@,
1116:fat16.cpp     ****                 write_length = buffer_left;
 2901              		.loc 1 1116 0
 2902 0238 BC32DDE1 		ldrh	r3, [sp, #44]	@ movhi	@ tmp237, buffer_left
 2903 023c B032CDE1 		strh	r3, [sp, #32]	@ movhi	@ tmp237, write_length
 2904              	.L191:
1117:fat16.cpp     ****     
1118:fat16.cpp     ****             /* write data which fits into the current cluster */
1119:fat16.cpp     ****             if(!fd->fs->partition->device_write(cluster_offset, buffer, write_length))
 2905              		.loc 1 1119 0
 2906 0240 0C309DE5 		ldr	r3, [sp, #12]	@ tmp238, fd
 2907 0244 003093E5 		ldr	r3, [r3, #0]	@ D.11175, fd_16(D)->fs
 2908 0248 003093E5 		ldr	r3, [r3, #0]	@ D.11176, D.11175_60->partition
 2909 024c 083093E5 		ldr	r3, [r3, #8]	@ D.11177, D.11176_61->device_write
 2910 0250 B022DDE1 		ldrh	r2, [sp, #32]	@ tmp239, write_length
 2911 0254 18009DE5 		ldr	r0, [sp, #24]	@, cluster_offset
 2912 0258 08109DE5 		ldr	r1, [sp, #8]	@, buffer
 2913 025c 0FE0A0E1 		mov	lr, pc
 2914 0260 13FF2FE1 		bx	r3	@ D.11177
 2915 0264 0030A0E1 		mov	r3, r0	@ tmp240,
 2916 0268 000053E3 		cmp	r3, #0	@ D.11178,
 2917 026c 0030A013 		movne	r3, #0	@, tmp242
 2918 0270 0130A003 		moveq	r3, #1	@, tmp242
 2919 0274 FF3003E2 		and	r3, r3, #255	@ retval.20, tmp241,
ARM GAS  /tmp/ccwDRvq0.s 			page 73


 2920 0278 000053E3 		cmp	r3, #0	@ retval.20,
 2921 027c 4000001A 		bne	.L198	@,
 2922              	.L192:
1120:fat16.cpp     ****                 break;
1121:fat16.cpp     ****     
1122:fat16.cpp     ****             /* calculate new file position */
1123:fat16.cpp     ****             buffer += write_length;
 2923              		.loc 1 1123 0
 2924 0280 B032DDE1 		ldrh	r3, [sp, #32]	@ D.11181, write_length
 2925 0284 08209DE5 		ldr	r2, [sp, #8]	@ tmp243, buffer
 2926 0288 033082E0 		add	r3, r2, r3	@ tmp244, tmp243, D.11181
 2927 028c 08308DE5 		str	r3, [sp, #8]	@ tmp244, buffer
1124:fat16.cpp     ****             buffer_left -= write_length;
 2928              		.loc 1 1124 0
 2929 0290 BC22DDE1 		ldrh	r2, [sp, #44]	@ movhi	@ tmp245, buffer_left
 2930 0294 B032DDE1 		ldrh	r3, [sp, #32]	@ movhi	@ tmp246, write_length
 2931 0298 023063E0 		rsb	r3, r3, r2	@ tmp247, tmp246, tmp245
 2932 029c BC32CDE1 		strh	r3, [sp, #44]	@ movhi	@ tmp247, buffer_left
1125:fat16.cpp     ****             fd->pos += write_length;
 2933              		.loc 1 1125 0
 2934 02a0 0C309DE5 		ldr	r3, [sp, #12]	@ tmp248, fd
 2935 02a4 302093E5 		ldr	r2, [r3, #48]	@ D.11182, fd_16(D)->pos
 2936 02a8 B032DDE1 		ldrh	r3, [sp, #32]	@ D.11183, write_length
 2937 02ac 032082E0 		add	r2, r2, r3	@ D.11184, D.11182, D.11183
 2938 02b0 0C309DE5 		ldr	r3, [sp, #12]	@ tmp249, fd
 2939 02b4 302083E5 		str	r2, [r3, #48]	@ D.11184, fd_16(D)->pos
 2940              	.LBB37:
1126:fat16.cpp     ****     
1127:fat16.cpp     ****             if(first_cluster_offset + write_length >= cluster_size)
 2941              		.loc 1 1127 0
 2942 02b8 BA22DDE1 		ldrh	r2, [sp, #42]	@ D.11185, first_cluster_offset
 2943 02bc B032DDE1 		ldrh	r3, [sp, #32]	@ D.11186, write_length
 2944 02c0 032082E0 		add	r2, r2, r3	@ D.11187, D.11185, D.11186
 2945 02c4 BC31DDE1 		ldrh	r3, [sp, #28]	@ D.11188, cluster_size
 2946 02c8 030052E1 		cmp	r2, r3	@ D.11187, D.11188
 2947 02cc 210000BA 		blt	.L194	@,
 2948              	.LBB38:
1128:fat16.cpp     ****             {
1129:fat16.cpp     ****                 /* we are on a cluster boundary, so get the next cluster */
1130:fat16.cpp     ****                 uint16_t cluster_num_next = fat16_get_next_cluster(fd->fs, cluster_num);
 2949              		.loc 1 1130 0
 2950 02d0 0C309DE5 		ldr	r3, [sp, #12]	@ tmp250, fd
 2951 02d4 002093E5 		ldr	r2, [r3, #0]	@ D.11191, fd_16(D)->fs
 2952 02d8 BE32DDE1 		ldrh	r3, [sp, #46]	@ tmp251, cluster_num
 2953 02dc 0200A0E1 		mov	r0, r2	@, D.11191
 2954 02e0 0310A0E1 		mov	r1, r3	@, tmp251
 2955 02e4 FEFFFFEB 		bl	_ZL22fat16_get_next_clusterPK15fat16_fs_structt	@
 2956 02e8 0030A0E1 		mov	r3, r0	@ tmp252,
 2957 02ec BE31CDE1 		strh	r3, [sp, #30]	@ movhi	@ tmp252, cluster_num_next
1131:fat16.cpp     ****                 if(!cluster_num_next && buffer_left > 0)
 2958              		.loc 1 1131 0
 2959 02f0 BE31DDE1 		ldrh	r3, [sp, #30]	@ tmp253, cluster_num_next
 2960 02f4 000053E3 		cmp	r3, #0	@ tmp253,
 2961 02f8 0B00001A 		bne	.L195	@,
 2962              		.loc 1 1131 0 is_stmt 0 discriminator 1
 2963 02fc BC32DDE1 		ldrh	r3, [sp, #44]	@ tmp254, buffer_left
 2964 0300 000053E3 		cmp	r3, #0	@ tmp254,
ARM GAS  /tmp/ccwDRvq0.s 			page 74


 2965 0304 0800000A 		beq	.L195	@,
1132:fat16.cpp     ****         /* we reached the last cluster, append a new one */
1133:fat16.cpp     ****                     cluster_num_next = fat16_append_clusters(fd->fs, cluster_num, 1);
 2966              		.loc 1 1133 0 is_stmt 1
 2967 0308 0C309DE5 		ldr	r3, [sp, #12]	@ tmp255, fd
 2968 030c 002093E5 		ldr	r2, [r3, #0]	@ D.11196, fd_16(D)->fs
 2969 0310 BE32DDE1 		ldrh	r3, [sp, #46]	@ tmp256, cluster_num
 2970 0314 0200A0E1 		mov	r0, r2	@, D.11196
 2971 0318 0310A0E1 		mov	r1, r3	@, tmp256
 2972 031c 0120A0E3 		mov	r2, #1	@,
 2973 0320 FEFFFFEB 		bl	_ZL21fat16_append_clustersPK15fat16_fs_structtt	@
 2974 0324 0030A0E1 		mov	r3, r0	@ tmp257,
 2975 0328 BE31CDE1 		strh	r3, [sp, #30]	@ movhi	@ tmp257, cluster_num_next
 2976              	.L195:
1134:fat16.cpp     ****                 if(!cluster_num_next)
 2977              		.loc 1 1134 0
 2978 032c BE31DDE1 		ldrh	r3, [sp, #30]	@ tmp258, cluster_num_next
 2979 0330 000053E3 		cmp	r3, #0	@ tmp258,
 2980 0334 0300001A 		bne	.L196	@,
1135:fat16.cpp     ****                 {
1136:fat16.cpp     ****                     fd->pos_cluster = 0;
 2981              		.loc 1 1136 0
 2982 0338 0C309DE5 		ldr	r3, [sp, #12]	@ tmp259, fd
 2983 033c 0020A0E3 		mov	r2, #0	@ tmp261,
 2984 0340 B423C3E1 		strh	r2, [r3, #52]	@ movhi	@ tmp260, fd_16(D)->pos_cluster
1137:fat16.cpp     ****                     break;
 2985              		.loc 1 1137 0
 2986 0344 0F0000EA 		b	.L193	@
 2987              	.L196:
1138:fat16.cpp     ****                 }
1139:fat16.cpp     ****     
1140:fat16.cpp     ****                 cluster_num = cluster_num_next;
 2988              		.loc 1 1140 0
 2989 0348 BE31DDE1 		ldrh	r3, [sp, #30]	@ movhi	@ tmp262, cluster_num_next
 2990 034c BE32CDE1 		strh	r3, [sp, #46]	@ movhi	@ tmp262, cluster_num
1141:fat16.cpp     ****                 first_cluster_offset = 0;
 2991              		.loc 1 1141 0
 2992 0350 0030A0E3 		mov	r3, #0	@ tmp264,
 2993 0354 BA32CDE1 		strh	r3, [sp, #42]	@ movhi	@ tmp263, first_cluster_offset
 2994              	.L194:
 2995              	.LBE38:
 2996              	.LBE37:
1142:fat16.cpp     ****             }
1143:fat16.cpp     ****     
1144:fat16.cpp     ****             fd->pos_cluster = cluster_num;
 2997              		.loc 1 1144 0
 2998 0358 0C309DE5 		ldr	r3, [sp, #12]	@ tmp265, fd
 2999 035c BE22DDE1 		ldrh	r2, [sp, #46]	@ movhi	@ tmp266, cluster_num
 3000 0360 B423C3E1 		strh	r2, [r3, #52]	@ movhi	@ tmp266, fd_16(D)->pos_cluster
 3001              	.LBE36:
1109:fat16.cpp     ****         do
 3002              		.loc 1 1109 0
 3003 0364 BC32DDE1 		ldrh	r3, [sp, #44]	@ tmp268, buffer_left
 3004 0368 000053E3 		cmp	r3, #0	@ tmp268,
 3005 036c 0030A003 		moveq	r3, #0	@, tmp269
 3006 0370 0130A013 		movne	r3, #1	@, tmp269
 3007 0374 FF3003E2 		and	r3, r3, #255	@ D.11161, tmp267,
ARM GAS  /tmp/ccwDRvq0.s 			page 75


 3008 0378 000053E3 		cmp	r3, #0	@ D.11161,
 3009 037c 9AFFFF1A 		bne	.L184	@,
 3010 0380 000000EA 		b	.L193	@
 3011              	.L198:
 3012              	.LBB39:
1120:fat16.cpp     ****                 break;
 3013              		.loc 1 1120 0
 3014 0384 0000A0E1 		mov	r0, r0	@ nop
 3015              	.L193:
 3016              	.LBE39:
 3017              	.LBB40:
1145:fat16.cpp     ****     
1146:fat16.cpp     ****         }
1147:fat16.cpp     ****         while(buffer_left > 0); /* check if we are done */
1148:fat16.cpp     ****     
1149:fat16.cpp     ****         /* update directory entry */
1150:fat16.cpp     ****         if(fd->pos > fd->dir_entry.file_size)
 3018              		.loc 1 1150 0
 3019 0388 0C309DE5 		ldr	r3, [sp, #12]	@ tmp270, fd
 3020 038c 302093E5 		ldr	r2, [r3, #48]	@ D.11201, fd_16(D)->pos
 3021 0390 0C309DE5 		ldr	r3, [sp, #12]	@ tmp271, fd
 3022 0394 283093E5 		ldr	r3, [r3, #40]	@ D.11202, fd_16(D)->dir_entry.file_size
 3023 0398 030052E1 		cmp	r2, r3	@ D.11201, D.11202
 3024 039c 2000009A 		bls	.L197	@,
 3025              	.LBB41:
1151:fat16.cpp     ****         {
1152:fat16.cpp     ****             uint32_t size_old = fd->dir_entry.file_size;
 3026              		.loc 1 1152 0
 3027 03a0 0C309DE5 		ldr	r3, [sp, #12]	@ tmp272, fd
 3028 03a4 283093E5 		ldr	r3, [r3, #40]	@ tmp273, fd_16(D)->dir_entry.file_size
 3029 03a8 14308DE5 		str	r3, [sp, #20]	@ tmp273, size_old
1153:fat16.cpp     ****     
1154:fat16.cpp     ****             /* update file size */
1155:fat16.cpp     ****             fd->dir_entry.file_size = fd->pos;
 3030              		.loc 1 1155 0
 3031 03ac 0C309DE5 		ldr	r3, [sp, #12]	@ tmp274, fd
 3032 03b0 302093E5 		ldr	r2, [r3, #48]	@ D.11205, fd_16(D)->pos
 3033 03b4 0C309DE5 		ldr	r3, [sp, #12]	@ tmp275, fd
 3034 03b8 282083E5 		str	r2, [r3, #40]	@ D.11205, fd_16(D)->dir_entry.file_size
1156:fat16.cpp     ****             /* write directory entry */
1157:fat16.cpp     ****             if(!fat16_write_dir_entry(fd->fs, &fd->dir_entry))
 3035              		.loc 1 1157 0
 3036 03bc 0C309DE5 		ldr	r3, [sp, #12]	@ tmp276, fd
 3037 03c0 002093E5 		ldr	r2, [r3, #0]	@ D.11207, fd_16(D)->fs
 3038 03c4 0C309DE5 		ldr	r3, [sp, #12]	@ tmp277, fd
 3039 03c8 043083E2 		add	r3, r3, #4	@ D.11208, tmp277,
 3040 03cc 0200A0E1 		mov	r0, r2	@, D.11207
 3041 03d0 0310A0E1 		mov	r1, r3	@, D.11208
 3042 03d4 FEFFFFEB 		bl	_ZL21fat16_write_dir_entryPK15fat16_fs_structPK22fat16_dir_entry_struct	@
 3043 03d8 0030A0E1 		mov	r3, r0	@ tmp278,
 3044 03dc 000053E3 		cmp	r3, #0	@ D.11209,
 3045 03e0 0030A013 		movne	r3, #0	@, tmp280
 3046 03e4 0130A003 		moveq	r3, #1	@, tmp280
 3047 03e8 FF3003E2 		and	r3, r3, #255	@ retval.21, tmp279,
 3048 03ec 000053E3 		cmp	r3, #0	@ retval.21,
 3049 03f0 0B00000A 		beq	.L197	@,
1158:fat16.cpp     ****             {
ARM GAS  /tmp/ccwDRvq0.s 			page 76


1159:fat16.cpp     ****                 /* We do not return an error here since we actually wrote
1160:fat16.cpp     ****                                                              * some data to disk. So we calculate t
1161:fat16.cpp     ****                                                              * we wrote to disk and which lies with
1162:fat16.cpp     ****                                                              */
1163:fat16.cpp     ****                 buffer_left = fd->pos - size_old;
 3050              		.loc 1 1163 0
 3051 03f4 0C309DE5 		ldr	r3, [sp, #12]	@ tmp281, fd
 3052 03f8 303093E5 		ldr	r3, [r3, #48]	@ D.11212, fd_16(D)->pos
 3053 03fc 0338A0E1 		mov	r3, r3, asl #16	@ tmp282, D.11212,
 3054 0400 2328A0E1 		mov	r2, r3, lsr #16	@ D.11213, tmp282,
 3055 0404 14309DE5 		ldr	r3, [sp, #20]	@ tmp283, size_old
 3056 0408 0338A0E1 		mov	r3, r3, asl #16	@ tmp284, tmp283,
 3057 040c 2338A0E1 		mov	r3, r3, lsr #16	@ D.11214, tmp284,
 3058 0410 023063E0 		rsb	r3, r3, r2	@ tmp285, D.11214, D.11213
 3059 0414 BC32CDE1 		strh	r3, [sp, #44]	@ movhi	@ tmp285, buffer_left
1164:fat16.cpp     ****                 fd->pos = size_old;
 3060              		.loc 1 1164 0
 3061 0418 0C309DE5 		ldr	r3, [sp, #12]	@ tmp286, fd
 3062 041c 14209DE5 		ldr	r2, [sp, #20]	@ tmp287, size_old
 3063 0420 302083E5 		str	r2, [r3, #48]	@ tmp287, fd_16(D)->pos
 3064              	.L197:
 3065              	.LBE41:
 3066              	.LBE40:
1165:fat16.cpp     ****             }
1166:fat16.cpp     ****         }
1167:fat16.cpp     ****     
1168:fat16.cpp     ****         return buffer_len - buffer_left;
 3067              		.loc 1 1168 0
 3068 0424 B620DDE1 		ldrh	r2, [sp, #6]	@ movhi	@ tmp288, buffer_len
 3069 0428 BC32DDE1 		ldrh	r3, [sp, #44]	@ movhi	@ tmp289, buffer_left
 3070 042c 023063E0 		rsb	r3, r3, r2	@ tmp290, tmp289, tmp288
 3071 0430 0338A0E1 		mov	r3, r3, asl #16	@ tmp291, tmp290,
 3072 0434 2338A0E1 		mov	r3, r3, lsr #16	@ D.11217, tmp291,
 3073 0438 0338A0E1 		mov	r3, r3, asl #16	@ tmp292, D.11217,
 3074 043c 2338A0E1 		mov	r3, r3, lsr #16	@ D.11117, tmp292,
 3075              	.L182:
 3076 0440 0338A0E1 		mov	r3, r3, asl #16	@ tmp295, D.11117,
 3077 0444 4338A0E1 		mov	r3, r3, asr #16	@ tmp294, tmp295,
 3078              	.LBE31:
1169:fat16.cpp     ****     
1170:fat16.cpp     ****     #else
1171:fat16.cpp     ****         return -1;
1172:fat16.cpp     ****     #endif
1173:fat16.cpp     **** }
 3079              		.loc 1 1173 0
 3080 0448 0300A0E1 		mov	r0, r3	@, <retval>
 3081 044c 34D08DE2 		add	sp, sp, #52	@,,
 3082 0450 04E09DE4 		ldr	lr, [sp], #4
 3083 0454 1EFF2FE1 		bx	lr
 3084              	.L200:
 3085              		.align	2
 3086              	.L199:
 3087 0458 FFFF0000 		.word	65535
 3088              		.cfi_endproc
 3089              	.LFE125:
 3090              		.size	_Z16fat16_write_fileP17fat16_file_structPKht, .-_Z16fat16_write_fileP17fat16_file_structPKht
 3091              		.section	.text._Z15fat16_seek_fileP17fat16_file_structPlh,"ax",%progbits
ARM GAS  /tmp/ccwDRvq0.s 			page 77


 3092              		.align	2
 3093              		.global	_Z15fat16_seek_fileP17fat16_file_structPlh
 3094              		.type	_Z15fat16_seek_fileP17fat16_file_structPlh, %function
 3095              	_Z15fat16_seek_fileP17fat16_file_structPlh:
 3096              	.LFB126:
1174:fat16.cpp     **** 
1175:fat16.cpp     **** /**
1176:fat16.cpp     ****  * \ingroup fat16_file
1177:fat16.cpp     ****  * Repositions the read/write file offset.
1178:fat16.cpp     ****  *
1179:fat16.cpp     ****  * Changes the file offset where the next call to fat16_read_file()
1180:fat16.cpp     ****  * or fat16_write_file() starts reading/writing.
1181:fat16.cpp     ****  *
1182:fat16.cpp     ****  * If the new offset is beyond the end of the file, fat16_resize_file()
1183:fat16.cpp     ****  * is implicitly called, i.e. the file is expanded.
1184:fat16.cpp     ****  *
1185:fat16.cpp     ****  * The new offset can be given in different ways determined by
1186:fat16.cpp     ****  * the \c whence parameter:
1187:fat16.cpp     ****  * - \b FAT16_SEEK_SET: \c *offset is relative to the beginning of the file.
1188:fat16.cpp     ****  * - \b FAT16_SEEK_CUR: \c *offset is relative to the current file position.
1189:fat16.cpp     ****  * - \b FAT16_SEEK_END: \c *offset is relative to the end of the file.
1190:fat16.cpp     ****  *
1191:fat16.cpp     ****  * The resulting absolute offset is written to the location the \c offset
1192:fat16.cpp     ****  * parameter points to.
1193:fat16.cpp     ****  *
1194:fat16.cpp     ****  * \param[in] fd The file decriptor of the file on which to seek.
1195:fat16.cpp     ****  * \param[in,out] offset A pointer to the new offset, as affected by the \c whence
1196:fat16.cpp     ****  *                   parameter. The function writes the new absolute offset
1197:fat16.cpp     ****  *                   to this location before it returns.
1198:fat16.cpp     ****  * \param[in] whence Affects the way \c offset is interpreted, see above.
1199:fat16.cpp     ****  * \returns 0 on failure, 1 on success.
1200:fat16.cpp     ****  */
1201:fat16.cpp     **** uint8_t fat16_seek_file(struct fat16_file_struct* fd, int32_t* offset, uint8_t whence)
1202:fat16.cpp     **** {
 3097              		.loc 1 1202 0
 3098              		.cfi_startproc
 3099              		@ Function supports interworking.
 3100              		@ args = 0, pretend = 0, frame = 24
 3101              		@ frame_needed = 0, uses_anonymous_args = 0
 3102 0000 04E02DE5 		str	lr, [sp, #-4]!	@,
 3103              	.LCFI32:
 3104              		.cfi_def_cfa_offset 4
 3105 0004 1CD04DE2 		sub	sp, sp, #28	@,,
 3106              	.LCFI33:
 3107              		.cfi_def_cfa_offset 32
 3108 0008 0C008DE5 		str	r0, [sp, #12]	@ fd, fd
 3109 000c 08108DE5 		str	r1, [sp, #8]	@ offset, offset
 3110 0010 0230A0E1 		mov	r3, r2	@ tmp147, whence
 3111 0014 0730CDE5 		strb	r3, [sp, #7]	@ tmp148, whence
 3112              	.LBB42:
1203:fat16.cpp     ****     if(!fd || !offset)
 3113              		.loc 1 1203 0
 3114 0018 0C309DE5 		ldr	r3, [sp, #12]	@ tmp149, fd
 3115 001c 000053E3 		cmp	r3, #0	@ tmp149,
 3116 0020 0200000A 		beq	.L202	@,
 3117              		.cfi_offset 14, -4
 3118              		.loc 1 1203 0 is_stmt 0 discriminator 1
ARM GAS  /tmp/ccwDRvq0.s 			page 78


 3119 0024 08309DE5 		ldr	r3, [sp, #8]	@ tmp150, offset
 3120 0028 000053E3 		cmp	r3, #0	@ tmp150,
 3121 002c 0100001A 		bne	.L203	@,
 3122              	.L202:
1204:fat16.cpp     ****         return 0;
 3123              		.loc 1 1204 0 is_stmt 1
 3124 0030 0030A0E3 		mov	r3, #0	@ D.11092,
 3125 0034 380000EA 		b	.L204	@
 3126              	.L203:
1205:fat16.cpp     **** 
1206:fat16.cpp     ****     uint32_t new_pos = fd->pos;
 3127              		.loc 1 1206 0
 3128 0038 0C309DE5 		ldr	r3, [sp, #12]	@ tmp151, fd
 3129 003c 303093E5 		ldr	r3, [r3, #48]	@ tmp152, fd_4(D)->pos
 3130 0040 14308DE5 		str	r3, [sp, #20]	@ tmp152, new_pos
1207:fat16.cpp     ****     switch(whence)
 3131              		.loc 1 1207 0
 3132 0044 0730DDE5 		ldrb	r3, [sp, #7]	@ zero_extendqisi2	@ D.11094, whence
 3133 0048 010053E3 		cmp	r3, #1	@ D.11094,
 3134 004c 0700000A 		beq	.L207	@,
 3135 0050 020053E3 		cmp	r3, #2	@ D.11094,
 3136 0054 0B00000A 		beq	.L208	@,
 3137 0058 000053E3 		cmp	r3, #0	@ D.11094,
 3138 005c 1000001A 		bne	.L213	@,
 3139              	.L206:
1208:fat16.cpp     ****     {
1209:fat16.cpp     ****         case FAT16_SEEK_SET:
1210:fat16.cpp     ****             new_pos = *offset;
 3140              		.loc 1 1210 0
 3141 0060 08309DE5 		ldr	r3, [sp, #8]	@ tmp153, offset
 3142 0064 003093E5 		ldr	r3, [r3, #0]	@ D.11095,
 3143 0068 14308DE5 		str	r3, [sp, #20]	@ D.11095, new_pos
1211:fat16.cpp     ****             break;
 3144              		.loc 1 1211 0
 3145 006c 0E0000EA 		b	.L209	@
 3146              	.L207:
1212:fat16.cpp     ****         case FAT16_SEEK_CUR:
1213:fat16.cpp     ****             new_pos += *offset;
 3147              		.loc 1 1213 0
 3148 0070 08309DE5 		ldr	r3, [sp, #8]	@ tmp154, offset
 3149 0074 003093E5 		ldr	r3, [r3, #0]	@ D.11096,
 3150 0078 14209DE5 		ldr	r2, [sp, #20]	@ tmp155, new_pos
 3151 007c 033082E0 		add	r3, r2, r3	@ tmp156, tmp155, D.11097
 3152 0080 14308DE5 		str	r3, [sp, #20]	@ tmp156, new_pos
1214:fat16.cpp     ****             break;
 3153              		.loc 1 1214 0
 3154 0084 080000EA 		b	.L209	@
 3155              	.L208:
1215:fat16.cpp     ****         case FAT16_SEEK_END:
1216:fat16.cpp     ****             new_pos = fd->dir_entry.file_size + *offset;
 3156              		.loc 1 1216 0
 3157 0088 0C309DE5 		ldr	r3, [sp, #12]	@ tmp157, fd
 3158 008c 282093E5 		ldr	r2, [r3, #40]	@ D.11098, fd_4(D)->dir_entry.file_size
 3159 0090 08309DE5 		ldr	r3, [sp, #8]	@ tmp158, offset
 3160 0094 003093E5 		ldr	r3, [r3, #0]	@ D.11099,
 3161 0098 033082E0 		add	r3, r2, r3	@ tmp159, D.11098, D.11100
 3162 009c 14308DE5 		str	r3, [sp, #20]	@ tmp159, new_pos
ARM GAS  /tmp/ccwDRvq0.s 			page 79


1217:fat16.cpp     ****             break;
 3163              		.loc 1 1217 0
 3164 00a0 010000EA 		b	.L209	@
 3165              	.L213:
1218:fat16.cpp     ****         default:
1219:fat16.cpp     ****             return 0;
 3166              		.loc 1 1219 0
 3167 00a4 0030A0E3 		mov	r3, #0	@ D.11092,
 3168 00a8 1B0000EA 		b	.L204	@
 3169              	.L209:
1220:fat16.cpp     ****     }
1221:fat16.cpp     **** 
1222:fat16.cpp     ****     if(new_pos > fd->dir_entry.file_size && !fat16_resize_file(fd, new_pos))
 3170              		.loc 1 1222 0
 3171 00ac 0C309DE5 		ldr	r3, [sp, #12]	@ tmp160, fd
 3172 00b0 282093E5 		ldr	r2, [r3, #40]	@ D.11105, fd_4(D)->dir_entry.file_size
 3173 00b4 14309DE5 		ldr	r3, [sp, #20]	@ tmp161, new_pos
 3174 00b8 030052E1 		cmp	r2, r3	@ D.11105, tmp161
 3175 00bc 0700002A 		bcs	.L210	@,
 3176              		.loc 1 1222 0 is_stmt 0 discriminator 1
 3177 00c0 0C009DE5 		ldr	r0, [sp, #12]	@, fd
 3178 00c4 14109DE5 		ldr	r1, [sp, #20]	@, new_pos
 3179 00c8 FEFFFFEB 		bl	_Z17fat16_resize_fileP17fat16_file_structm	@
 3180 00cc 0030A0E1 		mov	r3, r0	@ tmp162,
 3181 00d0 000053E3 		cmp	r3, #0	@ D.11107,
 3182 00d4 0100001A 		bne	.L210	@,
 3183              		.loc 1 1222 0 discriminator 3
 3184 00d8 0130A0E3 		mov	r3, #1	@ iftmp.18,
 3185 00dc 000000EA 		b	.L211	@
 3186              	.L210:
 3187              		.loc 1 1222 0 discriminator 2
 3188 00e0 0030A0E3 		mov	r3, #0	@ iftmp.18,
 3189              	.L211:
 3190              		.loc 1 1222 0 discriminator 4
 3191 00e4 000053E3 		cmp	r3, #0	@ retval.17,
 3192 00e8 0100000A 		beq	.L212	@,
1223:fat16.cpp     ****         return 0;
 3193              		.loc 1 1223 0 is_stmt 1
 3194 00ec 0030A0E3 		mov	r3, #0	@ D.11092,
 3195 00f0 090000EA 		b	.L204	@
 3196              	.L212:
1224:fat16.cpp     **** 
1225:fat16.cpp     ****     fd->pos = new_pos;
 3197              		.loc 1 1225 0
 3198 00f4 0C309DE5 		ldr	r3, [sp, #12]	@ tmp163, fd
 3199 00f8 14209DE5 		ldr	r2, [sp, #20]	@ tmp164, new_pos
 3200 00fc 302083E5 		str	r2, [r3, #48]	@ tmp164, fd_4(D)->pos
1226:fat16.cpp     ****     fd->pos_cluster = 0;
 3201              		.loc 1 1226 0
 3202 0100 0C309DE5 		ldr	r3, [sp, #12]	@ tmp165, fd
 3203 0104 0020A0E3 		mov	r2, #0	@ tmp167,
 3204 0108 B423C3E1 		strh	r2, [r3, #52]	@ movhi	@ tmp166, fd_4(D)->pos_cluster
1227:fat16.cpp     **** 
1228:fat16.cpp     ****     *offset = new_pos;
 3205              		.loc 1 1228 0
 3206 010c 14209DE5 		ldr	r2, [sp, #20]	@ new_pos.19, new_pos
 3207 0110 08309DE5 		ldr	r3, [sp, #8]	@ tmp168, offset
ARM GAS  /tmp/ccwDRvq0.s 			page 80


 3208 0114 002083E5 		str	r2, [r3, #0]	@ new_pos.19,
1229:fat16.cpp     ****     return 1;
 3209              		.loc 1 1229 0
 3210 0118 0130A0E3 		mov	r3, #1	@ D.11092,
 3211              	.L204:
 3212              	.LBE42:
1230:fat16.cpp     **** }
 3213              		.loc 1 1230 0
 3214 011c 0300A0E1 		mov	r0, r3	@, <retval>
 3215 0120 1CD08DE2 		add	sp, sp, #28	@,,
 3216 0124 04E09DE4 		ldr	lr, [sp], #4
 3217 0128 1EFF2FE1 		bx	lr
 3218              		.cfi_endproc
 3219              	.LFE126:
 3220              		.size	_Z15fat16_seek_fileP17fat16_file_structPlh, .-_Z15fat16_seek_fileP17fat16_file_structPlh
 3221              		.section	.text._Z17fat16_resize_fileP17fat16_file_structm,"ax",%progbits
 3222              		.align	2
 3223              		.global	_Z17fat16_resize_fileP17fat16_file_structm
 3224              		.type	_Z17fat16_resize_fileP17fat16_file_structm, %function
 3225              	_Z17fat16_resize_fileP17fat16_file_structm:
 3226              	.LFB127:
1231:fat16.cpp     **** 
1232:fat16.cpp     **** /**
1233:fat16.cpp     ****  * \ingroup fat16_file
1234:fat16.cpp     ****  * Resizes a file to have a specific size.
1235:fat16.cpp     ****  *
1236:fat16.cpp     ****  * Enlarges or shrinks the file pointed to by the file descriptor to have
1237:fat16.cpp     ****  * exactly the specified size.
1238:fat16.cpp     ****  *
1239:fat16.cpp     ****  * If the file is truncated, all bytes having an equal or larger offset
1240:fat16.cpp     ****  * than the given size are lost. If the file is expanded, the additional
1241:fat16.cpp     ****  * bytes are allocated.
1242:fat16.cpp     ****  *
1243:fat16.cpp     ****  * \note Please be aware that this function just allocates or deallocates disk
1244:fat16.cpp     ****  * space, it does not explicitely clear it. To avoid data leakage, this
1245:fat16.cpp     ****  * must be done manually.
1246:fat16.cpp     ****  *
1247:fat16.cpp     ****  * \param[in] fd The file decriptor of the file which to resize.
1248:fat16.cpp     ****  * \param[in] size The new size of the file.
1249:fat16.cpp     ****  * \returns 0 on failure, 1 on success.
1250:fat16.cpp     ****  */
1251:fat16.cpp     **** uint8_t fat16_resize_file(struct fat16_file_struct* fd, uint32_t size)
1252:fat16.cpp     **** {
 3227              		.loc 1 1252 0
 3228              		.cfi_startproc
 3229              		@ Function supports interworking.
 3230              		@ args = 0, pretend = 0, frame = 24
 3231              		@ frame_needed = 0, uses_anonymous_args = 0
 3232 0000 04E02DE5 		str	lr, [sp, #-4]!	@,
 3233              	.LCFI34:
 3234              		.cfi_def_cfa_offset 4
 3235 0004 1CD04DE2 		sub	sp, sp, #28	@,,
 3236              	.LCFI35:
 3237              		.cfi_def_cfa_offset 32
 3238 0008 04008DE5 		str	r0, [sp, #4]	@ fd, fd
 3239 000c 00108DE5 		str	r1, [sp, #0]	@ size, size
 3240              	.LBB43:
ARM GAS  /tmp/ccwDRvq0.s 			page 81


1253:fat16.cpp     ****     #if FAT16_WRITE_SUPPORT
1254:fat16.cpp     ****         if(!fd)
 3241              		.loc 1 1254 0
 3242 0010 04309DE5 		ldr	r3, [sp, #4]	@ tmp155, fd
 3243 0014 000053E3 		cmp	r3, #0	@ tmp155,
 3244 0018 0100001A 		bne	.L215	@,
 3245              		.cfi_offset 14, -4
1255:fat16.cpp     ****             return 0;
 3246              		.loc 1 1255 0
 3247 001c 0030A0E3 		mov	r3, #0	@ D.11030,
 3248 0020 900000EA 		b	.L216	@
 3249              	.L215:
1256:fat16.cpp     ****     
1257:fat16.cpp     ****         uint16_t cluster_num = fd->dir_entry.cluster;
 3250              		.loc 1 1257 0
 3251 0024 04309DE5 		ldr	r3, [sp, #4]	@ tmp156, fd
 3252 0028 B632D3E1 		ldrh	r3, [r3, #38]	@ movhi	@ tmp157, fd_6(D)->dir_entry.cluster
 3253 002c B631CDE1 		strh	r3, [sp, #22]	@ movhi	@ tmp157, cluster_num
1258:fat16.cpp     ****         uint16_t cluster_size = fd->fs->header.cluster_size;
 3254              		.loc 1 1258 0
 3255 0030 04309DE5 		ldr	r3, [sp, #4]	@ tmp158, fd
 3256 0034 003093E5 		ldr	r3, [r3, #0]	@ D.11031, fd_6(D)->fs
 3257 0038 B231D3E1 		ldrh	r3, [r3, #18]	@ movhi	@ tmp159, D.11031_9->header.cluster_size
 3258 003c BC30CDE1 		strh	r3, [sp, #12]	@ movhi	@ tmp159, cluster_size
1259:fat16.cpp     ****         uint32_t size_new = size;
 3259              		.loc 1 1259 0
 3260 0040 00309DE5 		ldr	r3, [sp, #0]	@ tmp160, size
 3261 0044 10308DE5 		str	r3, [sp, #16]	@ tmp160, size_new
 3262              	.LBB44:
1260:fat16.cpp     ****     
1261:fat16.cpp     ****         do
1262:fat16.cpp     ****         {
1263:fat16.cpp     ****             if(cluster_num == 0 && size_new == 0)
 3263              		.loc 1 1263 0
 3264 0048 B631DDE1 		ldrh	r3, [sp, #22]	@ tmp161, cluster_num
 3265 004c 000053E3 		cmp	r3, #0	@ tmp161,
 3266 0050 1400001A 		bne	.L219	@,
 3267              		.loc 1 1263 0 is_stmt 0 discriminator 1
 3268 0054 10309DE5 		ldr	r3, [sp, #16]	@ tmp162, size_new
 3269 0058 000053E3 		cmp	r3, #0	@ tmp162,
 3270 005c 1100001A 		bne	.L219	@,
1264:fat16.cpp     ****         /* the file stays empty */
1265:fat16.cpp     ****                 break;
 3271              		.loc 1 1265 0 is_stmt 1
 3272 0060 740000EA 		b	.L218	@
 3273              	.L222:
 3274              	.LBB45:
1266:fat16.cpp     ****     
1267:fat16.cpp     ****             /* seek to the next cluster as long as we need the space */
1268:fat16.cpp     ****             while(size_new > cluster_size)
1269:fat16.cpp     ****             {
1270:fat16.cpp     ****                 /* get next cluster of file */
1271:fat16.cpp     ****                 uint16_t cluster_num_next = fat16_get_next_cluster(fd->fs, cluster_num);
 3275              		.loc 1 1271 0
 3276 0064 04309DE5 		ldr	r3, [sp, #4]	@ tmp163, fd
 3277 0068 002093E5 		ldr	r2, [r3, #0]	@ D.11043, fd_6(D)->fs
 3278 006c B631DDE1 		ldrh	r3, [sp, #22]	@ tmp164, cluster_num
ARM GAS  /tmp/ccwDRvq0.s 			page 82


 3279 0070 0200A0E1 		mov	r0, r2	@, D.11043
 3280 0074 0310A0E1 		mov	r1, r3	@, tmp164
 3281 0078 FEFFFFEB 		bl	_ZL22fat16_get_next_clusterPK15fat16_fs_structt	@
 3282 007c 0030A0E1 		mov	r3, r0	@ tmp165,
 3283 0080 BA30CDE1 		strh	r3, [sp, #10]	@ movhi	@ tmp165, cluster_num_next
1272:fat16.cpp     ****                 if(cluster_num_next)
 3284              		.loc 1 1272 0
 3285 0084 BA30DDE1 		ldrh	r3, [sp, #10]	@ tmp166, cluster_num_next
 3286 0088 000053E3 		cmp	r3, #0	@ tmp166,
 3287 008c 0E00000A 		beq	.L231	@,
1273:fat16.cpp     ****                 {
1274:fat16.cpp     ****                     cluster_num = cluster_num_next;
 3288              		.loc 1 1274 0
 3289 0090 BA30DDE1 		ldrh	r3, [sp, #10]	@ movhi	@ tmp167, cluster_num_next
 3290 0094 B631CDE1 		strh	r3, [sp, #22]	@ movhi	@ tmp167, cluster_num
1275:fat16.cpp     ****                     size_new -= cluster_size;
 3291              		.loc 1 1275 0
 3292 0098 BC30DDE1 		ldrh	r3, [sp, #12]	@ D.11046, cluster_size
 3293 009c 10209DE5 		ldr	r2, [sp, #16]	@ tmp168, size_new
 3294 00a0 023063E0 		rsb	r3, r3, r2	@ tmp169, D.11046, tmp168
 3295 00a4 10308DE5 		str	r3, [sp, #16]	@ tmp169, size_new
 3296              	.L219:
 3297              	.LBE45:
1268:fat16.cpp     ****             while(size_new > cluster_size)
 3298              		.loc 1 1268 0 discriminator 1
 3299 00a8 BC20DDE1 		ldrh	r2, [sp, #12]	@ D.11041, cluster_size
 3300 00ac 10309DE5 		ldr	r3, [sp, #16]	@ tmp171, size_new
 3301 00b0 030052E1 		cmp	r2, r3	@ D.11041, tmp171
 3302 00b4 0030A023 		movcs	r3, #0	@, tmp172
 3303 00b8 0130A033 		movcc	r3, #1	@, tmp172
 3304 00bc FF3003E2 		and	r3, r3, #255	@ D.11042, tmp170,
 3305 00c0 000053E3 		cmp	r3, #0	@ D.11042,
 3306 00c4 E6FFFF1A 		bne	.L222	@,
 3307 00c8 000000EA 		b	.L221	@
 3308              	.L231:
 3309              	.LBB46:
1276:fat16.cpp     ****                 }
1277:fat16.cpp     ****                 else
1278:fat16.cpp     ****                 {
1279:fat16.cpp     ****                     break;
 3310              		.loc 1 1279 0
 3311 00cc 0000A0E1 		mov	r0, r0	@ nop
 3312              	.L221:
 3313              	.LBE46:
 3314              	.LBB47:
1280:fat16.cpp     ****                 }
1281:fat16.cpp     ****             }
1282:fat16.cpp     ****     
1283:fat16.cpp     ****             if(size_new > cluster_size || cluster_num == 0)
 3315              		.loc 1 1283 0
 3316 00d0 BC20DDE1 		ldrh	r2, [sp, #12]	@ D.11050, cluster_size
 3317 00d4 10309DE5 		ldr	r3, [sp, #16]	@ tmp173, size_new
 3318 00d8 030052E1 		cmp	r2, r3	@ D.11050, tmp173
 3319 00dc 0200003A 		bcc	.L223	@,
 3320              		.loc 1 1283 0 is_stmt 0 discriminator 1
 3321 00e0 B631DDE1 		ldrh	r3, [sp, #22]	@ tmp174, cluster_num
 3322 00e4 000053E3 		cmp	r3, #0	@ tmp174,
ARM GAS  /tmp/ccwDRvq0.s 			page 83


 3323 00e8 2500001A 		bne	.L224	@,
 3324              	.L223:
 3325              	.LBB48:
1284:fat16.cpp     ****             {
1285:fat16.cpp     ****                 /* Allocate new cluster chain and append
1286:fat16.cpp     ****                                                              * it to the existing one, if available
1287:fat16.cpp     ****                                                              */
1288:fat16.cpp     ****                 uint16_t cluster_count = size_new / cluster_size;
 3326              		.loc 1 1288 0 is_stmt 1
 3327 00ec BC30DDE1 		ldrh	r3, [sp, #12]	@ D.11052, cluster_size
 3328 00f0 10009DE5 		ldr	r0, [sp, #16]	@, size_new
 3329 00f4 0310A0E1 		mov	r1, r3	@, D.11052
 3330 00f8 FEFFFFEB 		bl	__aeabi_uidiv	@
 3331 00fc 0030A0E1 		mov	r3, r0	@ tmp177,
 3332 0100 BE30CDE1 		strh	r3, [sp, #14]	@ movhi	@ D.11053, cluster_count
1289:fat16.cpp     ****                 if((uint32_t) cluster_count * cluster_size < size_new)
 3333              		.loc 1 1289 0
 3334 0104 BE30DDE1 		ldrh	r3, [sp, #14]	@ D.11054, cluster_count
 3335 0108 BC20DDE1 		ldrh	r2, [sp, #12]	@ D.11055, cluster_size
 3336 010c 930202E0 		mul	r2, r3, r2	@ D.11056, D.11054, D.11055
 3337 0110 10309DE5 		ldr	r3, [sp, #16]	@ tmp178, size_new
 3338 0114 030052E1 		cmp	r2, r3	@ D.11056, tmp178
 3339 0118 0200002A 		bcs	.L225	@,
1290:fat16.cpp     ****                     ++cluster_count;
 3340              		.loc 1 1290 0
 3341 011c BE30DDE1 		ldrh	r3, [sp, #14]	@ movhi	@ tmp179, cluster_count
 3342 0120 013083E2 		add	r3, r3, #1	@ tmp180, tmp179,
 3343 0124 BE30CDE1 		strh	r3, [sp, #14]	@ movhi	@ tmp180, cluster_count
 3344              	.L225:
1291:fat16.cpp     ****                 uint16_t cluster_new_chain = fat16_append_clusters(fd->fs, cluster_num, cluster_cou
 3345              		.loc 1 1291 0
 3346 0128 04309DE5 		ldr	r3, [sp, #4]	@ tmp181, fd
 3347 012c 001093E5 		ldr	r1, [r3, #0]	@ D.11060, fd_6(D)->fs
 3348 0130 B621DDE1 		ldrh	r2, [sp, #22]	@ tmp182, cluster_num
 3349 0134 BE30DDE1 		ldrh	r3, [sp, #14]	@ tmp183, cluster_count
 3350 0138 0100A0E1 		mov	r0, r1	@, D.11060
 3351 013c 0210A0E1 		mov	r1, r2	@, tmp182
 3352 0140 0320A0E1 		mov	r2, r3	@, tmp183
 3353 0144 FEFFFFEB 		bl	_ZL21fat16_append_clustersPK15fat16_fs_structtt	@
 3354 0148 0030A0E1 		mov	r3, r0	@ tmp184,
 3355 014c B830CDE1 		strh	r3, [sp, #8]	@ movhi	@ tmp184, cluster_new_chain
1292:fat16.cpp     ****                 if(!cluster_new_chain)
 3356              		.loc 1 1292 0
 3357 0150 B830DDE1 		ldrh	r3, [sp, #8]	@ tmp185, cluster_new_chain
 3358 0154 000053E3 		cmp	r3, #0	@ tmp185,
 3359 0158 0100001A 		bne	.L226	@,
1293:fat16.cpp     ****                     return 0;
 3360              		.loc 1 1293 0
 3361 015c 0030A0E3 		mov	r3, #0	@ D.11030,
 3362 0160 400000EA 		b	.L216	@
 3363              	.L226:
1294:fat16.cpp     ****     
1295:fat16.cpp     ****                 if(!cluster_num)
 3364              		.loc 1 1295 0
 3365 0164 B631DDE1 		ldrh	r3, [sp, #22]	@ tmp186, cluster_num
 3366 0168 000053E3 		cmp	r3, #0	@ tmp186,
 3367 016c 0400001A 		bne	.L224	@,
ARM GAS  /tmp/ccwDRvq0.s 			page 84


1296:fat16.cpp     ****                 {
1297:fat16.cpp     ****                     cluster_num = cluster_new_chain;
 3368              		.loc 1 1297 0
 3369 0170 B830DDE1 		ldrh	r3, [sp, #8]	@ movhi	@ tmp187, cluster_new_chain
 3370 0174 B631CDE1 		strh	r3, [sp, #22]	@ movhi	@ tmp187, cluster_num
1298:fat16.cpp     ****                     fd->dir_entry.cluster = cluster_num;
 3371              		.loc 1 1298 0
 3372 0178 04309DE5 		ldr	r3, [sp, #4]	@ tmp188, fd
 3373 017c B621DDE1 		ldrh	r2, [sp, #22]	@ movhi	@ tmp189, cluster_num
 3374 0180 B622C3E1 		strh	r2, [r3, #38]	@ movhi	@ tmp189, fd_6(D)->dir_entry.cluster
 3375              	.L224:
 3376              	.LBE48:
 3377              	.LBE47:
1299:fat16.cpp     ****                 }
1300:fat16.cpp     ****             }
1301:fat16.cpp     ****     
1302:fat16.cpp     ****             /* write new directory entry */
1303:fat16.cpp     ****             fd->dir_entry.file_size = size;
 3378              		.loc 1 1303 0
 3379 0184 04309DE5 		ldr	r3, [sp, #4]	@ tmp190, fd
 3380 0188 00209DE5 		ldr	r2, [sp, #0]	@ tmp191, size
 3381 018c 282083E5 		str	r2, [r3, #40]	@ tmp191, fd_6(D)->dir_entry.file_size
1304:fat16.cpp     ****             if(size == 0)
 3382              		.loc 1 1304 0
 3383 0190 00309DE5 		ldr	r3, [sp, #0]	@ tmp192, size
 3384 0194 000053E3 		cmp	r3, #0	@ tmp192,
 3385 0198 0200001A 		bne	.L227	@,
1305:fat16.cpp     ****                 fd->dir_entry.cluster = 0;
 3386              		.loc 1 1305 0
 3387 019c 04309DE5 		ldr	r3, [sp, #4]	@ tmp193, fd
 3388 01a0 0020A0E3 		mov	r2, #0	@ tmp195,
 3389 01a4 B622C3E1 		strh	r2, [r3, #38]	@ movhi	@ tmp194, fd_6(D)->dir_entry.cluster
 3390              	.L227:
1306:fat16.cpp     ****             if(!fat16_write_dir_entry(fd->fs, &fd->dir_entry))
 3391              		.loc 1 1306 0
 3392 01a8 04309DE5 		ldr	r3, [sp, #4]	@ tmp196, fd
 3393 01ac 002093E5 		ldr	r2, [r3, #0]	@ D.11070, fd_6(D)->fs
 3394 01b0 04309DE5 		ldr	r3, [sp, #4]	@ tmp197, fd
 3395 01b4 043083E2 		add	r3, r3, #4	@ D.11071, tmp197,
 3396 01b8 0200A0E1 		mov	r0, r2	@, D.11070
 3397 01bc 0310A0E1 		mov	r1, r3	@, D.11071
 3398 01c0 FEFFFFEB 		bl	_ZL21fat16_write_dir_entryPK15fat16_fs_structPK22fat16_dir_entry_struct	@
 3399 01c4 0030A0E1 		mov	r3, r0	@ tmp198,
 3400 01c8 000053E3 		cmp	r3, #0	@ D.11072,
 3401 01cc 0030A013 		movne	r3, #0	@, tmp200
 3402 01d0 0130A003 		moveq	r3, #1	@, tmp200
 3403 01d4 FF3003E2 		and	r3, r3, #255	@ retval.16, tmp199,
 3404 01d8 000053E3 		cmp	r3, #0	@ retval.16,
 3405 01dc 0100000A 		beq	.L228	@,
1307:fat16.cpp     ****                 return 0;
 3406              		.loc 1 1307 0
 3407 01e0 0030A0E3 		mov	r3, #0	@ D.11030,
 3408 01e4 1F0000EA 		b	.L216	@
 3409              	.L228:
1308:fat16.cpp     ****     
1309:fat16.cpp     ****             if(size == 0)
 3410              		.loc 1 1309 0
ARM GAS  /tmp/ccwDRvq0.s 			page 85


 3411 01e8 00309DE5 		ldr	r3, [sp, #0]	@ tmp201, size
 3412 01ec 000053E3 		cmp	r3, #0	@ tmp201,
 3413 01f0 0600001A 		bne	.L229	@,
1310:fat16.cpp     ****             {
1311:fat16.cpp     ****                 /* free all clusters of file */
1312:fat16.cpp     ****                 fat16_free_clusters(fd->fs, cluster_num);
 3414              		.loc 1 1312 0
 3415 01f4 04309DE5 		ldr	r3, [sp, #4]	@ tmp202, fd
 3416 01f8 002093E5 		ldr	r2, [r3, #0]	@ D.11077, fd_6(D)->fs
 3417 01fc B631DDE1 		ldrh	r3, [sp, #22]	@ tmp203, cluster_num
 3418 0200 0200A0E1 		mov	r0, r2	@, D.11077
 3419 0204 0310A0E1 		mov	r1, r3	@, tmp203
 3420 0208 FEFFFFEB 		bl	_ZL19fat16_free_clustersPK15fat16_fs_structt	@
 3421 020c 090000EA 		b	.L218	@
 3422              	.L229:
1313:fat16.cpp     ****             }
1314:fat16.cpp     ****             else if(size_new <= cluster_size)
 3423              		.loc 1 1314 0
 3424 0210 BC20DDE1 		ldrh	r2, [sp, #12]	@ D.11079, cluster_size
 3425 0214 10309DE5 		ldr	r3, [sp, #16]	@ tmp204, size_new
 3426 0218 030052E1 		cmp	r2, r3	@ D.11079, tmp204
 3427 021c 0500003A 		bcc	.L218	@,
1315:fat16.cpp     ****             {
1316:fat16.cpp     ****                 /* free all clusters no longer needed */
1317:fat16.cpp     ****                 fat16_terminate_clusters(fd->fs, cluster_num);
 3428              		.loc 1 1317 0
 3429 0220 04309DE5 		ldr	r3, [sp, #4]	@ tmp205, fd
 3430 0224 002093E5 		ldr	r2, [r3, #0]	@ D.11082, fd_6(D)->fs
 3431 0228 B631DDE1 		ldrh	r3, [sp, #22]	@ tmp206, cluster_num
 3432 022c 0200A0E1 		mov	r0, r2	@, D.11082
 3433 0230 0310A0E1 		mov	r1, r3	@, tmp206
 3434 0234 FEFFFFEB 		bl	_ZL24fat16_terminate_clustersPK15fat16_fs_structt	@
 3435              	.L218:
 3436              	.LBE44:
1318:fat16.cpp     ****             }
1319:fat16.cpp     ****     
1320:fat16.cpp     ****         }
1321:fat16.cpp     ****         while(0);
1322:fat16.cpp     ****     
1323:fat16.cpp     ****         /* correct file position */
1324:fat16.cpp     ****         if(size < fd->pos)
 3437              		.loc 1 1324 0
 3438 0238 04309DE5 		ldr	r3, [sp, #4]	@ tmp207, fd
 3439 023c 302093E5 		ldr	r2, [r3, #48]	@ D.11084, fd_6(D)->pos
 3440 0240 00309DE5 		ldr	r3, [sp, #0]	@ tmp208, size
 3441 0244 030052E1 		cmp	r2, r3	@ D.11084, tmp208
 3442 0248 0500009A 		bls	.L230	@,
1325:fat16.cpp     ****         {
1326:fat16.cpp     ****             fd->pos = size;
 3443              		.loc 1 1326 0
 3444 024c 04309DE5 		ldr	r3, [sp, #4]	@ tmp209, fd
 3445 0250 00209DE5 		ldr	r2, [sp, #0]	@ tmp210, size
 3446 0254 302083E5 		str	r2, [r3, #48]	@ tmp210, fd_6(D)->pos
1327:fat16.cpp     ****             fd->pos_cluster = 0;
 3447              		.loc 1 1327 0
 3448 0258 04309DE5 		ldr	r3, [sp, #4]	@ tmp211, fd
 3449 025c 0020A0E3 		mov	r2, #0	@ tmp213,
ARM GAS  /tmp/ccwDRvq0.s 			page 86


 3450 0260 B423C3E1 		strh	r2, [r3, #52]	@ movhi	@ tmp212, fd_6(D)->pos_cluster
 3451              	.L230:
1328:fat16.cpp     ****         }
1329:fat16.cpp     ****     
1330:fat16.cpp     ****         return 1;
 3452              		.loc 1 1330 0
 3453 0264 0130A0E3 		mov	r3, #1	@ D.11030,
 3454              	.L216:
 3455              	.LBE43:
1331:fat16.cpp     ****     #else
1332:fat16.cpp     ****         return 0;
1333:fat16.cpp     ****     #endif
1334:fat16.cpp     **** }
 3456              		.loc 1 1334 0
 3457 0268 0300A0E1 		mov	r0, r3	@, <retval>
 3458 026c 1CD08DE2 		add	sp, sp, #28	@,,
 3459 0270 04E09DE4 		ldr	lr, [sp], #4
 3460 0274 1EFF2FE1 		bx	lr
 3461              		.cfi_endproc
 3462              	.LFE127:
 3463              		.size	_Z17fat16_resize_fileP17fat16_file_structm, .-_Z17fat16_resize_fileP17fat16_file_structm
 3464              		.section	.text._Z14fat16_open_dirP15fat16_fs_structPK22fat16_dir_entry_struct,"ax",%progbits
 3465              		.align	2
 3466              		.global	_Z14fat16_open_dirP15fat16_fs_structPK22fat16_dir_entry_struct
 3467              		.type	_Z14fat16_open_dirP15fat16_fs_structPK22fat16_dir_entry_struct, %function
 3468              	_Z14fat16_open_dirP15fat16_fs_structPK22fat16_dir_entry_struct:
 3469              	.LFB128:
1335:fat16.cpp     **** 
1336:fat16.cpp     **** /**
1337:fat16.cpp     ****  * \ingroup fat16_dir
1338:fat16.cpp     ****  * Opens a directory.
1339:fat16.cpp     ****  *
1340:fat16.cpp     ****  * \param[in] fs The filesystem on which the directory to open resides.
1341:fat16.cpp     ****  * \param[in] dir_entry The directory entry which stands for the directory to open.
1342:fat16.cpp     ****  * \returns An opaque directory descriptor on success, 0 on failure.
1343:fat16.cpp     ****  * \see fat16_close_dir
1344:fat16.cpp     ****  */
1345:fat16.cpp     **** struct fat16_dir_struct* fat16_open_dir(struct fat16_fs_struct* fs, const struct fat16_dir_entry_st
1346:fat16.cpp     **** {
 3470              		.loc 1 1346 0
 3471              		.cfi_startproc
 3472              		@ Function supports interworking.
 3473              		@ args = 0, pretend = 0, frame = 16
 3474              		@ frame_needed = 0, uses_anonymous_args = 0
 3475 0000 04E02DE5 		str	lr, [sp, #-4]!	@,
 3476              	.LCFI36:
 3477              		.cfi_def_cfa_offset 4
 3478 0004 14D04DE2 		sub	sp, sp, #20	@,,
 3479              	.LCFI37:
 3480              		.cfi_def_cfa_offset 24
 3481 0008 04008DE5 		str	r0, [sp, #4]	@ fs, fs
 3482 000c 00108DE5 		str	r1, [sp, #0]	@ dir_entry, dir_entry
 3483              	.LBB49:
1347:fat16.cpp     ****     if(!fs || !dir_entry || !(dir_entry->attributes & FAT16_ATTRIB_DIR))
 3484              		.loc 1 1347 0
 3485 0010 04309DE5 		ldr	r3, [sp, #4]	@ tmp140, fs
 3486 0014 000053E3 		cmp	r3, #0	@ tmp140,
ARM GAS  /tmp/ccwDRvq0.s 			page 87


 3487 0018 0700000A 		beq	.L233	@,
 3488              		.cfi_offset 14, -4
 3489              		.loc 1 1347 0 is_stmt 0 discriminator 1
 3490 001c 00309DE5 		ldr	r3, [sp, #0]	@ tmp141, dir_entry
 3491 0020 000053E3 		cmp	r3, #0	@ tmp141,
 3492 0024 0400000A 		beq	.L233	@,
 3493              		.loc 1 1347 0 discriminator 2
 3494 0028 00309DE5 		ldr	r3, [sp, #0]	@ tmp142, dir_entry
 3495 002c 2030D3E5 		ldrb	r3, [r3, #32]	@ zero_extendqisi2	@ D.11019, dir_entry_3(D)->attributes
 3496 0030 103003E2 		and	r3, r3, #16	@ D.11021, D.11020,
 3497 0034 000053E3 		cmp	r3, #0	@ D.11021,
 3498 0038 0100001A 		bne	.L234	@,
 3499              	.L233:
