ARM GAS  /tmp/ccYngNjd.s 			page 1


   1              		.cpu arm7tdmi
   2              		.fpu softvfp
   3              		.eabi_attribute 20, 1
   4              		.eabi_attribute 21, 1
   5              		.eabi_attribute 23, 3
   6              		.eabi_attribute 24, 1
   7              		.eabi_attribute 25, 1
   8              		.eabi_attribute 26, 1
   9              		.eabi_attribute 30, 6
  10              		.eabi_attribute 18, 4
  11              		.file	"Log.cpp"
  12              	@ GNU C++ (Sourcery G++ Lite 2011.03-42) version 4.5.2 (arm-none-eabi)
  13              	@	compiled by GNU C version 4.3.2, GMP version 4.3.2, MPFR version 2.4.2, MPC version 0.8.1
  14              	@ GGC heuristics: --param ggc-min-expand=100 --param ggc-min-heapsize=131072
  15              	@ options passed:  -I . -I../arm/arm7lib -iprefix
  16              	@ /home/elijah/CodeSourcery/Sourcery_G++_Lite/bin/../lib/gcc/arm-none-eabi/4.5.2/
  17              	@ -isysroot
  18              	@ /home/elijah/CodeSourcery/Sourcery_G++_Lite/bin/../arm-none-eabi -MD
  19              	@ Log.d -MF .dep/Log.o.d -MP -MQ Log.o -D__USES_INITFINI__
  20              	@ -D__CS_SOURCERYGXX_MAJ__=2011 -D__CS_SOURCERYGXX_MIN__=3
  21              	@ -D__CS_SOURCERYGXX_REV__=42 Log.cpp -mcpu=arm7tdmi -auxbase-strip Log.o
  22              	@ -gdwarf-2 -O0 -Wall -fno-rtti -fno-exceptions -fomit-frame-pointer
  23              	@ -ffunction-sections -fverbose-asm
  24              	@ options enabled:  -falign-loops -fargument-alias -fauto-inc-dec
  25              	@ -fbranch-count-reg -fcommon -fdelete-null-pointer-checks -fdwarf2-cfi-asm
  26              	@ -fearly-inlining -feliminate-unused-debug-types -ffunction-cse
  27              	@ -ffunction-sections -fgcse-lm -fident -finline-functions-called-once
  28              	@ -fira-share-save-slots -fira-share-spill-slots -fivopts
  29              	@ -fkeep-static-consts -fleading-underscore -fmath-errno
  30              	@ -fmerge-debug-strings -fmove-loop-invariants -fomit-frame-pointer
  31              	@ -fpeephole -fpromote-loop-indices -freg-struct-return
  32              	@ -fsched-critical-path-heuristic -fsched-dep-count-heuristic
  33              	@ -fsched-group-heuristic -fsched-interblock -fsched-last-insn-heuristic
  34              	@ -fsched-rank-heuristic -fsched-spec -fsched-spec-insn-heuristic
  35              	@ -fsched-stalled-insns-dep -fshow-column -fsigned-zeros
  36              	@ -fsplit-ivs-in-unroller -fstrict-volatile-bitfields -ftrapping-math
  37              	@ -ftree-cselim -ftree-forwprop -ftree-loop-im -ftree-loop-ivcanon
  38              	@ -ftree-loop-optimize -ftree-parallelize-loops= -ftree-phiprop -ftree-pta
  39              	@ -ftree-reassoc -ftree-scev-cprop -ftree-slp-vectorize
  40              	@ -ftree-vect-loop-version -funit-at-a-time -fverbose-asm
  41              	@ -fzero-initialized-in-bss -mlittle-endian -msched-prolog
  42              	@ -mthumb-interwork
  43              	
  50 0000 3C050000 		.text
  50      02007603 
  50      00000201 
  50      FB0E0D00 
  50      01010101 
  51              	.Ltext0:
  52              	@ Compiler executable checksum: cfdaeede3ac8e9b2b599068efabc405c
  53              	
ARM GAS  /tmp/ccYngNjd.s 			page 2


  54              		.cfi_sections	.debug_frame
  55              		.bss
  56              		.align	2
  57              	_ZL18logSingletonObject:
  58 0000 00000000 		.space	52
  58      00000000 
  58      00000000 
  58      00000000 
  58      00000000 
  59              		.section	.text._ZN3Log11GetInstanceEv,"ax",%progbits
  60              		.align	2
  61              		.global	_ZN3Log11GetInstanceEv
  62              		.type	_ZN3Log11GetInstanceEv, %function
  63              	_ZN3Log11GetInstanceEv:
  64              	.LFB109:
  65              		.file 1 "Log.cpp"
   1:Log.cpp       **** /***************************************************************************
   2:Log.cpp       ****  *                                                                         *
   3:Log.cpp       ****  *  This program is free software; you can redistribute it and/or modify   *
   4:Log.cpp       ****  *  it under the terms of the GNU General Public License as published by   *
   5:Log.cpp       ****  *  the Free Software Foundation; either version 2 of the License, or      *
   6:Log.cpp       ****  *  (at your option) any later version.                                    *
   7:Log.cpp       ****  *                                                                         *
   8:Log.cpp       ****  *  This program is distributed in the hope that it will be useful,        *
   9:Log.cpp       ****  *  but WITHOUT ANY WARRANTY; without even the implied warranty of         *
  10:Log.cpp       ****  *  MERCHANTABILITY or FITNESS FOR A PARTICULAR PURPOSE.  See the          *
  11:Log.cpp       ****  *  GNU General Public License for more details.                           *
  12:Log.cpp       ****  *                                                                         *
  13:Log.cpp       ****  *  You should have received a copy of the GNU General Public License      *
  14:Log.cpp       ****  *  along with this program; if not, write to the Free Software            * 
  15:Log.cpp       ****  *  Foundation, Inc., 59 Temple Place, Suite 330, Boston, MA  02111 USA    *
  16:Log.cpp       ****  *                                                                         *
  17:Log.cpp       ****  ***************************************************************************
  18:Log.cpp       ****  *                                                                         *
  19:Log.cpp       ****  *               (c) Copyright, 2001-2008, Michael Gray                    *
  20:Log.cpp       ****  *                                                                         *
  21:Log.cpp       ****  ***************************************************************************
  22:Log.cpp       ****  *                                                                         *
  23:Log.cpp       ****  * Filename:     Log.cpp                                                   *
  24:Log.cpp       ****  *                                                                         *
  25:Log.cpp       ****  ***************************************************************************/
  26:Log.cpp       **** 
  27:Log.cpp       **** #include "main.h"
  28:Log.cpp       **** 
  29:Log.cpp       **** /// Reserve memory for singleton object.
  30:Log.cpp       **** static Log logSingletonObject;
  31:Log.cpp       **** 
  32:Log.cpp       **** /**
  33:Log.cpp       ****  *  Get a pointer to the Radio waveform generation object.
  34:Log.cpp       ****  */
  35:Log.cpp       **** Log *Log::GetInstance()
  36:Log.cpp       **** {
  66              		.loc 1 36 0
  67              		.cfi_startproc
  68              		@ Function supports interworking.
  69              		@ args = 0, pretend = 0, frame = 0
  70              		@ frame_needed = 0, uses_anonymous_args = 0
ARM GAS  /tmp/ccYngNjd.s 			page 3


  71              		@ link register save eliminated.
  37:Log.cpp       ****     return  &logSingletonObject;
  72              		.loc 1 37 0
  73 0000 04309FE5 		ldr	r3, .L2	@ D.10584,
  38:Log.cpp       **** }
  74              		.loc 1 38 0
  75 0004 0300A0E1 		mov	r0, r3	@, <retval>
  76 0008 1EFF2FE1 		bx	lr	@
  77              	.L3:
  78              		.align	2
  79              	.L2:
  80 000c 00000000 		.word	_ZL18logSingletonObject
  81              		.cfi_endproc
  82              	.LFE109:
  83              		.size	_ZN3Log11GetInstanceEv, .-_ZN3Log11GetInstanceEv
  84              		.section	.text._ZN3LogC2Ev,"ax",%progbits
  85              		.align	2
  86              		.global	_ZN3LogC2Ev
  87              		.type	_ZN3LogC2Ev, %function
  88              	_ZN3LogC2Ev:
  89              	.LFB111:
  39:Log.cpp       **** 
  40:Log.cpp       **** /**
  41:Log.cpp       ****  * Constructor.
  42:Log.cpp       ****  */
  43:Log.cpp       **** Log::Log()
  90              		.loc 1 43 0
  91              		.cfi_startproc
  92              		@ Function supports interworking.
  93              		@ args = 0, pretend = 0, frame = 8
  94              		@ frame_needed = 0, uses_anonymous_args = 0
  95 0000 04E02DE5 		str	lr, [sp, #-4]!	@,
  96              	.LCFI0:
  97              		.cfi_def_cfa_offset 4
  98 0004 0CD04DE2 		sub	sp, sp, #12	@,,
  99              	.LCFI1:
 100              		.cfi_def_cfa_offset 16
 101 0008 04008DE5 		str	r0, [sp, #4]	@ this, this
 102              	.LBB2:
  44:Log.cpp       **** {
  45:Log.cpp       ****     this->m25p80 = M25P80::GetInstance();
 103              		.loc 1 45 0
 104              		.cfi_offset 14, -4
 105 000c FEFFFFEB 		bl	_ZN6M25P8011GetInstanceEv	@
 106 0010 0020A0E1 		mov	r2, r0	@ D.10581,
 107 0014 04309DE5 		ldr	r3, [sp, #4]	@ tmp136, this
 108 0018 302083E5 		str	r2, [r3, #48]	@ D.10581, this_2(D)->m25p80
  46:Log.cpp       ****     this->address = 0;
 109              		.loc 1 46 0
 110 001c 04309DE5 		ldr	r3, [sp, #4]	@ tmp137, this
 111 0020 0020A0E3 		mov	r2, #0	@ tmp138,
 112 0024 002083E5 		str	r2, [r3, #0]	@ tmp138, this_2(D)->address
 113              	.LBE2:
  47:Log.cpp       **** }
 114              		.loc 1 47 0
 115 0028 04309DE5 		ldr	r3, [sp, #4]	@ D.10582, this
 116 002c 0300A0E1 		mov	r0, r3	@, <retval>
ARM GAS  /tmp/ccYngNjd.s 			page 4


 117 0030 0CD08DE2 		add	sp, sp, #12	@,,
 118 0034 04E09DE4 		ldr	lr, [sp], #4
 119 0038 1EFF2FE1 		bx	lr
 120              		.cfi_endproc
 121              	.LFE111:
 122              		.size	_ZN3LogC2Ev, .-_ZN3LogC2Ev
 123              		.global	_ZN3LogC1Ev
 124              		.set	_ZN3LogC1Ev,_ZN3LogC2Ev
 125              		.section	.text._ZN3Log12SystemBootedEv,"ax",%progbits
 126              		.align	2
 127              		.global	_ZN3Log12SystemBootedEv
 128              		.type	_ZN3Log12SystemBootedEv, %function
 129              	_ZN3Log12SystemBootedEv:
 130              	.LFB113:
  48:Log.cpp       **** 
  49:Log.cpp       **** /**
  50:Log.cpp       ****  * Log the system booted event.
  51:Log.cpp       ****  */
  52:Log.cpp       **** void Log::SystemBooted()
  53:Log.cpp       **** {
 131              		.loc 1 53 0
 132              		.cfi_startproc
 133              		@ Function supports interworking.
 134              		@ args = 0, pretend = 0, frame = 8
 135              		@ frame_needed = 0, uses_anonymous_args = 0
 136 0000 04E02DE5 		str	lr, [sp, #-4]!	@,
 137              	.LCFI2:
 138              		.cfi_def_cfa_offset 4
 139 0004 0CD04DE2 		sub	sp, sp, #12	@,,
 140              	.LCFI3:
 141              		.cfi_def_cfa_offset 16
 142 0008 04008DE5 		str	r0, [sp, #4]	@ this, this
  54:Log.cpp       ****     Type (SYSTEM_BOOTED);
 143              		.loc 1 54 0
 144 000c 04009DE5 		ldr	r0, [sp, #4]	@, this
 145 0010 8710A0E3 		mov	r1, #135	@,
 146              		.cfi_offset 14, -4
 147 0014 FEFFFFEB 		bl	_ZN3Log4TypeENS_15LOG_RECORD_TYPEE	@
  55:Log.cpp       ****     Flush();
 148              		.loc 1 55 0
 149 0018 04009DE5 		ldr	r0, [sp, #4]	@, this
 150 001c FEFFFFEB 		bl	_ZN3Log5FlushEv	@
  56:Log.cpp       **** }
 151              		.loc 1 56 0
 152 0020 0CD08DE2 		add	sp, sp, #12	@,,
 153 0024 04E09DE4 		ldr	lr, [sp], #4
 154 0028 1EFF2FE1 		bx	lr
 155              		.cfi_endproc
 156              	.LFE113:
 157              		.size	_ZN3Log12SystemBootedEv, .-_ZN3Log12SystemBootedEv
 158              		.section	.text._ZN3Log6GPSFixEPK7GPSData,"ax",%progbits
 159              		.align	2
 160              		.global	_ZN3Log6GPSFixEPK7GPSData
 161              		.type	_ZN3Log6GPSFixEPK7GPSData, %function
 162              	_ZN3Log6GPSFixEPK7GPSData:
 163              	.LFB114:
  57:Log.cpp       **** 
ARM GAS  /tmp/ccYngNjd.s 			page 5


  58:Log.cpp       **** /**
  59:Log.cpp       ****  * Log the current GPS fix data set.
  60:Log.cpp       ****  * 
  61:Log.cpp       ****  * @param gps pointer to GPSData object
  62:Log.cpp       ****  */
  63:Log.cpp       **** void Log::GPSFix (const GPSData *gps)
  64:Log.cpp       **** {
 164              		.loc 1 64 0
 165              		.cfi_startproc
 166              		@ Function supports interworking.
 167              		@ args = 0, pretend = 0, frame = 8
 168              		@ frame_needed = 0, uses_anonymous_args = 0
 169 0000 04E02DE5 		str	lr, [sp, #-4]!	@,
 170              	.LCFI4:
 171              		.cfi_def_cfa_offset 4
 172 0004 0CD04DE2 		sub	sp, sp, #12	@,,
 173              	.LCFI5:
 174              		.cfi_def_cfa_offset 16
 175 0008 04008DE5 		str	r0, [sp, #4]	@ this, this
 176 000c 00108DE5 		str	r1, [sp, #0]	@ gps, gps
  65:Log.cpp       ****     Type (GPS_FIX);
 177              		.loc 1 65 0
 178 0010 04009DE5 		ldr	r0, [sp, #4]	@, this
 179 0014 9610A0E3 		mov	r1, #150	@,
 180              		.cfi_offset 14, -4
 181 0018 FEFFFFEB 		bl	_ZN3Log4TypeENS_15LOG_RECORD_TYPEE	@
  66:Log.cpp       ****     
  67:Log.cpp       ****     WriteUint8 (gps->hours);
 182              		.loc 1 67 0
 183 001c 00309DE5 		ldr	r3, [sp, #0]	@ tmp146, gps
 184 0020 0830D3E5 		ldrb	r3, [r3, #8]	@ zero_extendqisi2	@ D.10568, gps_2(D)->hours
 185 0024 04009DE5 		ldr	r0, [sp, #4]	@, this
 186 0028 0310A0E1 		mov	r1, r3	@, D.10568
 187 002c FEFFFFEB 		bl	_ZN3Log10WriteUint8Eh	@
  68:Log.cpp       ****     WriteUint8 (gps->minutes);
 188              		.loc 1 68 0
 189 0030 00309DE5 		ldr	r3, [sp, #0]	@ tmp147, gps
 190 0034 0930D3E5 		ldrb	r3, [r3, #9]	@ zero_extendqisi2	@ D.10569, gps_2(D)->minutes
 191 0038 04009DE5 		ldr	r0, [sp, #4]	@, this
 192 003c 0310A0E1 		mov	r1, r3	@, D.10569
 193 0040 FEFFFFEB 		bl	_ZN3Log10WriteUint8Eh	@
  69:Log.cpp       ****     WriteUint8 (gps->seconds);
 194              		.loc 1 69 0
 195 0044 00309DE5 		ldr	r3, [sp, #0]	@ tmp148, gps
 196 0048 BA30D3E1 		ldrh	r3, [r3, #10]	@ D.10570, gps_2(D)->seconds
 197 004c FF3003E2 		and	r3, r3, #255	@ D.10571, D.10570,
 198 0050 04009DE5 		ldr	r0, [sp, #4]	@, this
 199 0054 0310A0E1 		mov	r1, r3	@, D.10571
 200 0058 FEFFFFEB 		bl	_ZN3Log10WriteUint8Eh	@
  70:Log.cpp       ****     
  71:Log.cpp       ****     WriteBlock (gps->rawLatitude, sizeof(gps->rawLatitude));
 201              		.loc 1 71 0
 202 005c 00309DE5 		ldr	r3, [sp, #0]	@ tmp149, gps
 203 0060 183083E2 		add	r3, r3, #24	@ D.10572, tmp149,
 204 0064 04009DE5 		ldr	r0, [sp, #4]	@, this
 205 0068 0310A0E1 		mov	r1, r3	@, D.10572
 206 006c 0420A0E3 		mov	r2, #4	@,
ARM GAS  /tmp/ccYngNjd.s 			page 6


 207 0070 FEFFFFEB 		bl	_ZN3Log10WriteBlockEPKhm	@
  72:Log.cpp       ****     WriteBlock (gps->rawLongitude, sizeof(gps->rawLongitude));
 208              		.loc 1 72 0
 209 0074 00309DE5 		ldr	r3, [sp, #0]	@ tmp150, gps
 210 0078 1C3083E2 		add	r3, r3, #28	@ D.10573, tmp150,
 211 007c 04009DE5 		ldr	r0, [sp, #4]	@, this
 212 0080 0310A0E1 		mov	r1, r3	@, D.10573
 213 0084 0420A0E3 		mov	r2, #4	@,
 214 0088 FEFFFFEB 		bl	_ZN3Log10WriteBlockEPKhm	@
  73:Log.cpp       ****     WriteBlock (gps->rawAltitude, sizeof(gps->rawAltitude));
 215              		.loc 1 73 0
 216 008c 00309DE5 		ldr	r3, [sp, #0]	@ tmp151, gps
 217 0090 243083E2 		add	r3, r3, #36	@ D.10574, tmp151,
 218 0094 04009DE5 		ldr	r0, [sp, #4]	@, this
 219 0098 0310A0E1 		mov	r1, r3	@, D.10574
 220 009c 0420A0E3 		mov	r2, #4	@,
 221 00a0 FEFFFFEB 		bl	_ZN3Log10WriteBlockEPKhm	@
  74:Log.cpp       **** 
  75:Log.cpp       ****     WriteBlock (gps->rawSpeedHeading, sizeof(gps->rawSpeedHeading));
 222              		.loc 1 75 0
 223 00a4 00309DE5 		ldr	r3, [sp, #0]	@ tmp152, gps
 224 00a8 2C3083E2 		add	r3, r3, #44	@ D.10575, tmp152,
 225 00ac 04009DE5 		ldr	r0, [sp, #4]	@, this
 226 00b0 0310A0E1 		mov	r1, r3	@, D.10575
 227 00b4 0820A0E3 		mov	r2, #8	@,
 228 00b8 FEFFFFEB 		bl	_ZN3Log10WriteBlockEPKhm	@
  76:Log.cpp       ****     WriteUint16 (gps->navType);
 229              		.loc 1 76 0
 230 00bc 00309DE5 		ldr	r3, [sp, #0]	@ tmp153, gps
 231 00c0 BC33D3E1 		ldrh	r3, [r3, #60]	@ D.10576, gps_2(D)->navType
 232 00c4 04009DE5 		ldr	r0, [sp, #4]	@, this
 233 00c8 0310A0E1 		mov	r1, r3	@, D.10576
 234 00cc FEFFFFEB 		bl	_ZN3Log11WriteUint16Et	@
  77:Log.cpp       ****     WriteUint8 (gps->dop);
 235              		.loc 1 77 0
 236 00d0 00309DE5 		ldr	r3, [sp, #0]	@ tmp154, gps
 237 00d4 B433D3E1 		ldrh	r3, [r3, #52]	@ D.10577, gps_2(D)->dop
 238 00d8 FF3003E2 		and	r3, r3, #255	@ D.10578, D.10577,
 239 00dc 04009DE5 		ldr	r0, [sp, #4]	@, this
 240 00e0 0310A0E1 		mov	r1, r3	@, D.10578
 241 00e4 FEFFFFEB 		bl	_ZN3Log10WriteUint8Eh	@
  78:Log.cpp       **** 
  79:Log.cpp       ****     WriteUint8 (gps->trackedSats);
 242              		.loc 1 79 0
 243 00e8 00309DE5 		ldr	r3, [sp, #0]	@ tmp155, gps
 244 00ec B633D3E1 		ldrh	r3, [r3, #54]	@ D.10579, gps_2(D)->trackedSats
 245 00f0 FF3003E2 		and	r3, r3, #255	@ D.10580, D.10579,
 246 00f4 04009DE5 		ldr	r0, [sp, #4]	@, this
 247 00f8 0310A0E1 		mov	r1, r3	@, D.10580
 248 00fc FEFFFFEB 		bl	_ZN3Log10WriteUint8Eh	@
  80:Log.cpp       ****     
  81:Log.cpp       ****     Flush();    
 249              		.loc 1 81 0
 250 0100 04009DE5 		ldr	r0, [sp, #4]	@, this
 251 0104 FEFFFFEB 		bl	_ZN3Log5FlushEv	@
  82:Log.cpp       **** }
 252              		.loc 1 82 0
ARM GAS  /tmp/ccYngNjd.s 			page 7


 253 0108 0CD08DE2 		add	sp, sp, #12	@,,
 254 010c 04E09DE4 		ldr	lr, [sp], #4
 255 0110 1EFF2FE1 		bx	lr
 256              		.cfi_endproc
 257              	.LFE114:
 258              		.size	_ZN3Log6GPSFixEPK7GPSData, .-_ZN3Log6GPSFixEPK7GPSData
 259              		.section	.text._ZN3Log9TimeStampEPK7GPSData,"ax",%progbits
 260              		.align	2
 261              		.global	_ZN3Log9TimeStampEPK7GPSData
 262              		.type	_ZN3Log9TimeStampEPK7GPSData, %function
 263              	_ZN3Log9TimeStampEPK7GPSData:
 264              	.LFB115:
  83:Log.cpp       **** 
  84:Log.cpp       **** /**
  85:Log.cpp       ****  * Log the system time and date.
  86:Log.cpp       ****  */
  87:Log.cpp       **** void Log::TimeStamp (const GPSData *gps)
  88:Log.cpp       **** {
 265              		.loc 1 88 0
 266              		.cfi_startproc
 267              		@ Function supports interworking.
 268              		@ args = 0, pretend = 0, frame = 8
 269              		@ frame_needed = 0, uses_anonymous_args = 0
 270 0000 04E02DE5 		str	lr, [sp, #-4]!	@,
 271              	.LCFI6:
 272              		.cfi_def_cfa_offset 4
 273 0004 0CD04DE2 		sub	sp, sp, #12	@,,
 274              	.LCFI7:
 275              		.cfi_def_cfa_offset 16
 276 0008 04008DE5 		str	r0, [sp, #4]	@ this, this
 277 000c 00108DE5 		str	r1, [sp, #0]	@ gps, gps
  89:Log.cpp       ****     Type (TIME_STAMP); 
 278              		.loc 1 89 0
 279 0010 04009DE5 		ldr	r0, [sp, #4]	@, this
 280 0014 A510A0E3 		mov	r1, #165	@,
 281              		.cfi_offset 14, -4
 282 0018 FEFFFFEB 		bl	_ZN3Log4TypeENS_15LOG_RECORD_TYPEE	@
  90:Log.cpp       ****     
  91:Log.cpp       ****     WriteUint8 (gps->month);
 283              		.loc 1 91 0
 284 001c 00309DE5 		ldr	r3, [sp, #0]	@ tmp140, gps
 285 0020 0C30D3E5 		ldrb	r3, [r3, #12]	@ zero_extendqisi2	@ D.10561, gps_2(D)->month
 286 0024 04009DE5 		ldr	r0, [sp, #4]	@, this
 287 0028 0310A0E1 		mov	r1, r3	@, D.10561
 288 002c FEFFFFEB 		bl	_ZN3Log10WriteUint8Eh	@
  92:Log.cpp       ****     WriteUint8 (gps->day);
 289              		.loc 1 92 0
 290 0030 00309DE5 		ldr	r3, [sp, #0]	@ tmp141, gps
 291 0034 0D30D3E5 		ldrb	r3, [r3, #13]	@ zero_extendqisi2	@ D.10562, gps_2(D)->day
 292 0038 04009DE5 		ldr	r0, [sp, #4]	@, this
 293 003c 0310A0E1 		mov	r1, r3	@, D.10562
 294 0040 FEFFFFEB 		bl	_ZN3Log10WriteUint8Eh	@
  93:Log.cpp       ****     WriteUint16 (gps->year);  
 295              		.loc 1 93 0
 296 0044 00309DE5 		ldr	r3, [sp, #0]	@ tmp142, gps
 297 0048 BE30D3E1 		ldrh	r3, [r3, #14]	@ D.10563, gps_2(D)->year
 298 004c 04009DE5 		ldr	r0, [sp, #4]	@, this
ARM GAS  /tmp/ccYngNjd.s 			page 8


 299 0050 0310A0E1 		mov	r1, r3	@, D.10563
 300 0054 FEFFFFEB 		bl	_ZN3Log11WriteUint16Et	@
  94:Log.cpp       ****     
  95:Log.cpp       ****     WriteUint8 (gps->hours);
 301              		.loc 1 95 0
 302 0058 00309DE5 		ldr	r3, [sp, #0]	@ tmp143, gps
 303 005c 0830D3E5 		ldrb	r3, [r3, #8]	@ zero_extendqisi2	@ D.10564, gps_2(D)->hours
 304 0060 04009DE5 		ldr	r0, [sp, #4]	@, this
 305 0064 0310A0E1 		mov	r1, r3	@, D.10564
 306 0068 FEFFFFEB 		bl	_ZN3Log10WriteUint8Eh	@
  96:Log.cpp       ****     WriteUint8 (gps->minutes);
 307              		.loc 1 96 0
 308 006c 00309DE5 		ldr	r3, [sp, #0]	@ tmp144, gps
 309 0070 0930D3E5 		ldrb	r3, [r3, #9]	@ zero_extendqisi2	@ D.10565, gps_2(D)->minutes
 310 0074 04009DE5 		ldr	r0, [sp, #4]	@, this
 311 0078 0310A0E1 		mov	r1, r3	@, D.10565
 312 007c FEFFFFEB 		bl	_ZN3Log10WriteUint8Eh	@
  97:Log.cpp       ****     WriteUint8 (gps->seconds);    
 313              		.loc 1 97 0
 314 0080 00309DE5 		ldr	r3, [sp, #0]	@ tmp145, gps
 315 0084 BA30D3E1 		ldrh	r3, [r3, #10]	@ D.10566, gps_2(D)->seconds
 316 0088 FF3003E2 		and	r3, r3, #255	@ D.10567, D.10566,
 317 008c 04009DE5 		ldr	r0, [sp, #4]	@, this
 318 0090 0310A0E1 		mov	r1, r3	@, D.10567
 319 0094 FEFFFFEB 		bl	_ZN3Log10WriteUint8Eh	@
  98:Log.cpp       **** }
 320              		.loc 1 98 0
 321 0098 0CD08DE2 		add	sp, sp, #12	@,,
 322 009c 04E09DE4 		ldr	lr, [sp], #4
 323 00a0 1EFF2FE1 		bx	lr
 324              		.cfi_endproc
 325              	.LFE115:
 326              		.size	_ZN3Log9TimeStampEPK7GPSData, .-_ZN3Log9TimeStampEPK7GPSData
 327              		.section	.text._ZN3Log10WriteUint8Eh,"ax",%progbits
 328              		.align	2
 329              		.global	_ZN3Log10WriteUint8Eh
 330              		.type	_ZN3Log10WriteUint8Eh, %function
 331              	_ZN3Log10WriteUint8Eh:
 332              	.LFB116:
  99:Log.cpp       **** 
 100:Log.cpp       **** /**
 101:Log.cpp       ****  * Write an 8-bit value to flash.
 102:Log.cpp       ****  * 
 103:Log.cpp       ****  * @param data 8-bit data value
 104:Log.cpp       ****  */
 105:Log.cpp       **** void Log::WriteUint8 (uint8_t data)
 106:Log.cpp       **** {
 333              		.loc 1 106 0
 334              		.cfi_startproc
 335              		@ Function supports interworking.
 336              		@ args = 0, pretend = 0, frame = 8
 337              		@ frame_needed = 0, uses_anonymous_args = 0
 338              		@ link register save eliminated.
 339 0000 08D04DE2 		sub	sp, sp, #8	@,,
 340              	.LCFI8:
 341              		.cfi_def_cfa_offset 8
 342 0004 04008DE5 		str	r0, [sp, #4]	@ this, this
ARM GAS  /tmp/ccYngNjd.s 			page 9


 343 0008 0130A0E1 		mov	r3, r1	@ tmp135, data
 344 000c 0330CDE5 		strb	r3, [sp, #3]	@ tmp136, data
 107:Log.cpp       ****     this->buffer[this->index++] = data;
 345              		.loc 1 107 0
 346 0010 04309DE5 		ldr	r3, [sp, #4]	@ tmp137, this
 347 0014 043093E5 		ldr	r3, [r3, #4]	@ D.10559, this_1(D)->index
 348 0018 04109DE5 		ldr	r1, [sp, #4]	@ tmp138, this
 349 001c 0820A0E3 		mov	r2, #8	@ tmp139,
 350 0020 031081E0 		add	r1, r1, r3	@ tmp140, tmp138, D.10559
 351 0024 022081E0 		add	r2, r1, r2	@ tmp141, tmp140, tmp139
 352 0028 0310DDE5 		ldrb	r1, [sp, #3]	@ tmp142, data
 353 002c 0010C2E5 		strb	r1, [r2, #0]	@ tmp142, this_1(D)->buffer
 354 0030 012083E2 		add	r2, r3, #1	@ D.10560, D.10559,
 355 0034 04309DE5 		ldr	r3, [sp, #4]	@ tmp143, this
 356 0038 042083E5 		str	r2, [r3, #4]	@ D.10560, this_1(D)->index
 108:Log.cpp       **** }
 357              		.loc 1 108 0
 358 003c 08D08DE2 		add	sp, sp, #8	@,,
 359 0040 1EFF2FE1 		bx	lr
 360              		.cfi_endproc
 361              	.LFE116:
 362              		.size	_ZN3Log10WriteUint8Eh, .-_ZN3Log10WriteUint8Eh
 363              		.section	.text._ZN3Log11WriteUint16Et,"ax",%progbits
 364              		.align	2
 365              		.global	_ZN3Log11WriteUint16Et
 366              		.type	_ZN3Log11WriteUint16Et, %function
 367              	_ZN3Log11WriteUint16Et:
 368              	.LFB117:
 109:Log.cpp       **** 
 110:Log.cpp       **** /**
 111:Log.cpp       ****  * Write an 16-bit value to flash.
 112:Log.cpp       ****  * 
 113:Log.cpp       ****  * @param data 16-bit data value
 114:Log.cpp       ****  */
 115:Log.cpp       **** void Log::WriteUint16 (uint16_t data)
 116:Log.cpp       **** {
 369              		.loc 1 116 0
 370              		.cfi_startproc
 371              		@ Function supports interworking.
 372              		@ args = 0, pretend = 0, frame = 8
 373              		@ frame_needed = 0, uses_anonymous_args = 0
 374              		@ link register save eliminated.
 375 0000 08D04DE2 		sub	sp, sp, #8	@,,
 376              	.LCFI9:
 377              		.cfi_def_cfa_offset 8
 378 0004 04008DE5 		str	r0, [sp, #4]	@ this, this
 379 0008 0130A0E1 		mov	r3, r1	@ tmp140, data
 380 000c B230CDE1 		strh	r3, [sp, #2]	@ movhi	@ tmp140, data
 117:Log.cpp       ****     this->buffer[this->index++] = static_cast <uint8_t> ((data >> 8) & 0xff);
 381              		.loc 1 117 0
 382 0010 04309DE5 		ldr	r3, [sp, #4]	@ tmp141, this
 383 0014 043093E5 		ldr	r3, [r3, #4]	@ D.10552, this_1(D)->index
 384 0018 B220DDE1 		ldrh	r2, [sp, #2]	@ tmp142, data
 385 001c 2224A0E1 		mov	r2, r2, lsr #8	@ tmp143, tmp142,
 386 0020 0228A0E1 		mov	r2, r2, asl #16	@ tmp144, tmp143,
 387 0024 2228A0E1 		mov	r2, r2, lsr #16	@ D.10554, tmp144,
 388 0028 FF1002E2 		and	r1, r2, #255	@ D.10555, D.10554,
ARM GAS  /tmp/ccYngNjd.s 			page 10


 389 002c 04009DE5 		ldr	r0, [sp, #4]	@ tmp145, this
 390 0030 0820A0E3 		mov	r2, #8	@ tmp146,
 391 0034 030080E0 		add	r0, r0, r3	@ tmp147, tmp145, D.10552
 392 0038 022080E0 		add	r2, r0, r2	@ tmp148, tmp147, tmp146
 393 003c 0010C2E5 		strb	r1, [r2, #0]	@ tmp149, this_1(D)->buffer
 394 0040 012083E2 		add	r2, r3, #1	@ D.10553, D.10552,
 395 0044 04309DE5 		ldr	r3, [sp, #4]	@ tmp150, this
 396 0048 042083E5 		str	r2, [r3, #4]	@ D.10553, this_1(D)->index
 118:Log.cpp       ****     this->buffer[this->index++] = static_cast <uint8_t> (data & 0xff);    
 397              		.loc 1 118 0
 398 004c 04309DE5 		ldr	r3, [sp, #4]	@ tmp151, this
 399 0050 043093E5 		ldr	r3, [r3, #4]	@ D.10556, this_1(D)->index
 400 0054 B220DDE1 		ldrh	r2, [sp, #2]	@ movhi	@ tmp152, data
 401 0058 FF1002E2 		and	r1, r2, #255	@ D.10558, tmp152,
 402 005c 04009DE5 		ldr	r0, [sp, #4]	@ tmp153, this
 403 0060 0820A0E3 		mov	r2, #8	@ tmp154,
 404 0064 030080E0 		add	r0, r0, r3	@ tmp155, tmp153, D.10556
 405 0068 022080E0 		add	r2, r0, r2	@ tmp156, tmp155, tmp154
 406 006c 0010C2E5 		strb	r1, [r2, #0]	@ tmp157, this_1(D)->buffer
 407 0070 012083E2 		add	r2, r3, #1	@ D.10557, D.10556,
 408 0074 04309DE5 		ldr	r3, [sp, #4]	@ tmp158, this
 409 0078 042083E5 		str	r2, [r3, #4]	@ D.10557, this_1(D)->index
 119:Log.cpp       **** }
 410              		.loc 1 119 0
 411 007c 08D08DE2 		add	sp, sp, #8	@,,
 412 0080 1EFF2FE1 		bx	lr
 413              		.cfi_endproc
 414              	.LFE117:
 415              		.size	_ZN3Log11WriteUint16Et, .-_ZN3Log11WriteUint16Et
 416              		.section	.text._ZN3Log11WriteUint32Em,"ax",%progbits
 417              		.align	2
 418              		.global	_ZN3Log11WriteUint32Em
 419              		.type	_ZN3Log11WriteUint32Em, %function
 420              	_ZN3Log11WriteUint32Em:
 421              	.LFB118:
 120:Log.cpp       **** 
 121:Log.cpp       **** /**
 122:Log.cpp       ****  * Write an 32-bit value to flash.
 123:Log.cpp       ****  * 
 124:Log.cpp       ****  * @param data 32-bit data value
 125:Log.cpp       ****  */
 126:Log.cpp       **** void Log::WriteUint32 (uint32_t data)
 127:Log.cpp       **** {
 422              		.loc 1 127 0
 423              		.cfi_startproc
 424              		@ Function supports interworking.
 425              		@ args = 0, pretend = 0, frame = 8
 426              		@ frame_needed = 0, uses_anonymous_args = 0
 427              		@ link register save eliminated.
 428 0000 08D04DE2 		sub	sp, sp, #8	@,,
 429              	.LCFI10:
 430              		.cfi_def_cfa_offset 8
 431 0004 04008DE5 		str	r0, [sp, #4]	@ this, this
 432 0008 00108DE5 		str	r1, [sp, #0]	@ data, data
 128:Log.cpp       ****     this->buffer[this->index++] = static_cast <uint8_t> ((data >> 24) & 0xff);
 433              		.loc 1 128 0
 434 000c 04309DE5 		ldr	r3, [sp, #4]	@ tmp148, this
ARM GAS  /tmp/ccYngNjd.s 			page 11


 435 0010 043093E5 		ldr	r3, [r3, #4]	@ D.10537, this_1(D)->index
 436 0014 00209DE5 		ldr	r2, [sp, #0]	@ tmp149, data
 437 0018 222CA0E1 		mov	r2, r2, lsr #24	@ D.10539, tmp149,
 438 001c FF1002E2 		and	r1, r2, #255	@ D.10540, D.10539,
 439 0020 04009DE5 		ldr	r0, [sp, #4]	@ tmp150, this
 440 0024 0820A0E3 		mov	r2, #8	@ tmp151,
 441 0028 030080E0 		add	r0, r0, r3	@ tmp152, tmp150, D.10537
 442 002c 022080E0 		add	r2, r0, r2	@ tmp153, tmp152, tmp151
 443 0030 0010C2E5 		strb	r1, [r2, #0]	@ tmp154, this_1(D)->buffer
 444 0034 012083E2 		add	r2, r3, #1	@ D.10538, D.10537,
 445 0038 04309DE5 		ldr	r3, [sp, #4]	@ tmp155, this
 446 003c 042083E5 		str	r2, [r3, #4]	@ D.10538, this_1(D)->index
 129:Log.cpp       ****     this->buffer[this->index++] = static_cast <uint8_t> ((data >> 16) & 0xff);
 447              		.loc 1 129 0
 448 0040 04309DE5 		ldr	r3, [sp, #4]	@ tmp156, this
 449 0044 043093E5 		ldr	r3, [r3, #4]	@ D.10541, this_1(D)->index
 450 0048 00209DE5 		ldr	r2, [sp, #0]	@ tmp157, data
 451 004c 2228A0E1 		mov	r2, r2, lsr #16	@ D.10543, tmp157,
 452 0050 FF1002E2 		and	r1, r2, #255	@ D.10544, D.10543,
 453 0054 04009DE5 		ldr	r0, [sp, #4]	@ tmp158, this
 454 0058 0820A0E3 		mov	r2, #8	@ tmp159,
 455 005c 030080E0 		add	r0, r0, r3	@ tmp160, tmp158, D.10541
 456 0060 022080E0 		add	r2, r0, r2	@ tmp161, tmp160, tmp159
 457 0064 0010C2E5 		strb	r1, [r2, #0]	@ tmp162, this_1(D)->buffer
 458 0068 012083E2 		add	r2, r3, #1	@ D.10542, D.10541,
 459 006c 04309DE5 		ldr	r3, [sp, #4]	@ tmp163, this
 460 0070 042083E5 		str	r2, [r3, #4]	@ D.10542, this_1(D)->index
 130:Log.cpp       ****     this->buffer[this->index++] = static_cast <uint8_t> ((data >> 8) & 0xff);
 461              		.loc 1 130 0
 462 0074 04309DE5 		ldr	r3, [sp, #4]	@ tmp164, this
 463 0078 043093E5 		ldr	r3, [r3, #4]	@ D.10545, this_1(D)->index
 464 007c 00209DE5 		ldr	r2, [sp, #0]	@ tmp165, data
 465 0080 2224A0E1 		mov	r2, r2, lsr #8	@ D.10547, tmp165,
 466 0084 FF1002E2 		and	r1, r2, #255	@ D.10548, D.10547,
 467 0088 04009DE5 		ldr	r0, [sp, #4]	@ tmp166, this
 468 008c 0820A0E3 		mov	r2, #8	@ tmp167,
 469 0090 030080E0 		add	r0, r0, r3	@ tmp168, tmp166, D.10545
 470 0094 022080E0 		add	r2, r0, r2	@ tmp169, tmp168, tmp167
 471 0098 0010C2E5 		strb	r1, [r2, #0]	@ tmp170, this_1(D)->buffer
 472 009c 012083E2 		add	r2, r3, #1	@ D.10546, D.10545,
 473 00a0 04309DE5 		ldr	r3, [sp, #4]	@ tmp171, this
 474 00a4 042083E5 		str	r2, [r3, #4]	@ D.10546, this_1(D)->index
 131:Log.cpp       ****     this->buffer[this->index++] = static_cast <uint8_t> (data & 0xff);    
 475              		.loc 1 131 0
 476 00a8 04309DE5 		ldr	r3, [sp, #4]	@ tmp172, this
 477 00ac 043093E5 		ldr	r3, [r3, #4]	@ D.10549, this_1(D)->index
 478 00b0 00209DE5 		ldr	r2, [sp, #0]	@ tmp173, data
 479 00b4 FF1002E2 		and	r1, r2, #255	@ D.10551, tmp173,
 480 00b8 04009DE5 		ldr	r0, [sp, #4]	@ tmp174, this
 481 00bc 0820A0E3 		mov	r2, #8	@ tmp175,
 482 00c0 030080E0 		add	r0, r0, r3	@ tmp176, tmp174, D.10549
 483 00c4 022080E0 		add	r2, r0, r2	@ tmp177, tmp176, tmp175
 484 00c8 0010C2E5 		strb	r1, [r2, #0]	@ tmp178, this_1(D)->buffer
 485 00cc 012083E2 		add	r2, r3, #1	@ D.10550, D.10549,
 486 00d0 04309DE5 		ldr	r3, [sp, #4]	@ tmp179, this
 487 00d4 042083E5 		str	r2, [r3, #4]	@ D.10550, this_1(D)->index
 132:Log.cpp       **** }
ARM GAS  /tmp/ccYngNjd.s 			page 12


 488              		.loc 1 132 0
 489 00d8 08D08DE2 		add	sp, sp, #8	@,,
 490 00dc 1EFF2FE1 		bx	lr
 491              		.cfi_endproc
 492              	.LFE118:
 493              		.size	_ZN3Log11WriteUint32Em, .-_ZN3Log11WriteUint32Em
 494              		.section	.text._ZN3Log10WriteBlockEPKhm,"ax",%progbits
 495              		.align	2
 496              		.global	_ZN3Log10WriteBlockEPKhm
 497              		.type	_ZN3Log10WriteBlockEPKhm, %function
 498              	_ZN3Log10WriteBlockEPKhm:
 499              	.LFB119:
 133:Log.cpp       **** 
 134:Log.cpp       **** /**
 135:Log.cpp       ****  * Write a binary block of data to flash.
 136:Log.cpp       ****  * 
 137:Log.cpp       ****  * @param data pointer to data block
 138:Log.cpp       ****  * @param length number of bytes to write
 139:Log.cpp       ****  */
 140:Log.cpp       **** void Log::WriteBlock (const uint8_t *data, uint32_t length)
 141:Log.cpp       **** {
 500              		.loc 1 141 0
 501              		.cfi_startproc
 502              		@ Function supports interworking.
 503              		@ args = 0, pretend = 0, frame = 24
 504              		@ frame_needed = 0, uses_anonymous_args = 0
 505              		@ link register save eliminated.
 506 0000 18D04DE2 		sub	sp, sp, #24	@,,
 507              	.LCFI11:
 508              		.cfi_def_cfa_offset 24
 509 0004 0C008DE5 		str	r0, [sp, #12]	@ this, this
 510 0008 08108DE5 		str	r1, [sp, #8]	@ data, data
 511 000c 04208DE5 		str	r2, [sp, #4]	@ length, length
 512              	.LBB3:
 142:Log.cpp       ****     uint32_t i;
 143:Log.cpp       ****     
 144:Log.cpp       ****     for (i = 0; i < length; ++i)
 513              		.loc 1 144 0
 514 0010 0030A0E3 		mov	r3, #0	@ tmp138,
 515 0014 14308DE5 		str	r3, [sp, #20]	@ tmp138, i
 516 0018 100000EA 		b	.L13	@
 517              	.L14:
 145:Log.cpp       ****         this->buffer[this->index++] = static_cast <uint8_t> (data[i]);    
 518              		.loc 1 145 0 discriminator 2
 519 001c 0C309DE5 		ldr	r3, [sp, #12]	@ tmp139, this
 520 0020 043093E5 		ldr	r3, [r3, #4]	@ D.10533, this_5(D)->index
 521 0024 08109DE5 		ldr	r1, [sp, #8]	@ tmp140, data
 522 0028 14209DE5 		ldr	r2, [sp, #20]	@ tmp141, i
 523 002c 022081E0 		add	r2, r1, r2	@ D.10535, tmp140, tmp141
 524 0030 0010D2E5 		ldrb	r1, [r2, #0]	@ zero_extendqisi2	@ D.10536,* D.10535
 525 0034 0C009DE5 		ldr	r0, [sp, #12]	@ tmp142, this
 526 0038 0820A0E3 		mov	r2, #8	@ tmp143,
 527 003c 030080E0 		add	r0, r0, r3	@ tmp144, tmp142, D.10533
 528 0040 022080E0 		add	r2, r0, r2	@ tmp145, tmp144, tmp143
 529 0044 0010C2E5 		strb	r1, [r2, #0]	@ tmp146, this_5(D)->buffer
 530 0048 012083E2 		add	r2, r3, #1	@ D.10534, D.10533,
 531 004c 0C309DE5 		ldr	r3, [sp, #12]	@ tmp147, this
ARM GAS  /tmp/ccYngNjd.s 			page 13


 532 0050 042083E5 		str	r2, [r3, #4]	@ D.10534, this_5(D)->index
 144:Log.cpp       ****     for (i = 0; i < length; ++i)
 533              		.loc 1 144 0 discriminator 2
 534 0054 14309DE5 		ldr	r3, [sp, #20]	@ tmp148, i
 535 0058 013083E2 		add	r3, r3, #1	@ tmp149, tmp148,
 536 005c 14308DE5 		str	r3, [sp, #20]	@ tmp149, i
 537              	.L13:
 144:Log.cpp       ****     for (i = 0; i < length; ++i)
 538              		.loc 1 144 0 is_stmt 0 discriminator 1
 539 0060 14209DE5 		ldr	r2, [sp, #20]	@ tmp151, i
 540 0064 04309DE5 		ldr	r3, [sp, #4]	@ tmp152, length
 541 0068 030052E1 		cmp	r2, r3	@ tmp151, tmp152
 542 006c 0030A023 		movcs	r3, #0	@, tmp153
 543 0070 0130A033 		movcc	r3, #1	@, tmp153
 544 0074 FF3003E2 		and	r3, r3, #255	@ D.10531, tmp150,
 545 0078 000053E3 		cmp	r3, #0	@ D.10531,
 546 007c E6FFFF1A 		bne	.L14	@,
 547              	.LBE3:
 146:Log.cpp       **** }
 548              		.loc 1 146 0 is_stmt 1
 549 0080 18D08DE2 		add	sp, sp, #24	@,,
 550 0084 1EFF2FE1 		bx	lr
 551              		.cfi_endproc
 552              	.LFE119:
 553              		.size	_ZN3Log10WriteBlockEPKhm, .-_ZN3Log10WriteBlockEPKhm
 554              		.section	.rodata
 555              		.align	2
 556              	.LC0:
 557 0000 4C6F6720 		.ascii	"Log Contents\000"
 557      436F6E74 
 557      656E7473 
 557      00
 558 000d 000000   		.align	2
 559              	.LC1:
 560 0010 2530386C 		.ascii	"%08lx \000"
 560      782000
 561 0017 00       		.align	2
 562              	.LC2:
 563 0018 25303278 		.ascii	"%02x \000"
 563      2000
 564 001e 0000     		.align	2
 565              	.LC3:
 566 0020 00       		.ascii	"\000"
 567              		.section	.text._ZN3Log4DumpEv,"ax",%progbits
 568              		.align	2
 569              		.global	_ZN3Log4DumpEv
 570              		.type	_ZN3Log4DumpEv, %function
 571              	_ZN3Log4DumpEv:
 572              	.LFB120:
 147:Log.cpp       **** 
 148:Log.cpp       **** /**
 149:Log.cpp       ****  * Send the contents of the log to the serial port.
 150:Log.cpp       ****  */
 151:Log.cpp       **** void Log::Dump()
 152:Log.cpp       **** {
 573              		.loc 1 152 0
 574              		.cfi_startproc
ARM GAS  /tmp/ccYngNjd.s 			page 14


 575              		@ Function supports interworking.
 576              		@ args = 0, pretend = 0, frame = 64
 577              		@ frame_needed = 0, uses_anonymous_args = 0
 578 0000 04E02DE5 		str	lr, [sp, #-4]!	@,
 579              	.LCFI12:
 580              		.cfi_def_cfa_offset 4
 581 0004 44D04DE2 		sub	sp, sp, #68	@,,
 582              	.LCFI13:
 583              		.cfi_def_cfa_offset 72
 584 0008 04008DE5 		str	r0, [sp, #4]	@ this, this
 585              	.LBB4:
 153:Log.cpp       ****     uint32_t i, zeroCount, address;
 154:Log.cpp       ****     bool_t doneFlag;
 155:Log.cpp       ****     uint8_t data[24];
 156:Log.cpp       ****     char buffer[10];
 157:Log.cpp       ****     
 158:Log.cpp       ****     address = 0;
 586              		.loc 1 158 0
 587 000c 0030A0E3 		mov	r3, #0	@ tmp145,
 588 0010 34308DE5 		str	r3, [sp, #52]	@ tmp145, address
 159:Log.cpp       ****     doneFlag = false;
 589              		.loc 1 159 0
 590 0014 0030A0E3 		mov	r3, #0	@ tmp146,
 591 0018 3330CDE5 		strb	r3, [sp, #51]	@ tmp147, doneFlag
 160:Log.cpp       ****     zeroCount = 0;
 592              		.loc 1 160 0
 593 001c 0030A0E3 		mov	r3, #0	@ tmp148,
 594 0020 38308DE5 		str	r3, [sp, #56]	@ tmp148, zeroCount
 161:Log.cpp       ****     
 162:Log.cpp       ****     UART0::GetInstance()->WriteLine ("Log Contents");
 595              		.loc 1 162 0
 596              		.cfi_offset 14, -4
 597 0024 FEFFFFEB 		bl	_ZN5UART011GetInstanceEv	@
 598 0028 0030A0E1 		mov	r3, r0	@ D.10500,
 599 002c 0300A0E1 		mov	r0, r3	@, D.10500
 600 0030 78119FE5 		ldr	r1, .L24	@,
 601 0034 FEFFFFEB 		bl	_ZN5UART09WriteLineEPKcz	@
 163:Log.cpp       ****     
 164:Log.cpp       ****     while (!doneFlag)
 602              		.loc 1 164 0
 603 0038 540000EA 		b	.L16	@
 604              	.L23:
 165:Log.cpp       ****     {
 166:Log.cpp       ****         this->m25p80->ReadBlock (address, data, sizeof(data));
 605              		.loc 1 166 0
 606 003c 04309DE5 		ldr	r3, [sp, #4]	@ tmp149, this
 607 0040 302093E5 		ldr	r2, [r3, #48]	@ D.10505, this_14(D)->m25p80
 608 0044 18308DE2 		add	r3, sp, #24	@ tmp150,,
 609 0048 0200A0E1 		mov	r0, r2	@, D.10505
 610 004c 34109DE5 		ldr	r1, [sp, #52]	@, address
 611 0050 0320A0E1 		mov	r2, r3	@, tmp150
 612 0054 1830A0E3 		mov	r3, #24	@,
 613 0058 FEFFFFEB 		bl	_ZN6M25P809ReadBlockEmPvm	@
 167:Log.cpp       ****         
 168:Log.cpp       ****         sprintf (buffer, "%08lx ", address);
 614              		.loc 1 168 0
 615 005c 0C308DE2 		add	r3, sp, #12	@ tmp151,,
ARM GAS  /tmp/ccYngNjd.s 			page 15


 616 0060 0300A0E1 		mov	r0, r3	@, tmp151
 617 0064 48119FE5 		ldr	r1, .L24+4	@,
 618 0068 34209DE5 		ldr	r2, [sp, #52]	@, address
 619 006c FEFFFFEB 		bl	sprintf	@
 169:Log.cpp       ****         UART0::GetInstance()->Write (buffer);
 620              		.loc 1 169 0
 621 0070 FEFFFFEB 		bl	_ZN5UART011GetInstanceEv	@
 622 0074 0020A0E1 		mov	r2, r0	@ D.10506,
 623 0078 0C308DE2 		add	r3, sp, #12	@ tmp152,,
 624 007c 0200A0E1 		mov	r0, r2	@, D.10506
 625 0080 0310A0E1 		mov	r1, r3	@, tmp152
 626 0084 FEFFFFEB 		bl	_ZN5UART05WriteEPKc	@
 170:Log.cpp       ****         
 171:Log.cpp       ****         for (i = 0; i < sizeof(data); ++i)
 627              		.loc 1 171 0
 628 0088 0030A0E3 		mov	r3, #0	@ tmp153,
 629 008c 3C308DE5 		str	r3, [sp, #60]	@ tmp153, i
 630 0090 210000EA 		b	.L17	@
 631              	.L20:
 172:Log.cpp       ****         {
 173:Log.cpp       ****             sprintf (buffer, "%02x ", data[i]);
 632              		.loc 1 173 0
 633 0094 2730E0E3 		mvn	r3, #39	@ tmp154,
 634 0098 3C209DE5 		ldr	r2, [sp, #60]	@ tmp156, i
 635 009c 40108DE2 		add	r1, sp, #64	@,,
 636 00a0 022081E0 		add	r2, r1, r2	@ tmp155,, tmp156
 637 00a4 033082E0 		add	r3, r2, r3	@ tmp157, tmp155, tmp154
 638 00a8 0030D3E5 		ldrb	r3, [r3, #0]	@ zero_extendqisi2	@ D.10512, data
 639 00ac 0C208DE2 		add	r2, sp, #12	@ tmp158,,
 640 00b0 0200A0E1 		mov	r0, r2	@, tmp158
 641 00b4 FC109FE5 		ldr	r1, .L24+8	@,
 642 00b8 0320A0E1 		mov	r2, r3	@, D.10513
 643 00bc FEFFFFEB 		bl	sprintf	@
 174:Log.cpp       ****             UART0::GetInstance()->Write (buffer);
 644              		.loc 1 174 0
 645 00c0 FEFFFFEB 		bl	_ZN5UART011GetInstanceEv	@
 646 00c4 0020A0E1 		mov	r2, r0	@ D.10514,
 647 00c8 0C308DE2 		add	r3, sp, #12	@ tmp159,,
 648 00cc 0200A0E1 		mov	r0, r2	@, D.10514
 649 00d0 0310A0E1 		mov	r1, r3	@, tmp159
 650 00d4 FEFFFFEB 		bl	_ZN5UART05WriteEPKc	@
 175:Log.cpp       ****             
 176:Log.cpp       ****             if (data[i] == 0xff)
 651              		.loc 1 176 0
 652 00d8 2730E0E3 		mvn	r3, #39	@ tmp160,
 653 00dc 3C209DE5 		ldr	r2, [sp, #60]	@ tmp162, i
 654 00e0 40108DE2 		add	r1, sp, #64	@,,
 655 00e4 022081E0 		add	r2, r1, r2	@ tmp161,, tmp162
 656 00e8 033082E0 		add	r3, r2, r3	@ tmp163, tmp161, tmp160
 657 00ec 0030D3E5 		ldrb	r3, [r3, #0]	@ zero_extendqisi2	@ D.10515, data
 658 00f0 FF0053E3 		cmp	r3, #255	@ D.10515,
 659 00f4 0300001A 		bne	.L18	@,
 177:Log.cpp       ****                 ++zeroCount;
 660              		.loc 1 177 0
 661 00f8 38309DE5 		ldr	r3, [sp, #56]	@ tmp164, zeroCount
 662 00fc 013083E2 		add	r3, r3, #1	@ tmp165, tmp164,
 663 0100 38308DE5 		str	r3, [sp, #56]	@ tmp165, zeroCount
ARM GAS  /tmp/ccYngNjd.s 			page 16


 664 0104 010000EA 		b	.L19	@
 665              	.L18:
 178:Log.cpp       ****             else
 179:Log.cpp       ****                 zeroCount = 0;
 666              		.loc 1 179 0
 667 0108 0030A0E3 		mov	r3, #0	@ tmp166,
 668 010c 38308DE5 		str	r3, [sp, #56]	@ tmp166, zeroCount
 669              	.L19:
 171:Log.cpp       ****         for (i = 0; i < sizeof(data); ++i)
 670              		.loc 1 171 0
 671 0110 3C309DE5 		ldr	r3, [sp, #60]	@ tmp167, i
 672 0114 013083E2 		add	r3, r3, #1	@ tmp168, tmp167,
 673 0118 3C308DE5 		str	r3, [sp, #60]	@ tmp168, i
 674              	.L17:
 171:Log.cpp       ****         for (i = 0; i < sizeof(data); ++i)
 675              		.loc 1 171 0 is_stmt 0 discriminator 1
 676 011c 3C309DE5 		ldr	r3, [sp, #60]	@ tmp170, i
 677 0120 170053E3 		cmp	r3, #23	@ tmp170,
 678 0124 0030A083 		movhi	r3, #0	@, tmp171
 679 0128 0130A093 		movls	r3, #1	@, tmp171
 680 012c FF3003E2 		and	r3, r3, #255	@ D.10510, tmp169,
 681 0130 000053E3 		cmp	r3, #0	@ D.10510,
 682 0134 D6FFFF1A 		bne	.L20	@,
 180:Log.cpp       ****         } // END for
 181:Log.cpp       ****         
 182:Log.cpp       ****         UART0::GetInstance()->WriteLine ("");
 683              		.loc 1 182 0 is_stmt 1
 684 0138 FEFFFFEB 		bl	_ZN5UART011GetInstanceEv	@
 685 013c 0030A0E1 		mov	r3, r0	@ D.10519,
 686 0140 0300A0E1 		mov	r0, r3	@, D.10519
 687 0144 70109FE5 		ldr	r1, .L24+12	@,
 688 0148 FEFFFFEB 		bl	_ZN5UART09WriteLineEPKcz	@
 183:Log.cpp       ****         
 184:Log.cpp       ****         if (UART0::GetInstance()->IsCharReady())
 689              		.loc 1 184 0
 690 014c FEFFFFEB 		bl	_ZN5UART011GetInstanceEv	@
 691 0150 0030A0E1 		mov	r3, r0	@ D.10521,
 692 0154 0300A0E1 		mov	r0, r3	@, D.10521
 693 0158 FEFFFFEB 		bl	_ZN5UART011IsCharReadyEv	@
 694 015c 0030A0E1 		mov	r3, r0	@ tmp172,
 695 0160 000053E3 		cmp	r3, #0	@ retval.1,
 696 0164 0100000A 		beq	.L21	@,
 185:Log.cpp       ****             doneFlag = true;
 697              		.loc 1 185 0
 698 0168 0130A0E3 		mov	r3, #1	@ tmp173,
 699 016c 3330CDE5 		strb	r3, [sp, #51]	@ tmp174, doneFlag
 700              	.L21:
 186:Log.cpp       ****         
 187:Log.cpp       ****         if (zeroCount > 32)
 701              		.loc 1 187 0
 702 0170 38309DE5 		ldr	r3, [sp, #56]	@ tmp175, zeroCount
 703 0174 200053E3 		cmp	r3, #32	@ tmp175,
 704 0178 0100009A 		bls	.L22	@,
 188:Log.cpp       ****             doneFlag = true;
 705              		.loc 1 188 0
 706 017c 0130A0E3 		mov	r3, #1	@ tmp176,
 707 0180 3330CDE5 		strb	r3, [sp, #51]	@ tmp177, doneFlag
ARM GAS  /tmp/ccYngNjd.s 			page 17


 708              	.L22:
 189:Log.cpp       ****         
 190:Log.cpp       ****         address += sizeof(data);
 709              		.loc 1 190 0
 710 0184 34309DE5 		ldr	r3, [sp, #52]	@ tmp178, address
 711 0188 183083E2 		add	r3, r3, #24	@ tmp179, tmp178,
 712 018c 34308DE5 		str	r3, [sp, #52]	@ tmp179, address
 713              	.L16:
 164:Log.cpp       ****     while (!doneFlag)
 714              		.loc 1 164 0 discriminator 1
 715 0190 3330DDE5 		ldrb	r3, [sp, #51]	@ tmp180, doneFlag
 716 0194 013023E2 		eor	r3, r3, #1	@ tmp181, tmp180,
 717 0198 FF3003E2 		and	r3, r3, #255	@ D.10504, tmp181,
 718 019c 000053E3 		cmp	r3, #0	@ D.10504,
 719 01a0 A5FFFF1A 		bne	.L23	@,
 720              	.LBE4:
 191:Log.cpp       ****         
 192:Log.cpp       ****     } // END while    
 193:Log.cpp       **** }
 721              		.loc 1 193 0
 722 01a4 44D08DE2 		add	sp, sp, #68	@,,
 723 01a8 04E09DE4 		ldr	lr, [sp], #4
 724 01ac 1EFF2FE1 		bx	lr
 725              	.L25:
 726              		.align	2
 727              	.L24:
 728 01b0 00000000 		.word	.LC0
 729 01b4 10000000 		.word	.LC1
 730 01b8 18000000 		.word	.LC2
 731 01bc 20000000 		.word	.LC3
 732              		.cfi_endproc
 733              	.LFE120:
 734              		.size	_ZN3Log4DumpEv, .-_ZN3Log4DumpEv
 735              		.section	.text._ZN3Log5FlushEv,"ax",%progbits
 736              		.align	2
 737              		.global	_ZN3Log5FlushEv
 738              		.type	_ZN3Log5FlushEv, %function
 739              	_ZN3Log5FlushEv:
 740              	.LFB121:
 194:Log.cpp       **** 
 195:Log.cpp       **** /**
 196:Log.cpp       ****  *   Write the contents of the temporary log buffer to the flash device.  If the buffer
 197:Log.cpp       ****  *   is empty, nothing is done.
 198:Log.cpp       ****  */
 199:Log.cpp       **** void Log::Flush()
 200:Log.cpp       **** {
 741              		.loc 1 200 0
 742              		.cfi_startproc
 743              		@ Function supports interworking.
 744              		@ args = 0, pretend = 0, frame = 8
 745              		@ frame_needed = 0, uses_anonymous_args = 0
 746 0000 04E02DE5 		str	lr, [sp, #-4]!	@,
 747              	.LCFI14:
 748              		.cfi_def_cfa_offset 4
 749 0004 0CD04DE2 		sub	sp, sp, #12	@,,
 750              	.LCFI15:
 751              		.cfi_def_cfa_offset 16
ARM GAS  /tmp/ccYngNjd.s 			page 18


 752 0008 04008DE5 		str	r0, [sp, #4]	@ this, this
 201:Log.cpp       ****     // We only need to write if there is data.
 202:Log.cpp       ****     if (this->index != 0) 
 753              		.loc 1 202 0
 754 000c 04309DE5 		ldr	r3, [sp, #4]	@ tmp141, this
 755 0010 043093E5 		ldr	r3, [r3, #4]	@ D.10489, this_1(D)->index
 756 0014 000053E3 		cmp	r3, #0	@ D.10489,
 757 0018 1200000A 		beq	.L26	@,
 758              		.cfi_offset 14, -4
 203:Log.cpp       ****     {
 204:Log.cpp       ****         this->m25p80->WriteBlock (this->address, this->buffer, this->index);
 759              		.loc 1 204 0
 760 001c 04309DE5 		ldr	r3, [sp, #4]	@ tmp142, this
 761 0020 300093E5 		ldr	r0, [r3, #48]	@ D.10492, this_1(D)->m25p80
 762 0024 04309DE5 		ldr	r3, [sp, #4]	@ tmp143, this
 763 0028 001093E5 		ldr	r1, [r3, #0]	@ D.10493, this_1(D)->address
 764 002c 04309DE5 		ldr	r3, [sp, #4]	@ tmp144, this
 765 0030 082083E2 		add	r2, r3, #8	@ D.10494, tmp144,
 766 0034 04309DE5 		ldr	r3, [sp, #4]	@ tmp145, this
 767 0038 043093E5 		ldr	r3, [r3, #4]	@ D.10495, this_1(D)->index
 768 003c FEFFFFEB 		bl	_ZN6M25P8010WriteBlockEmPKvm	@
 205:Log.cpp       ****         this->address += this->index;
 769              		.loc 1 205 0
 770 0040 04309DE5 		ldr	r3, [sp, #4]	@ tmp146, this
 771 0044 002093E5 		ldr	r2, [r3, #0]	@ D.10496, this_1(D)->address
 772 0048 04309DE5 		ldr	r3, [sp, #4]	@ tmp147, this
 773 004c 043093E5 		ldr	r3, [r3, #4]	@ D.10497, this_1(D)->index
 774 0050 032082E0 		add	r2, r2, r3	@ D.10498, D.10496, D.10497
 775 0054 04309DE5 		ldr	r3, [sp, #4]	@ tmp148, this
 776 0058 002083E5 		str	r2, [r3, #0]	@ D.10498, this_1(D)->address
 206:Log.cpp       ****         this->index = 0;
 777              		.loc 1 206 0
 778 005c 04309DE5 		ldr	r3, [sp, #4]	@ tmp149, this
 779 0060 0020A0E3 		mov	r2, #0	@ tmp150,
 780 0064 042083E5 		str	r2, [r3, #4]	@ tmp150, this_1(D)->index
 781              	.L26:
 207:Log.cpp       ****     } // END if
 208:Log.cpp       **** }
 782              		.loc 1 208 0
 783 0068 0CD08DE2 		add	sp, sp, #12	@,,
 784 006c 04E09DE4 		ldr	lr, [sp], #4
 785 0070 1EFF2FE1 		bx	lr
 786              		.cfi_endproc
 787              	.LFE121:
 788              		.size	_ZN3Log5FlushEv, .-_ZN3Log5FlushEv
 789              		.section	.text._ZN3Log4TypeENS_15LOG_RECORD_TYPEE,"ax",%progbits
 790              		.align	2
 791              		.global	_ZN3Log4TypeENS_15LOG_RECORD_TYPEE
 792              		.type	_ZN3Log4TypeENS_15LOG_RECORD_TYPEE, %function
 793              	_ZN3Log4TypeENS_15LOG_RECORD_TYPEE:
 794              	.LFB122:
 209:Log.cpp       **** 
 210:Log.cpp       **** /**
 211:Log.cpp       ****  *   Start a entry in the data log.
 212:Log.cpp       ****  *
 213:Log.cpp       ****  *   @param type enumeration that describes the type of log entry
 214:Log.cpp       ****  */
ARM GAS  /tmp/ccYngNjd.s 			page 19


 215:Log.cpp       **** void Log::Type (LOG_RECORD_TYPE type)
 216:Log.cpp       **** {
 795              		.loc 1 216 0
 796              		.cfi_startproc
 797              		@ Function supports interworking.
 798              		@ args = 0, pretend = 0, frame = 8
 799              		@ frame_needed = 0, uses_anonymous_args = 0
 800 0000 04E02DE5 		str	lr, [sp, #-4]!	@,
 801              	.LCFI16:
 802              		.cfi_def_cfa_offset 4
 803 0004 0CD04DE2 		sub	sp, sp, #12	@,,
 804              	.LCFI17:
 805              		.cfi_def_cfa_offset 16
 806 0008 04008DE5 		str	r0, [sp, #4]	@ this, this
 807 000c 0130A0E1 		mov	r3, r1	@ tmp134, type
 808 0010 0330CDE5 		strb	r3, [sp, #3]	@ tmp135, type
 217:Log.cpp       ****     // Only add the new entry if there is space.
 218:Log.cpp       ****     if (this->address >= 0x100000)
 809              		.loc 1 218 0
 810 0014 04309DE5 		ldr	r3, [sp, #4]	@ tmp136, this
 811 0018 002093E5 		ldr	r2, [r3, #0]	@ D.10485, this_1(D)->address
 812 001c 38309FE5 		ldr	r3, .L32	@ tmp137,
 813 0020 030052E1 		cmp	r2, r3	@ D.10485, tmp137
 814 0024 0800008A 		bhi	.L31	@,
 815              		.cfi_offset 14, -4
 816              	.L29:
 219:Log.cpp       ****         return;
 220:Log.cpp       **** 
 221:Log.cpp       ****     // Write the old entry first.
 222:Log.cpp       ****     Flush();
 817              		.loc 1 222 0
 818 0028 04009DE5 		ldr	r0, [sp, #4]	@, this
 819 002c FEFFFFEB 		bl	_ZN3Log5FlushEv	@
 223:Log.cpp       **** 
 224:Log.cpp       ****     // Save the type and set the log buffer pointer.
 225:Log.cpp       ****     this->buffer[0] = type;
 820              		.loc 1 225 0
 821 0030 04309DE5 		ldr	r3, [sp, #4]	@ tmp138, this
 822 0034 0320DDE5 		ldrb	r2, [sp, #3]	@ tmp139, type
 823 0038 0820C3E5 		strb	r2, [r3, #8]	@ tmp139, this_1(D)->buffer
 226:Log.cpp       ****     this->index = 1;
 824              		.loc 1 226 0
 825 003c 04309DE5 		ldr	r3, [sp, #4]	@ tmp140, this
 826 0040 0120A0E3 		mov	r2, #1	@ tmp141,
 827 0044 042083E5 		str	r2, [r3, #4]	@ tmp141, this_1(D)->index
 828 0048 000000EA 		b	.L28	@
 829              	.L31:
 219:Log.cpp       ****         return;
 830              		.loc 1 219 0
 831 004c 0000A0E1 		mov	r0, r0	@ nop
 832              	.L28:
 227:Log.cpp       **** }
 833              		.loc 1 227 0
 834 0050 0CD08DE2 		add	sp, sp, #12	@,,
 835 0054 04E09DE4 		ldr	lr, [sp], #4
 836 0058 1EFF2FE1 		bx	lr
 837              	.L33:
ARM GAS  /tmp/ccYngNjd.s 			page 20


 838              		.align	2
 839              	.L32:
 840 005c FFFF0F00 		.word	1048575
 841              		.cfi_endproc
 842              	.LFE122:
 843              		.size	_ZN3Log4TypeENS_15LOG_RECORD_TYPEE, .-_ZN3Log4TypeENS_15LOG_RECORD_TYPEE
 844              		.section	.text._ZN3Log5EraseEv,"ax",%progbits
 845              		.align	2
 846              		.global	_ZN3Log5EraseEv
 847              		.type	_ZN3Log5EraseEv, %function
 848              	_ZN3Log5EraseEv:
 849              	.LFB123:
 228:Log.cpp       **** 
 229:Log.cpp       **** /**
 230:Log.cpp       ****  * Erase the contents of the flash memory log.
 231:Log.cpp       ****  */
 232:Log.cpp       **** void Log::Erase()
 233:Log.cpp       **** {
 850              		.loc 1 233 0
 851              		.cfi_startproc
 852              		@ Function supports interworking.
 853              		@ args = 0, pretend = 0, frame = 8
 854              		@ frame_needed = 0, uses_anonymous_args = 0
 855 0000 04E02DE5 		str	lr, [sp, #-4]!	@,
 856              	.LCFI18:
 857              		.cfi_def_cfa_offset 4
 858 0004 0CD04DE2 		sub	sp, sp, #12	@,,
 859              	.LCFI19:
 860              		.cfi_def_cfa_offset 16
 861 0008 04008DE5 		str	r0, [sp, #4]	@ this, this
 234:Log.cpp       ****     this->m25p80->BulkErase();
 862              		.loc 1 234 0
 863 000c 04309DE5 		ldr	r3, [sp, #4]	@ tmp134, this
 864 0010 303093E5 		ldr	r3, [r3, #48]	@ D.10484, this_1(D)->m25p80
 865 0014 0300A0E1 		mov	r0, r3	@, D.10484
 866              		.cfi_offset 14, -4
 867 0018 FEFFFFEB 		bl	_ZN6M25P809BulkEraseEv	@
 235:Log.cpp       ****     
 236:Log.cpp       ****     // Set the write address back to the start.
 237:Log.cpp       ****     this->address = 0x0000;
 868              		.loc 1 237 0
 869 001c 04309DE5 		ldr	r3, [sp, #4]	@ tmp135, this
 870 0020 0020A0E3 		mov	r2, #0	@ tmp136,
 871 0024 002083E5 		str	r2, [r3, #0]	@ tmp136, this_1(D)->address
 238:Log.cpp       **** }
 872              		.loc 1 238 0
 873 0028 0CD08DE2 		add	sp, sp, #12	@,,
 874 002c 04E09DE4 		ldr	lr, [sp], #4
 875 0030 1EFF2FE1 		bx	lr
 876              		.cfi_endproc
 877              	.LFE123:
 878              		.size	_ZN3Log5EraseEv, .-_ZN3Log5EraseEv
 879              		.section	.text._ZN3Log6EnableEv,"ax",%progbits
 880              		.align	2
 881              		.global	_ZN3Log6EnableEv
 882              		.type	_ZN3Log6EnableEv, %function
 883              	_ZN3Log6EnableEv:
ARM GAS  /tmp/ccYngNjd.s 			page 21


 884              	.LFB124:
 239:Log.cpp       **** 
 240:Log.cpp       **** /**
 241:Log.cpp       ****  * Enable the logging system for operation.
 242:Log.cpp       ****  */
 243:Log.cpp       **** void Log::Enable()
 244:Log.cpp       **** {
 885              		.loc 1 244 0
 886              		.cfi_startproc
 887              		@ Function supports interworking.
 888              		@ args = 0, pretend = 0, frame = 24
 889              		@ frame_needed = 0, uses_anonymous_args = 0
 890 0000 04E02DE5 		str	lr, [sp, #-4]!	@,
 891              	.LCFI20:
 892              		.cfi_def_cfa_offset 4
 893 0004 1CD04DE2 		sub	sp, sp, #28	@,,
 894              	.LCFI21:
 895              		.cfi_def_cfa_offset 32
 896 0008 04008DE5 		str	r0, [sp, #4]	@ this, this
 897              	.LBB5:
 245:Log.cpp       ****     uint8_t buffer[8];
 246:Log.cpp       ****     bool_t endFound;
 247:Log.cpp       **** 
 248:Log.cpp       ****     // Parse through the log to find the end of memory.
 249:Log.cpp       ****     this->address = 0x0000;
 898              		.loc 1 249 0
 899 000c 04309DE5 		ldr	r3, [sp, #4]	@ tmp148, this
 900 0010 0020A0E3 		mov	r2, #0	@ tmp149,
 901 0014 002083E5 		str	r2, [r3, #0]	@ tmp149, this_4(D)->address
 250:Log.cpp       ****     endFound = false;
 902              		.loc 1 250 0
 903 0018 0030A0E3 		mov	r3, #0	@ tmp150,
 904 001c 1730CDE5 		strb	r3, [sp, #23]	@ tmp151, endFound
 905              	.L45:
 251:Log.cpp       ****     
 252:Log.cpp       ****     // Read each logged data block from flash to determine how long it is.
 253:Log.cpp       ****     do 
 254:Log.cpp       ****     {
 255:Log.cpp       ****         // Read the data log entry type.
 256:Log.cpp       ****         this->m25p80->ReadBlock (this->address, buffer, 1);
 906              		.loc 1 256 0
 907 0020 04309DE5 		ldr	r3, [sp, #4]	@ tmp152, this
 908 0024 301093E5 		ldr	r1, [r3, #48]	@ D.10471, this_4(D)->m25p80
 909 0028 04309DE5 		ldr	r3, [sp, #4]	@ tmp153, this
 910 002c 002093E5 		ldr	r2, [r3, #0]	@ D.10472, this_4(D)->address
 911 0030 0C308DE2 		add	r3, sp, #12	@ tmp154,,
 912 0034 0100A0E1 		mov	r0, r1	@, D.10471
 913 0038 0210A0E1 		mov	r1, r2	@, D.10472
 914 003c 0320A0E1 		mov	r2, r3	@, tmp154
 915 0040 0130A0E3 		mov	r3, #1	@,
 916              		.cfi_offset 14, -4
 917 0044 FEFFFFEB 		bl	_ZN6M25P809ReadBlockEmPvm	@
 257:Log.cpp       **** 
 258:Log.cpp       ****         // Based on the log entry type, we'll skip over the data contained in the entry.
 259:Log.cpp       ****         switch (buffer[0]) 
 918              		.loc 1 259 0
 919 0048 0C30DDE5 		ldrb	r3, [sp, #12]	@ zero_extendqisi2	@ D.10474, buffer
ARM GAS  /tmp/ccYngNjd.s 			page 22


 920 004c 960053E3 		cmp	r3, #150	@ D.10475,
 921 0050 0F00000A 		beq	.L38	@,
 922 0054 960053E3 		cmp	r3, #150	@ D.10475,
 923 0058 020000CA 		bgt	.L41	@,
 924 005c 870053E3 		cmp	r3, #135	@ D.10475,
 925 0060 0500000A 		beq	.L37	@,
 926 0064 190000EA 		b	.L36	@
 927              	.L41:
 928 0068 A50053E3 		cmp	r3, #165	@ D.10475,
 929 006c 0E00000A 		beq	.L39	@,
 930 0070 FF0053E3 		cmp	r3, #255	@ D.10475,
 931 0074 1200000A 		beq	.L40	@,
 932 0078 140000EA 		b	.L36	@
 933              	.L37:
 260:Log.cpp       ****         {
 261:Log.cpp       ****             case SYSTEM_BOOTED:
 262:Log.cpp       ****                 this->address += 1;
 934              		.loc 1 262 0
 935 007c 04309DE5 		ldr	r3, [sp, #4]	@ tmp155, this
 936 0080 003093E5 		ldr	r3, [r3, #0]	@ D.10476, this_4(D)->address
 937 0084 012083E2 		add	r2, r3, #1	@ D.10477, D.10476,
 938 0088 04309DE5 		ldr	r3, [sp, #4]	@ tmp156, this
 939 008c 002083E5 		str	r2, [r3, #0]	@ D.10477, this_4(D)->address
 263:Log.cpp       ****                 break;
 940              		.loc 1 263 0
 941 0090 130000EA 		b	.L42	@
 942              	.L38:
 264:Log.cpp       ****     
 265:Log.cpp       ****             case GPS_FIX:
 266:Log.cpp       ****                 this->address += 24;
 943              		.loc 1 266 0
 944 0094 04309DE5 		ldr	r3, [sp, #4]	@ tmp157, this
 945 0098 003093E5 		ldr	r3, [r3, #0]	@ D.10478, this_4(D)->address
 946 009c 182083E2 		add	r2, r3, #24	@ D.10479, D.10478,
 947 00a0 04309DE5 		ldr	r3, [sp, #4]	@ tmp158, this
 948 00a4 002083E5 		str	r2, [r3, #0]	@ D.10479, this_4(D)->address
 267:Log.cpp       ****                 break;
 949              		.loc 1 267 0
 950 00a8 0D0000EA 		b	.L42	@
 951              	.L39:
 268:Log.cpp       ****     
 269:Log.cpp       ****             case TIME_STAMP:
 270:Log.cpp       ****                 this->address += 7;
 952              		.loc 1 270 0
 953 00ac 04309DE5 		ldr	r3, [sp, #4]	@ tmp159, this
 954 00b0 003093E5 		ldr	r3, [r3, #0]	@ D.10480, this_4(D)->address
 955 00b4 072083E2 		add	r2, r3, #7	@ D.10481, D.10480,
 956 00b8 04309DE5 		ldr	r3, [sp, #4]	@ tmp160, this
 957 00bc 002083E5 		str	r2, [r3, #0]	@ D.10481, this_4(D)->address
 271:Log.cpp       ****                 break;
 958              		.loc 1 271 0
 959 00c0 070000EA 		b	.L42	@
 960              	.L40:
 272:Log.cpp       **** 
 273:Log.cpp       ****             case 0xff:
 274:Log.cpp       ****                 endFound = true;
 961              		.loc 1 274 0
ARM GAS  /tmp/ccYngNjd.s 			page 23


 962 00c4 0130A0E3 		mov	r3, #1	@ tmp161,
 963 00c8 1730CDE5 		strb	r3, [sp, #23]	@ tmp162, endFound
 275:Log.cpp       ****                 break;
 964              		.loc 1 275 0
 965 00cc 040000EA 		b	.L42	@
 966              	.L36:
 276:Log.cpp       **** 
 277:Log.cpp       ****             default:
 278:Log.cpp       ****                 ++this->address;
 967              		.loc 1 278 0
 968 00d0 04309DE5 		ldr	r3, [sp, #4]	@ tmp163, this
 969 00d4 003093E5 		ldr	r3, [r3, #0]	@ D.10482, this_4(D)->address
 970 00d8 012083E2 		add	r2, r3, #1	@ D.10483, D.10482,
 971 00dc 04309DE5 		ldr	r3, [sp, #4]	@ tmp164, this
 972 00e0 002083E5 		str	r2, [r3, #0]	@ D.10483, this_4(D)->address
 973              	.L42:
 253:Log.cpp       ****     do 
 974              		.loc 1 253 0
 975 00e4 04309DE5 		ldr	r3, [sp, #4]	@ tmp165, this
 976 00e8 002093E5 		ldr	r2, [r3, #0]	@ D.10467, this_4(D)->address
 977 00ec 44309FE5 		ldr	r3, .L46	@ tmp166,
 978 00f0 030052E1 		cmp	r2, r3	@ D.10467, tmp166
 979 00f4 0600008A 		bhi	.L43	@,
 279:Log.cpp       ****         } // END switch
 280:Log.cpp       ****     } while (this->address < 0x100000 && !endFound);
 980              		.loc 1 280 0 discriminator 1
 981 00f8 1730DDE5 		ldrb	r3, [sp, #23]	@ tmp167, endFound
 982 00fc 013023E2 		eor	r3, r3, #1	@ tmp168, tmp167,
 983 0100 FF3003E2 		and	r3, r3, #255	@ D.10469, tmp168,
 253:Log.cpp       ****     do 
 984              		.loc 1 253 0 discriminator 1
 985 0104 000053E3 		cmp	r3, #0	@ D.10469,
 986 0108 0100000A 		beq	.L43	@,
 253:Log.cpp       ****     do 
 987              		.loc 1 253 0 is_stmt 0 discriminator 3
 988 010c 0130A0E3 		mov	r3, #1	@ iftmp.0,
 989 0110 000000EA 		b	.L44	@
 990              	.L43:
 253:Log.cpp       ****     do 
 991              		.loc 1 253 0 discriminator 2
 992 0114 0030A0E3 		mov	r3, #0	@ iftmp.0,
 993              	.L44:
 253:Log.cpp       ****     do 
 994              		.loc 1 253 0 discriminator 4
 995 0118 000053E3 		cmp	r3, #0	@ iftmp.0,
 996 011c BFFFFF1A 		bne	.L45	@,
 281:Log.cpp       **** 
 282:Log.cpp       ****     this->index = 0;    
 997              		.loc 1 282 0 is_stmt 1
 998 0120 04309DE5 		ldr	r3, [sp, #4]	@ tmp169, this
 999 0124 0020A0E3 		mov	r2, #0	@ tmp170,
 1000 0128 042083E5 		str	r2, [r3, #4]	@ tmp170, this_4(D)->index
 1001              	.LBE5:
 283:Log.cpp       **** }
 1002              		.loc 1 283 0
 1003 012c 1CD08DE2 		add	sp, sp, #28	@,,
 1004 0130 04E09DE4 		ldr	lr, [sp], #4
ARM GAS  /tmp/ccYngNjd.s 			page 24


 1005 0134 1EFF2FE1 		bx	lr
 1006              	.L47:
 1007              		.align	2
 1008              	.L46:
 1009 0138 FFFF0F00 		.word	1048575
 1010              		.cfi_endproc
 1011              	.LFE124:
 1012              		.size	_ZN3Log6EnableEv, .-_ZN3Log6EnableEv
 1013              		.section	.text._Z41__static_initialization_and_destruction_0ii,"ax",%progbits
 1014              		.align	2
 1015              		.type	_Z41__static_initialization_and_destruction_0ii, %function
 1016              	_Z41__static_initialization_and_destruction_0ii:
 1017              	.LFB125:
 1018              		.loc 1 283 0
 1019              		.cfi_startproc
 1020              		@ Function supports interworking.
 1021              		@ args = 0, pretend = 0, frame = 8
 1022              		@ frame_needed = 0, uses_anonymous_args = 0
 1023 0000 04E02DE5 		str	lr, [sp, #-4]!	@,
 1024              	.LCFI22:
 1025              		.cfi_def_cfa_offset 4
 1026 0004 0CD04DE2 		sub	sp, sp, #12	@,,
 1027              	.LCFI23:
 1028              		.cfi_def_cfa_offset 16
 1029 0008 04008DE5 		str	r0, [sp, #4]	@ __initialize_p, __initialize_p
 1030 000c 00108DE5 		str	r1, [sp, #0]	@ __priority, __priority
 1031              		.loc 1 283 0
 1032 0010 04309DE5 		ldr	r3, [sp, #4]	@ tmp133, __initialize_p
 1033 0014 010053E3 		cmp	r3, #1	@ tmp133,
 1034 0018 0500001A 		bne	.L48	@,
 1035              		.cfi_offset 14, -4
 1036              		.loc 1 283 0 is_stmt 0 discriminator 1
 1037 001c 00209DE5 		ldr	r2, [sp, #0]	@ tmp134, __priority
 1038 0020 18309FE5 		ldr	r3, .L50	@ tmp135,
 1039 0024 030052E1 		cmp	r2, r3	@ tmp134, tmp135
 1040 0028 0100001A 		bne	.L48	@,
  30:Log.cpp       **** static Log logSingletonObject;
 1041              		.loc 1 30 0 is_stmt 1
 1042 002c 10009FE5 		ldr	r0, .L50+4	@,
 1043 0030 FEFFFFEB 		bl	_ZN3LogC1Ev	@
 1044              	.L48:
 1045              		.loc 1 283 0
 1046 0034 0CD08DE2 		add	sp, sp, #12	@,,
 1047 0038 04E09DE4 		ldr	lr, [sp], #4
 1048 003c 1EFF2FE1 		bx	lr
 1049              	.L51:
 1050              		.align	2
 1051              	.L50:
 1052 0040 FFFF0000 		.word	65535
 1053 0044 00000000 		.word	_ZL18logSingletonObject
 1054              		.cfi_endproc
 1055              	.LFE125:
 1056              		.size	_Z41__static_initialization_and_destruction_0ii, .-_Z41__static_initialization_and_destructi
 1057              		.section	.rodata
 1058 0021 000000   		.align	2
 1059              		.type	_ZL12VIC_USB_Intr, %object
 1060              		.size	_ZL12VIC_USB_Intr, 4
ARM GAS  /tmp/ccYngNjd.s 			page 25


 1061              	_ZL12VIC_USB_Intr:
 1062 0024 00004000 		.word	4194304
 1063              		.align	2
 1064              		.type	_ZL9CCR_CLKEN, %object
 1065              		.size	_ZL9CCR_CLKEN, 4
 1066              	_ZL9CCR_CLKEN:
 1067 0028 01000000 		.word	1
 1068              		.align	2
 1069              		.type	_ZL10CCR_CTCRST, %object
 1070              		.size	_ZL10CCR_CTCRST, 4
 1071              	_ZL10CCR_CTCRST:
 1072 002c 02000000 		.word	2
 1073              		.align	2
 1074              		.type	_ZL16CCR_CLKSRC_32KHZ, %object
 1075              		.size	_ZL16CCR_CLKSRC_32KHZ, 4
 1076              	_ZL16CCR_CLKSRC_32KHZ:
 1077 0030 10000000 		.word	16
 1078              		.align	2
 1079              		.type	_ZL18VIC_Channel_Timer0, %object
 1080              		.size	_ZL18VIC_Channel_Timer0, 4
 1081              	_ZL18VIC_Channel_Timer0:
 1082 0034 04000000 		.word	4
 1083              		.align	2
 1084              		.type	_ZL18VIC_Channel_Timer1, %object
 1085              		.size	_ZL18VIC_Channel_Timer1, 4
 1086              	_ZL18VIC_Channel_Timer1:
 1087 0038 05000000 		.word	5
 1088              		.align	2
 1089              		.type	_ZL17VIC_Channel_UART0, %object
 1090              		.size	_ZL17VIC_Channel_UART0, 4
 1091              	_ZL17VIC_Channel_UART0:
 1092 003c 06000000 		.word	6
 1093              		.align	2
 1094              		.type	_ZL17VIC_Channel_UART1, %object
 1095              		.size	_ZL17VIC_Channel_UART1, 4
 1096              	_ZL17VIC_Channel_UART1:
 1097 0040 07000000 		.word	7
 1098              		.align	2
 1099              		.type	_ZL15VIC_Channel_USB, %object
 1100              		.size	_ZL15VIC_Channel_USB, 4
 1101              	_ZL15VIC_Channel_USB:
 1102 0044 16000000 		.word	22
 1103              		.align	2
 1104              		.type	_ZL18VICVectCntl_ENABLE, %object
 1105              		.size	_ZL18VICVectCntl_ENABLE, 4
 1106              	_ZL18VICVectCntl_ENABLE:
 1107 0048 20000000 		.word	32
 1108              		.align	2
 1109              		.type	_ZL10UIER_ERBFI, %object
 1110              		.size	_ZL10UIER_ERBFI, 4
 1111              	_ZL10UIER_ERBFI:
 1112 004c 01000000 		.word	1
 1113              		.align	2
 1114              		.type	_ZL12UIIR_ID_MASK, %object
 1115              		.size	_ZL12UIIR_ID_MASK, 4
 1116              	_ZL12UIIR_ID_MASK:
 1117 0050 0E000000 		.word	14
ARM GAS  /tmp/ccYngNjd.s 			page 26


 1118              		.align	2
 1119              		.type	_ZL12UIIR_RDA_INT, %object
 1120              		.size	_ZL12UIIR_RDA_INT, 4
 1121              	_ZL12UIIR_RDA_INT:
 1122 0054 04000000 		.word	4
 1123              		.align	2
 1124              		.type	_ZL8ULSR_RDR, %object
 1125              		.size	_ZL8ULSR_RDR, 4
 1126              	_ZL8ULSR_RDR:
 1127 0058 01000000 		.word	1
 1128              		.align	2
 1129              		.type	_ZL5SSEL1, %object
 1130              		.size	_ZL5SSEL1, 4
 1131              	_ZL5SSEL1:
 1132 005c 00001000 		.word	1048576
 1133              		.align	2
 1134              		.type	_ZL9SSPSR_TFE, %object
 1135              		.size	_ZL9SSPSR_TFE, 4
 1136              	_ZL9SSPSR_TFE:
 1137 0060 01000000 		.word	1
 1138              		.align	2
 1139              		.type	_ZL9SSPSR_TNF, %object
 1140              		.size	_ZL9SSPSR_TNF, 4
 1141              	_ZL9SSPSR_TNF:
 1142 0064 02000000 		.word	2
 1143              		.align	2
 1144              		.type	_ZL9SSPSR_RNE, %object
 1145              		.size	_ZL9SSPSR_RNE, 4
 1146              	_ZL9SSPSR_RNE:
 1147 0068 04000000 		.word	4
 1148              		.align	2
 1149              		.type	_ZL9SSPSR_BSY, %object
 1150              		.size	_ZL9SSPSR_BSY, 4
 1151              	_ZL9SSPSR_BSY:
 1152 006c 10000000 		.word	16
 1153              		.align	2
 1154              		.type	_ZL11SSPCR0_CPOL, %object
 1155              		.size	_ZL11SSPCR0_CPOL, 4
 1156              	_ZL11SSPCR0_CPOL:
 1157 0070 40000000 		.word	64
 1158              		.align	2
 1159              		.type	_ZL11SSPCR0_CPHA, %object
 1160              		.size	_ZL11SSPCR0_CPHA, 4
 1161              	_ZL11SSPCR0_CPHA:
 1162 0074 80000000 		.word	128
 1163              		.align	2
 1164              		.type	_ZL13I2CxCONCLR_AA, %object
 1165              		.size	_ZL13I2CxCONCLR_AA, 4
 1166              	_ZL13I2CxCONCLR_AA:
 1167 0078 04000000 		.word	4
 1168              		.align	2
 1169              		.type	_ZL13I2CxCONCLR_SI, %object
 1170              		.size	_ZL13I2CxCONCLR_SI, 4
 1171              	_ZL13I2CxCONCLR_SI:
 1172 007c 08000000 		.word	8
 1173              		.align	2
 1174              		.type	_ZL15I2CxCONCLR_STAC, %object
ARM GAS  /tmp/ccYngNjd.s 			page 27


 1175              		.size	_ZL15I2CxCONCLR_STAC, 4
 1176              	_ZL15I2CxCONCLR_STAC:
 1177 0080 20000000 		.word	32
 1178              		.align	2
 1179              		.type	_ZL16I2CxCONCLR_I2ENC, %object
 1180              		.size	_ZL16I2CxCONCLR_I2ENC, 4
 1181              	_ZL16I2CxCONCLR_I2ENC:
 1182 0084 40000000 		.word	64
 1183              		.align	2
 1184              		.type	_ZL13I2CxCONSET_AA, %object
 1185              		.size	_ZL13I2CxCONSET_AA, 4
 1186              	_ZL13I2CxCONSET_AA:
 1187 0088 04000000 		.word	4
 1188              		.align	2
 1189              		.type	_ZL13I2CxCONSET_SI, %object
 1190              		.size	_ZL13I2CxCONSET_SI, 4
 1191              	_ZL13I2CxCONSET_SI:
 1192 008c 08000000 		.word	8
 1193              		.align	2
 1194              		.type	_ZL14I2CxCONSET_STO, %object
 1195              		.size	_ZL14I2CxCONSET_STO, 4
 1196              	_ZL14I2CxCONSET_STO:
 1197 0090 10000000 		.word	16
 1198              		.align	2
 1199              		.type	_ZL14I2CxCONSET_STA, %object
 1200              		.size	_ZL14I2CxCONSET_STA, 4
 1201              	_ZL14I2CxCONSET_STA:
 1202 0094 20000000 		.word	32
 1203              		.align	2
 1204              		.type	_ZL15I2CxCONSET_I2EN, %object
 1205              		.size	_ZL15I2CxCONSET_I2EN, 4
 1206              	_ZL15I2CxCONSET_I2EN:
 1207 0098 40000000 		.word	64
 1208              		.align	2
 1209              		.type	_ZL20TxTCR_COUNTER_ENABLE, %object
 1210              		.size	_ZL20TxTCR_COUNTER_ENABLE, 4
 1211              	_ZL20TxTCR_COUNTER_ENABLE:
 1212 009c 01000000 		.word	1
 1213              		.align	2
 1214              		.type	_ZL19TxTCR_COUNTER_RESET, %object
 1215              		.size	_ZL19TxTCR_COUNTER_RESET, 4
 1216              	_ZL19TxTCR_COUNTER_RESET:
 1217 00a0 02000000 		.word	2
 1218              		.align	2
 1219              		.type	_ZL16TxMCR_INT_ON_MR0, %object
 1220              		.size	_ZL16TxMCR_INT_ON_MR0, 4
 1221              	_ZL16TxMCR_INT_ON_MR0:
 1222 00a4 01000000 		.word	1
 1223              		.align	2
 1224              		.type	_ZL18TxMCR_RESET_ON_MR0, %object
 1225              		.size	_ZL18TxMCR_RESET_ON_MR0, 4
 1226              	_ZL18TxMCR_RESET_ON_MR0:
 1227 00a8 02000000 		.word	2
 1228              		.align	2
 1229              		.type	_ZL13TxIR_MR0_FLAG, %object
 1230              		.size	_ZL13TxIR_MR0_FLAG, 4
 1231              	_ZL13TxIR_MR0_FLAG:
ARM GAS  /tmp/ccYngNjd.s 			page 28


 1232 00ac 01000000 		.word	1
 1233              		.align	2
 1234              		.type	_ZL13TxIR_MR1_FLAG, %object
 1235              		.size	_ZL13TxIR_MR1_FLAG, 4
 1236              	_ZL13TxIR_MR1_FLAG:
 1237 00b0 02000000 		.word	2
 1238              		.align	2
 1239              		.type	_ZL13TxIR_MR2_FLAG, %object
 1240              		.size	_ZL13TxIR_MR2_FLAG, 4
 1241              	_ZL13TxIR_MR2_FLAG:
 1242 00b4 04000000 		.word	4
 1243              		.align	2
 1244              		.type	_ZL13TxIR_MR3_FLAG, %object
 1245              		.size	_ZL13TxIR_MR3_FLAG, 4
 1246              	_ZL13TxIR_MR3_FLAG:
 1247 00b8 08000000 		.word	8
 1248              		.align	2
 1249              		.type	_ZL13TxIR_CR0_FLAG, %object
 1250              		.size	_ZL13TxIR_CR0_FLAG, 4
 1251              	_ZL13TxIR_CR0_FLAG:
 1252 00bc 10000000 		.word	16
 1253              		.align	2
 1254              		.type	_ZL13TxIR_CR1_FLAG, %object
 1255              		.size	_ZL13TxIR_CR1_FLAG, 4
 1256              	_ZL13TxIR_CR1_FLAG:
 1257 00c0 20000000 		.word	32
 1258              		.align	2
 1259              		.type	_ZL13TxIR_CR2_FLAG, %object
 1260              		.size	_ZL13TxIR_CR2_FLAG, 4
 1261              	_ZL13TxIR_CR2_FLAG:
 1262 00c4 40000000 		.word	64
 1263              		.align	2
 1264              		.type	_ZL13TxIR_CR3_FLAG, %object
 1265              		.size	_ZL13TxIR_CR3_FLAG, 4
 1266              	_ZL13TxIR_CR3_FLAG:
 1267 00c8 80000000 		.word	128
 1268              		.align	2
 1269              		.type	_ZL12TxCCR_CAP0RE, %object
 1270              		.size	_ZL12TxCCR_CAP0RE, 4
 1271              	_ZL12TxCCR_CAP0RE:
 1272 00cc 01000000 		.word	1
 1273              		.align	2
 1274              		.type	_ZL12TxCCR_CAP0FE, %object
 1275              		.size	_ZL12TxCCR_CAP0FE, 4
 1276              	_ZL12TxCCR_CAP0FE:
 1277 00d0 02000000 		.word	2
 1278              		.align	2
 1279              		.type	_ZL11TxCCR_CAP0I, %object
 1280              		.size	_ZL11TxCCR_CAP0I, 4
 1281              	_ZL11TxCCR_CAP0I:
 1282 00d4 04000000 		.word	4
 1283              		.align	2
 1284              		.type	_ZL12TxCCR_CAP1RE, %object
 1285              		.size	_ZL12TxCCR_CAP1RE, 4
 1286              	_ZL12TxCCR_CAP1RE:
 1287 00d8 08000000 		.word	8
 1288              		.align	2
ARM GAS  /tmp/ccYngNjd.s 			page 29


 1289              		.type	_ZL12TxCCR_CAP1FE, %object
 1290              		.size	_ZL12TxCCR_CAP1FE, 4
 1291              	_ZL12TxCCR_CAP1FE:
 1292 00dc 10000000 		.word	16
 1293              		.align	2
 1294              		.type	_ZL11TxCCR_CAP1I, %object
 1295              		.size	_ZL11TxCCR_CAP1I, 4
 1296              	_ZL11TxCCR_CAP1I:
 1297 00e0 20000000 		.word	32
 1298              		.align	2
 1299              		.type	_ZL12TxCCR_CAP2RE, %object
 1300              		.size	_ZL12TxCCR_CAP2RE, 4
 1301              	_ZL12TxCCR_CAP2RE:
 1302 00e4 40000000 		.word	64
 1303              		.align	2
 1304              		.type	_ZL12TxCCR_CAP2FE, %object
 1305              		.size	_ZL12TxCCR_CAP2FE, 4
 1306              	_ZL12TxCCR_CAP2FE:
 1307 00e8 80000000 		.word	128
 1308              		.align	2
 1309              		.type	_ZL11TxCCR_CAP2I, %object
 1310              		.size	_ZL11TxCCR_CAP2I, 4
 1311              	_ZL11TxCCR_CAP2I:
 1312 00ec 00010000 		.word	256
 1313              		.align	2
 1314              		.type	_ZL12TxCCR_CAP3RE, %object
 1315              		.size	_ZL12TxCCR_CAP3RE, 4
 1316              	_ZL12TxCCR_CAP3RE:
 1317 00f0 00020000 		.word	512
 1318              		.align	2
 1319              		.type	_ZL12TxCCR_CAP3FE, %object
 1320              		.size	_ZL12TxCCR_CAP3FE, 4
 1321              	_ZL12TxCCR_CAP3FE:
 1322 00f4 00040000 		.word	1024
 1323              		.align	2
 1324              		.type	_ZL11TxCCR_CAP3I, %object
 1325              		.size	_ZL11TxCCR_CAP3I, 4
 1326              	_ZL11TxCCR_CAP3I:
 1327 00f8 00080000 		.word	2048
 1328              		.align	2
 1329              		.type	_ZL9ADxCR_PDN, %object
 1330              		.size	_ZL9ADxCR_PDN, 4
 1331              	_ZL9ADxCR_PDN:
 1332 00fc 00002000 		.word	2097152
 1333              		.align	2
 1334              		.type	_ZL15ADxCR_START_NOW, %object
 1335              		.size	_ZL15ADxCR_START_NOW, 4
 1336              	_ZL15ADxCR_START_NOW:
 1337 0100 00000001 		.word	16777216
 1338              		.align	2
 1339              		.type	_ZL11ADxGDR_DONE, %object
 1340              		.size	_ZL11ADxGDR_DONE, 4
 1341              	_ZL11ADxGDR_DONE:
 1342 0104 00000080 		.word	-2147483648
 1343              		.align	2
 1344              		.type	_ZL7PWMMR0R, %object
 1345              		.size	_ZL7PWMMR0R, 4
ARM GAS  /tmp/ccYngNjd.s 			page 30


 1346              	_ZL7PWMMR0R:
 1347 0108 02000000 		.word	2
 1348              		.align	2
 1349              		.type	_ZL7LER0_EN, %object
 1350              		.size	_ZL7LER0_EN, 4
 1351              	_ZL7LER0_EN:
 1352 010c 01000000 		.word	1
 1353              		.align	2
 1354              		.type	_ZL7LER1_EN, %object
 1355              		.size	_ZL7LER1_EN, 4
 1356              	_ZL7LER1_EN:
 1357 0110 02000000 		.word	2
 1358              		.align	2
 1359              		.type	_ZL7LER2_EN, %object
 1360              		.size	_ZL7LER2_EN, 4
 1361              	_ZL7LER2_EN:
 1362 0114 04000000 		.word	4
 1363              		.align	2
 1364              		.type	_ZL7LER3_EN, %object
 1365              		.size	_ZL7LER3_EN, 4
 1366              	_ZL7LER3_EN:
 1367 0118 08000000 		.word	8
 1368              		.align	2
 1369              		.type	_ZL7LER4_EN, %object
 1370              		.size	_ZL7LER4_EN, 4
 1371              	_ZL7LER4_EN:
 1372 011c 10000000 		.word	16
 1373              		.align	2
 1374              		.type	_ZL7LER5_EN, %object
 1375              		.size	_ZL7LER5_EN, 4
 1376              	_ZL7LER5_EN:
 1377 0120 20000000 		.word	32
 1378              		.align	2
 1379              		.type	_ZL7LER6_EN, %object
 1380              		.size	_ZL7LER6_EN, 4
 1381              	_ZL7LER6_EN:
 1382 0124 40000000 		.word	64
 1383              		.align	2
 1384              		.type	_ZL7PWMENA1, %object
 1385              		.size	_ZL7PWMENA1, 4
 1386              	_ZL7PWMENA1:
 1387 0128 00020000 		.word	512
 1388              		.align	2
 1389              		.type	_ZL7PWMENA2, %object
 1390              		.size	_ZL7PWMENA2, 4
 1391              	_ZL7PWMENA2:
 1392 012c 00040000 		.word	1024
 1393              		.align	2
 1394              		.type	_ZL7PWMENA3, %object
 1395              		.size	_ZL7PWMENA3, 4
 1396              	_ZL7PWMENA3:
 1397 0130 00080000 		.word	2048
 1398              		.align	2
 1399              		.type	_ZL7PWMENA4, %object
 1400              		.size	_ZL7PWMENA4, 4
 1401              	_ZL7PWMENA4:
 1402 0134 00100000 		.word	4096
ARM GAS  /tmp/ccYngNjd.s 			page 31


 1403              		.align	2
 1404              		.type	_ZL7PWMENA5, %object
 1405              		.size	_ZL7PWMENA5, 4
 1406              	_ZL7PWMENA5:
 1407 0138 00200000 		.word	8192
 1408              		.align	2
 1409              		.type	_ZL7PWMENA6, %object
 1410              		.size	_ZL7PWMENA6, 4
 1411              	_ZL7PWMENA6:
 1412 013c 00400000 		.word	16384
 1413              		.align	2
 1414              		.type	_ZL21PWMTCR_COUNTER_ENABLE, %object
 1415              		.size	_ZL21PWMTCR_COUNTER_ENABLE, 4
 1416              	_ZL21PWMTCR_COUNTER_ENABLE:
 1417 0140 01000000 		.word	1
 1418              		.align	2
 1419              		.type	_ZL12PWMTCR_RESET, %object
 1420              		.size	_ZL12PWMTCR_RESET, 4
 1421              	_ZL12PWMTCR_RESET:
 1422 0144 02000000 		.word	2
 1423              		.align	2
 1424              		.type	_ZL17PWMTCR_PWM_ENABLE, %object
 1425              		.size	_ZL17PWMTCR_PWM_ENABLE, 4
 1426              	_ZL17PWMTCR_PWM_ENABLE:
 1427 0148 08000000 		.word	8
 1428              		.align	2
 1429              		.type	_ZL10WDMOD_WDEN, %object
 1430              		.size	_ZL10WDMOD_WDEN, 4
 1431              	_ZL10WDMOD_WDEN:
 1432 014c 01000000 		.word	1
 1433              		.align	2
 1434              		.type	_ZL13WDMOD_WDRESET, %object
 1435              		.size	_ZL13WDMOD_WDRESET, 4
 1436              	_ZL13WDMOD_WDRESET:
 1437 0150 02000000 		.word	2
 1438              		.align	2
 1439              		.type	_ZL27HID_MESSAGE_ID_SYSTEM_DEBUG, %object
 1440              		.size	_ZL27HID_MESSAGE_ID_SYSTEM_DEBUG, 4
 1441              	_ZL27HID_MESSAGE_ID_SYSTEM_DEBUG:
 1442 0154 C0000000 		.word	192
 1443              		.section	.text._GLOBAL__I__ZN3Log11GetInstanceEv,"ax",%progbits
 1444              		.align	2
 1445              		.type	_GLOBAL__I__ZN3Log11GetInstanceEv, %function
 1446              	_GLOBAL__I__ZN3Log11GetInstanceEv:
 1447              	.LFB126:
 1448              		.loc 1 283 0
 1449              		.cfi_startproc
 1450              		@ Function supports interworking.
 1451              		@ args = 0, pretend = 0, frame = 0
 1452              		@ frame_needed = 0, uses_anonymous_args = 0
 1453 0000 08402DE9 		stmfd	sp!, {r3, lr}	@,
 1454              	.LCFI24:
 1455              		.cfi_def_cfa_offset 8
 1456              		.loc 1 283 0
 1457 0004 0100A0E3 		mov	r0, #1	@,
 1458 0008 08109FE5 		ldr	r1, .L53	@,
 1459              		.cfi_offset 14, -4
ARM GAS  /tmp/ccYngNjd.s 			page 32


 1460              		.cfi_offset 3, -8
 1461 000c FEFFFFEB 		bl	_Z41__static_initialization_and_destruction_0ii	@
 1462 0010 0840BDE8 		ldmfd	sp!, {r3, lr}
 1463 0014 1EFF2FE1 		bx	lr
 1464              	.L54:
 1465              		.align	2
 1466              	.L53:
 1467 0018 FFFF0000 		.word	65535
 1468              		.cfi_endproc
 1469              	.LFE126:
 1470              		.size	_GLOBAL__I__ZN3Log11GetInstanceEv, .-_GLOBAL__I__ZN3Log11GetInstanceEv
 1471              		.section	.init_array,"aw",%init_array
 1472              		.align	2
 1473 0000 00000000 		.word	_GLOBAL__I__ZN3Log11GetInstanceEv(target1)
 1474              		.text
 1475              	.Letext0: