ARM GAS  /tmp/cc2q7bJm.s 			page 1


   1              		.cpu arm7tdmi
   2              		.fpu softvfp
   3              		.eabi_attribute 20, 1
   4              		.eabi_attribute 21, 1
   5              		.eabi_attribute 23, 3
   6              		.eabi_attribute 24, 1
   7              		.eabi_attribute 25, 1
   8              		.eabi_attribute 26, 1
   9              		.eabi_attribute 30, 6
  10              		.eabi_attribute 18, 4
  11              		.file	"rootdir.cpp"
  12              	@ GNU C++ (Sourcery G++ Lite 2011.03-42) version 4.5.2 (arm-none-eabi)
  13              	@	compiled by GNU C version 4.3.2, GMP version 4.3.2, MPFR version 2.4.2, MPC version 0.8.1
  14              	@ GGC heuristics: --param ggc-min-expand=100 --param ggc-min-heapsize=131072
  15              	@ options passed:  -I . -I../arm/arm7lib -iprefix
  16              	@ /home/elijah/CodeSourcery/Sourcery_G++_Lite/bin/../lib/gcc/arm-none-eabi/4.5.2/
  17              	@ -isysroot
  18              	@ /home/elijah/CodeSourcery/Sourcery_G++_Lite/bin/../arm-none-eabi -MD
  19              	@ rootdir.d -MF .dep/rootdir.o.d -MP -MQ rootdir.o -D__USES_INITFINI__
  20              	@ -D__CS_SOURCERYGXX_MAJ__=2011 -D__CS_SOURCERYGXX_MIN__=3
  21              	@ -D__CS_SOURCERYGXX_REV__=42 rootdir.cpp -mcpu=arm7tdmi -auxbase-strip
  22              	@ rootdir.o -gdwarf-2 -O0 -Wall -fno-rtti -fno-exceptions
  23              	@ -fomit-frame-pointer -ffunction-sections -fverbose-asm
  24              	@ options enabled:  -falign-loops -fargument-alias -fauto-inc-dec
  25              	@ -fbranch-count-reg -fcommon -fdelete-null-pointer-checks -fdwarf2-cfi-asm
  26              	@ -fearly-inlining -feliminate-unused-debug-types -ffunction-cse
  27              	@ -ffunction-sections -fgcse-lm -fident -finline-functions-called-once
  28              	@ -fira-share-save-slots -fira-share-spill-slots -fivopts
  29              	@ -fkeep-static-consts -fleading-underscore -fmath-errno
  30              	@ -fmerge-debug-strings -fmove-loop-invariants -fomit-frame-pointer
  31              	@ -fpeephole -fpromote-loop-indices -freg-struct-return
  32              	@ -fsched-critical-path-heuristic -fsched-dep-count-heuristic
  33              	@ -fsched-group-heuristic -fsched-interblock -fsched-last-insn-heuristic
  34              	@ -fsched-rank-heuristic -fsched-spec -fsched-spec-insn-heuristic
  35              	@ -fsched-stalled-insns-dep -fshow-column -fsigned-zeros
  36              	@ -fsplit-ivs-in-unroller -fstrict-volatile-bitfields -ftrapping-math
  37              	@ -ftree-cselim -ftree-forwprop -ftree-loop-im -ftree-loop-ivcanon
  38              	@ -ftree-loop-optimize -ftree-parallelize-loops= -ftree-phiprop -ftree-pta
  39              	@ -ftree-reassoc -ftree-scev-cprop -ftree-slp-vectorize
  40              	@ -ftree-vect-loop-version -funit-at-a-time -fverbose-asm
  41              	@ -fzero-initialized-in-bss -mlittle-endian -msched-prolog
  42              	@ -mthumb-interwork
  43              	
  50 0000 CB040000 		.text
  50      0200AD03 
  50      00000201 
  50      FB0E0D00 
  50      01010101 
  51              	.Ltext0:
  52              	@ Compiler executable checksum: cfdaeede3ac8e9b2b599068efabc405c
  53              	
ARM GAS  /tmp/cc2q7bJm.s 			page 2


  54              		.cfi_sections	.debug_frame
  55              		.global	dir_entry
  56              		.bss
  57              		.align	2
  58              		.type	dir_entry, %object
  59              		.size	dir_entry, 44
  60              	dir_entry:
  61 0000 00000000 		.space	44
  61      00000000 
  61      00000000 
  61      00000000 
  61      00000000 
  62              		.global	fs
  63              		.align	2
  64              		.type	fs, %object
  65              		.size	fs, 4
  66              	fs:
  67 002c 00000000 		.space	4
  68              		.global	partition
  69              		.align	2
  70              		.type	partition, %object
  71              		.size	partition, 4
  72              	partition:
  73 0030 00000000 		.space	4
  74              		.global	dd
  75              		.align	2
  76              		.type	dd, %object
  77              		.size	dd, 4
  78              	dd:
  79 0034 00000000 		.space	4
  80              		.global	fd
  81              		.align	2
  82              		.type	fd, %object
  83              		.size	fd, 4
  84              	fd:
  85 0038 00000000 		.space	4
  86              		.section	.rodata
  87              		.align	2
  88              	.LC0:
  89 0000 6F70656E 		.ascii	"opening partition failed\012\015\000"
  89      696E6720 
  89      70617274 
  89      6974696F 
  89      6E206661 
  90 001b 00       		.align	2
  91              	.LC1:
  92 001c 6F70656E 		.ascii	"opening filesystem failed\012\015\000"
  92      696E6720 
  92      66696C65 
  92      73797374 
  92      656D2066 
  93              		.align	2
  94              	.LC2:
  95 0038 2F00     		.ascii	"/\000"
  96 003a 0000     		.align	2
  97              	.LC3:
  98 003c 6F70656E 		.ascii	"opening root directory failed\012\015\000"
ARM GAS  /tmp/cc2q7bJm.s 			page 3


  98      696E6720 
  98      726F6F74 
  98      20646972 
  98      6563746F 
  99              		.section	.text._Z8openrootv,"ax",%progbits
 100              		.align	2
 101              		.global	_Z8openrootv
 102              		.type	_Z8openrootv, %function
 103              	_Z8openrootv:
 104              	.LFB109:
 105              		.file 1 "rootdir.cpp"
   1:rootdir.cpp   **** #include "main.h"
   2:rootdir.cpp   **** 
   3:rootdir.cpp   **** struct fat16_dir_entry_struct dir_entry;
   4:rootdir.cpp   **** struct fat16_fs_struct* fs;
   5:rootdir.cpp   **** struct partition_struct* partition;
   6:rootdir.cpp   **** struct fat16_dir_struct* dd;
   7:rootdir.cpp   **** struct fat16_file_struct * fd;
   8:rootdir.cpp   **** 
   9:rootdir.cpp   **** int openroot(void)
  10:rootdir.cpp   **** {
 106              		.loc 1 10 0
 107              		.cfi_startproc
 108              		@ Function supports interworking.
 109              		@ args = 0, pretend = 0, frame = 8
 110              		@ frame_needed = 0, uses_anonymous_args = 0
 111 0000 04E02DE5 		str	lr, [sp, #-4]!	@,
 112              	.LCFI0:
 113              		.cfi_def_cfa_offset 4
 114 0004 0CD04DE2 		sub	sp, sp, #12	@,,
 115              	.LCFI1:
 116              		.cfi_def_cfa_offset 16
 117              	.LBB2:
  11:rootdir.cpp   **** 	UART0 * uart = UART0::GetInstance();
 118              		.loc 1 11 0
 119              		.cfi_offset 14, -4
 120 0008 FEFFFFEB 		bl	_ZN5UART011GetInstanceEv	@
 121 000c 04008DE5 		str	r0, [sp, #4]	@, uart
  12:rootdir.cpp   ****     /* open first partition */
  13:rootdir.cpp   ****     partition = partition_open((device_read_t) sd_raw_read,
  14:rootdir.cpp   ****                                (device_read_interval_t) sd_raw_read_interval,
  15:rootdir.cpp   ****                                (device_write_t) sd_raw_write,
  16:rootdir.cpp   ****                                0);
 122              		.loc 1 16 0
 123 0010 1C019FE5 		ldr	r0, .L6	@,
 124 0014 1C119FE5 		ldr	r1, .L6+4	@,
 125 0018 1C219FE5 		ldr	r2, .L6+8	@,
 126 001c 0030A0E3 		mov	r3, #0	@,
 127 0020 FEFFFFEB 		bl	_Z14partition_openPFhmPhtEPFhmS_ttPFhS_mPvES2_EPFhmPKhtEa	@
 128 0024 0020A0E1 		mov	r2, r0	@ partition.29,
 129 0028 10319FE5 		ldr	r3, .L6+12	@ tmp146,
 130 002c 002083E5 		str	r2, [r3, #0]	@ partition.29, partition
  17:rootdir.cpp   **** 
  18:rootdir.cpp   ****     if(!partition)
 131              		.loc 1 18 0
 132 0030 08319FE5 		ldr	r3, .L6+12	@ tmp147,
 133 0034 003093E5 		ldr	r3, [r3, #0]	@ partition.30, partition
ARM GAS  /tmp/cc2q7bJm.s 			page 4


 134 0038 000053E3 		cmp	r3, #0	@ partition.30,
 135 003c 1000001A 		bne	.L2	@,
  19:rootdir.cpp   ****     {
  20:rootdir.cpp   ****         /* If the partition did not open, assume the storage device
  21:rootdir.cpp   ****              *      * is a "superfloppy", i.e. has no MBR.
  22:rootdir.cpp   ****              *           */
  23:rootdir.cpp   ****         partition = partition_open((device_read_t) sd_raw_read,
  24:rootdir.cpp   ****                                    (device_read_interval_t) sd_raw_read_interval,
  25:rootdir.cpp   ****                                    (device_write_t) sd_raw_write,
  26:rootdir.cpp   ****                                    -1);
 136              		.loc 1 26 0
 137 0040 EC009FE5 		ldr	r0, .L6	@,
 138 0044 EC109FE5 		ldr	r1, .L6+4	@,
 139 0048 EC209FE5 		ldr	r2, .L6+8	@,
 140 004c 0030E0E3 		mvn	r3, #0	@,
 141 0050 FEFFFFEB 		bl	_Z14partition_openPFhmPhtEPFhmS_ttPFhS_mPvES2_EPFhmPKhtEa	@
 142 0054 0020A0E1 		mov	r2, r0	@ partition.31,
 143 0058 E0309FE5 		ldr	r3, .L6+12	@ tmp148,
 144 005c 002083E5 		str	r2, [r3, #0]	@ partition.31, partition
  27:rootdir.cpp   ****         if(!partition)
 145              		.loc 1 27 0
 146 0060 D8309FE5 		ldr	r3, .L6+12	@ tmp149,
 147 0064 003093E5 		ldr	r3, [r3, #0]	@ partition.32, partition
 148 0068 000053E3 		cmp	r3, #0	@ partition.32,
 149 006c 0400001A 		bne	.L2	@,
  28:rootdir.cpp   ****         {
  29:rootdir.cpp   ****             uart->WriteLine("opening partition failed\n\r");
 150              		.loc 1 29 0
 151 0070 04009DE5 		ldr	r0, [sp, #4]	@, uart
 152 0074 C8109FE5 		ldr	r1, .L6+16	@,
 153 0078 FEFFFFEB 		bl	_ZN5UART09WriteLineEPKcz	@
  30:rootdir.cpp   ****             return 1;
 154              		.loc 1 30 0
 155 007c 0130A0E3 		mov	r3, #1	@ D.10520,
 156 0080 270000EA 		b	.L3	@
 157              	.L2:
  31:rootdir.cpp   ****         }
  32:rootdir.cpp   ****     }
  33:rootdir.cpp   **** 
  34:rootdir.cpp   ****     /* open file system */
  35:rootdir.cpp   ****     fs = fat16_open(partition);
 158              		.loc 1 35 0
 159 0084 B4309FE5 		ldr	r3, .L6+12	@ tmp150,
 160 0088 003093E5 		ldr	r3, [r3, #0]	@ partition.33, partition
 161 008c 0300A0E1 		mov	r0, r3	@, partition.33
 162 0090 FEFFFFEB 		bl	_Z10fat16_openP16partition_struct	@
 163 0094 0020A0E1 		mov	r2, r0	@ fs.34,
 164 0098 A8309FE5 		ldr	r3, .L6+20	@ tmp151,
 165 009c 002083E5 		str	r2, [r3, #0]	@ fs.34, fs
  36:rootdir.cpp   ****     if(!fs)
 166              		.loc 1 36 0
 167 00a0 A0309FE5 		ldr	r3, .L6+20	@ tmp152,
 168 00a4 003093E5 		ldr	r3, [r3, #0]	@ fs.35, fs
 169 00a8 000053E3 		cmp	r3, #0	@ fs.35,
 170 00ac 0400001A 		bne	.L4	@,
  37:rootdir.cpp   ****     {
  38:rootdir.cpp   ****     	uart->WriteLine("opening filesystem failed\n\r");
ARM GAS  /tmp/cc2q7bJm.s 			page 5


 171              		.loc 1 38 0
 172 00b0 04009DE5 		ldr	r0, [sp, #4]	@, uart
 173 00b4 90109FE5 		ldr	r1, .L6+24	@,
 174 00b8 FEFFFFEB 		bl	_ZN5UART09WriteLineEPKcz	@
  39:rootdir.cpp   ****         return 1;
 175              		.loc 1 39 0
 176 00bc 0130A0E3 		mov	r3, #1	@ D.10520,
 177 00c0 170000EA 		b	.L3	@
 178              	.L4:
  40:rootdir.cpp   ****     }
  41:rootdir.cpp   **** 
  42:rootdir.cpp   ****     /* open root directory */
  43:rootdir.cpp   ****     fat16_get_dir_entry_of_path(fs, "/", &dir_entry);
 179              		.loc 1 43 0
 180 00c4 7C309FE5 		ldr	r3, .L6+20	@ tmp153,
 181 00c8 003093E5 		ldr	r3, [r3, #0]	@ fs.36, fs
 182 00cc 0300A0E1 		mov	r0, r3	@, fs.36
 183 00d0 78109FE5 		ldr	r1, .L6+28	@,
 184 00d4 78209FE5 		ldr	r2, .L6+32	@,
 185 00d8 FEFFFFEB 		bl	_Z27fat16_get_dir_entry_of_pathP15fat16_fs_structPKcP22fat16_dir_entry_struct	@
  44:rootdir.cpp   **** 
  45:rootdir.cpp   ****     dd = fat16_open_dir(fs, &dir_entry);
 186              		.loc 1 45 0
 187 00dc 64309FE5 		ldr	r3, .L6+20	@ tmp154,
 188 00e0 003093E5 		ldr	r3, [r3, #0]	@ fs.37, fs
 189 00e4 0300A0E1 		mov	r0, r3	@, fs.37
 190 00e8 64109FE5 		ldr	r1, .L6+32	@,
 191 00ec FEFFFFEB 		bl	_Z14fat16_open_dirP15fat16_fs_structPK22fat16_dir_entry_struct	@
 192 00f0 0020A0E1 		mov	r2, r0	@ dd.38,
 193 00f4 5C309FE5 		ldr	r3, .L6+36	@ tmp155,
 194 00f8 002083E5 		str	r2, [r3, #0]	@ dd.38, dd
  46:rootdir.cpp   ****     if(!dd)
 195              		.loc 1 46 0
 196 00fc 54309FE5 		ldr	r3, .L6+36	@ tmp156,
 197 0100 003093E5 		ldr	r3, [r3, #0]	@ dd.39, dd
 198 0104 000053E3 		cmp	r3, #0	@ dd.39,
 199 0108 0400001A 		bne	.L5	@,
  47:rootdir.cpp   ****     {
  48:rootdir.cpp   ****     	uart->WriteLine("opening root directory failed\n\r");
 200              		.loc 1 48 0
 201 010c 04009DE5 		ldr	r0, [sp, #4]	@, uart
 202 0110 44109FE5 		ldr	r1, .L6+40	@,
 203 0114 FEFFFFEB 		bl	_ZN5UART09WriteLineEPKcz	@
  49:rootdir.cpp   ****         return 1;
 204              		.loc 1 49 0
 205 0118 0130A0E3 		mov	r3, #1	@ D.10520,
 206 011c 000000EA 		b	.L3	@
 207              	.L5:
  50:rootdir.cpp   ****     }
  51:rootdir.cpp   ****     return 0;
 208              		.loc 1 51 0
 209 0120 0030A0E3 		mov	r3, #0	@ D.10520,
 210              	.L3:
 211              	.LBE2:
  52:rootdir.cpp   **** }
 212              		.loc 1 52 0
 213 0124 0300A0E1 		mov	r0, r3	@, <retval>
ARM GAS  /tmp/cc2q7bJm.s 			page 6


 214 0128 0CD08DE2 		add	sp, sp, #12	@,,
 215 012c 04E09DE4 		ldr	lr, [sp], #4
 216 0130 1EFF2FE1 		bx	lr
 217              	.L7:
 218              		.align	2
 219              	.L6:
 220 0134 00000000 		.word	_Z11sd_raw_readjPht
 221 0138 00000000 		.word	_Z20sd_raw_read_intervaljPhttPFhS_jPvES0_
 222 013c 00000000 		.word	_Z12sd_raw_writejPKht
 223 0140 00000000 		.word	partition
 224 0144 00000000 		.word	.LC0
 225 0148 00000000 		.word	fs
 226 014c 1C000000 		.word	.LC1
 227 0150 38000000 		.word	.LC2
 228 0154 00000000 		.word	dir_entry
 229 0158 00000000 		.word	dd
 230 015c 3C000000 		.word	.LC3
 231              		.cfi_endproc
 232              	.LFE109:
 233              		.size	_Z8openrootv, .-_Z8openrootv
 234              		.section	.text._Z16root_file_existsPc,"ax",%progbits
 235              		.align	2
 236              		.global	_Z16root_file_existsPc
 237              		.type	_Z16root_file_existsPc, %function
 238              	_Z16root_file_existsPc:
 239              	.LFB110:
  53:rootdir.cpp   **** 
  54:rootdir.cpp   **** /* returns 1 if file exists, 0 else */
  55:rootdir.cpp   **** int root_file_exists(char* name)
  56:rootdir.cpp   **** {
 240              		.loc 1 56 0
 241              		.cfi_startproc
 242              		@ Function supports interworking.
 243              		@ args = 0, pretend = 0, frame = 8
 244              		@ frame_needed = 0, uses_anonymous_args = 0
 245 0000 04E02DE5 		str	lr, [sp, #-4]!	@,
 246              	.LCFI2:
 247              		.cfi_def_cfa_offset 4
 248 0004 0CD04DE2 		sub	sp, sp, #12	@,,
 249              	.LCFI3:
 250              		.cfi_def_cfa_offset 16
 251 0008 04008DE5 		str	r0, [sp, #4]	@ name, name
  57:rootdir.cpp   ****     return(find_file_in_dir(fs,dd,name,&dir_entry));
 252              		.loc 1 57 0
 253 000c 30309FE5 		ldr	r3, .L9	@ tmp138,
 254 0010 002093E5 		ldr	r2, [r3, #0]	@ fs.27, fs
 255 0014 2C309FE5 		ldr	r3, .L9+4	@ tmp139,
 256 0018 003093E5 		ldr	r3, [r3, #0]	@ dd.28, dd
 257 001c 0200A0E1 		mov	r0, r2	@, fs.27
 258 0020 0310A0E1 		mov	r1, r3	@, dd.28
 259 0024 04209DE5 		ldr	r2, [sp, #4]	@, name
 260 0028 1C309FE5 		ldr	r3, .L9+8	@,
 261              		.cfi_offset 14, -4
 262 002c FEFFFFEB 		bl	_Z16find_file_in_dirP15fat16_fs_structP16fat16_dir_structPKcP22fat16_dir_entry_struct	@
 263 0030 0030A0E1 		mov	r3, r0	@ tmp140,
  58:rootdir.cpp   **** }
 264              		.loc 1 58 0
ARM GAS  /tmp/cc2q7bJm.s 			page 7


 265 0034 0300A0E1 		mov	r0, r3	@, <retval>
 266 0038 0CD08DE2 		add	sp, sp, #12	@,,
 267 003c 04E09DE4 		ldr	lr, [sp], #4
 268 0040 1EFF2FE1 		bx	lr
 269              	.L10:
 270              		.align	2
 271              	.L9:
 272 0044 00000000 		.word	fs
 273 0048 00000000 		.word	dd
 274 004c 00000000 		.word	dir_entry
 275              		.cfi_endproc
 276              	.LFE110:
 277              		.size	_Z16root_file_existsPc, .-_Z16root_file_existsPc
 278              		.section	.text._Z13root_open_newPc,"ax",%progbits
 279              		.align	2
 280              		.global	_Z13root_open_newPc
 281              		.type	_Z13root_open_newPc, %function
 282              	_Z13root_open_newPc:
 283              	.LFB111:
  59:rootdir.cpp   **** 
  60:rootdir.cpp   **** /* returns NULL if error, pointer if file opened */
  61:rootdir.cpp   **** struct fat16_file_struct * root_open_new(char* name)
  62:rootdir.cpp   **** {
 284              		.loc 1 62 0
 285              		.cfi_startproc
 286              		@ Function supports interworking.
 287              		@ args = 0, pretend = 0, frame = 8
 288              		@ frame_needed = 0, uses_anonymous_args = 0
 289 0000 04E02DE5 		str	lr, [sp, #-4]!	@,
 290              	.LCFI4:
 291              		.cfi_def_cfa_offset 4
 292 0004 0CD04DE2 		sub	sp, sp, #12	@,,
 293              	.LCFI5:
 294              		.cfi_def_cfa_offset 16
 295 0008 04008DE5 		str	r0, [sp, #4]	@ name, name
  63:rootdir.cpp   ****     if(fat16_create_file(dd,name,&dir_entry))
 296              		.loc 1 63 0
 297 000c 68309FE5 		ldr	r3, .L14	@ tmp140,
 298 0010 003093E5 		ldr	r3, [r3, #0]	@ dd.24, dd
 299 0014 0300A0E1 		mov	r0, r3	@, dd.24
 300 0018 04109DE5 		ldr	r1, [sp, #4]	@, name
 301 001c 5C209FE5 		ldr	r2, .L14+4	@,
 302              		.cfi_offset 14, -4
 303 0020 FEFFFFEB 		bl	_Z17fat16_create_fileP16fat16_dir_structPKcP22fat16_dir_entry_struct	@
 304 0024 0030A0E1 		mov	r3, r0	@ tmp141,
 305 0028 000053E3 		cmp	r3, #0	@ D.10500,
 306 002c 0030A003 		moveq	r3, #0	@, tmp143
 307 0030 0130A013 		movne	r3, #1	@, tmp143
 308 0034 FF3003E2 		and	r3, r3, #255	@ retval.23, tmp142,
 309 0038 000053E3 		cmp	r3, #0	@ retval.23,
 310 003c 0900000A 		beq	.L12	@,
  64:rootdir.cpp   ****     {
  65:rootdir.cpp   ****         return(open_file_in_dir(fs,dd,name));
 311              		.loc 1 65 0
 312 0040 3C309FE5 		ldr	r3, .L14+8	@ tmp144,
 313 0044 002093E5 		ldr	r2, [r3, #0]	@ fs.25, fs
 314 0048 2C309FE5 		ldr	r3, .L14	@ tmp145,
ARM GAS  /tmp/cc2q7bJm.s 			page 8


 315 004c 003093E5 		ldr	r3, [r3, #0]	@ dd.26, dd
 316 0050 0200A0E1 		mov	r0, r2	@, fs.25
 317 0054 0310A0E1 		mov	r1, r3	@, dd.26
 318 0058 04209DE5 		ldr	r2, [sp, #4]	@, name
 319 005c FEFFFFEB 		bl	_Z16open_file_in_dirP15fat16_fs_structP16fat16_dir_structPKc	@
 320 0060 0030A0E1 		mov	r3, r0	@ D.10503,
 321 0064 000000EA 		b	.L13	@
 322              	.L12:
  66:rootdir.cpp   ****     }
  67:rootdir.cpp   ****     else
  68:rootdir.cpp   ****     {
  69:rootdir.cpp   ****         return NULL;
 323              		.loc 1 69 0
 324 0068 0030A0E3 		mov	r3, #0	@ D.10503,
 325              	.L13:
  70:rootdir.cpp   ****     }
  71:rootdir.cpp   **** }
 326              		.loc 1 71 0
 327 006c 0300A0E1 		mov	r0, r3	@, <retval>
 328 0070 0CD08DE2 		add	sp, sp, #12	@,,
 329 0074 04E09DE4 		ldr	lr, [sp], #4
 330 0078 1EFF2FE1 		bx	lr
 331              	.L15:
 332              		.align	2
 333              	.L14:
 334 007c 00000000 		.word	dd
 335 0080 00000000 		.word	dir_entry
 336 0084 00000000 		.word	fs
 337              		.cfi_endproc
 338              	.LFE111:
 339              		.size	_Z13root_open_newPc, .-_Z13root_open_newPc
 340              		.section	.text._Z9root_openPc,"ax",%progbits
 341              		.align	2
 342              		.global	_Z9root_openPc
 343              		.type	_Z9root_openPc, %function
 344              	_Z9root_openPc:
 345              	.LFB112:
  72:rootdir.cpp   **** 
  73:rootdir.cpp   **** struct fat16_file_struct * root_open(char* name)
  74:rootdir.cpp   **** {
 346              		.loc 1 74 0
 347              		.cfi_startproc
 348              		@ Function supports interworking.
 349              		@ args = 0, pretend = 0, frame = 8
 350              		@ frame_needed = 0, uses_anonymous_args = 0
 351 0000 04E02DE5 		str	lr, [sp, #-4]!	@,
 352              	.LCFI6:
 353              		.cfi_def_cfa_offset 4
 354 0004 0CD04DE2 		sub	sp, sp, #12	@,,
 355              	.LCFI7:
 356              		.cfi_def_cfa_offset 16
 357 0008 04008DE5 		str	r0, [sp, #4]	@ name, name
  75:rootdir.cpp   ****     return(open_file_in_dir(fs,dd,name));
 358              		.loc 1 75 0
 359 000c 2C309FE5 		ldr	r3, .L17	@ tmp137,
 360 0010 002093E5 		ldr	r2, [r3, #0]	@ fs.21, fs
 361 0014 28309FE5 		ldr	r3, .L17+4	@ tmp138,
ARM GAS  /tmp/cc2q7bJm.s 			page 9


 362 0018 003093E5 		ldr	r3, [r3, #0]	@ dd.22, dd
 363 001c 0200A0E1 		mov	r0, r2	@, fs.21
 364 0020 0310A0E1 		mov	r1, r3	@, dd.22
 365 0024 04209DE5 		ldr	r2, [sp, #4]	@, name
 366              		.cfi_offset 14, -4
 367 0028 FEFFFFEB 		bl	_Z16open_file_in_dirP15fat16_fs_structP16fat16_dir_structPKc	@
 368 002c 0030A0E1 		mov	r3, r0	@ D.10494,
  76:rootdir.cpp   **** }
 369              		.loc 1 76 0
 370 0030 0300A0E1 		mov	r0, r3	@, <retval>
 371 0034 0CD08DE2 		add	sp, sp, #12	@,,
 372 0038 04E09DE4 		ldr	lr, [sp], #4
 373 003c 1EFF2FE1 		bx	lr
 374              	.L18:
 375              		.align	2
 376              	.L17:
 377 0040 00000000 		.word	fs
 378 0044 00000000 		.word	dd
 379              		.cfi_endproc
 380              	.LFE112:
 381              		.size	_Z9root_openPc, .-_Z9root_openPc
 382              		.section	.rodata
 383              		.align	2
 384              	.LC4:
 385 005c 6D616E75 		.ascii	"manuf:  0x%02x\012\015\000"
 385      663A2020 
 385      30782530 
 385      32780A0D 
 385      00
 386 006d 000000   		.align	2
 387              	.LC5:
 388 0070 6F656D3A 		.ascii	"oem:    %s\012\015\000"
 388      20202020 
 388      25730A0D 
 388      00
 389 007d 000000   		.align	2
 390              	.LC6:
 391 0080 70726F64 		.ascii	"prod:   %s\012\015\000"
 391      3A202020 
 391      25730A0D 
 391      00
 392 008d 000000   		.align	2
 393              	.LC7:
 394 0090 7265763A 		.ascii	"rev:    %02x\012\015\000"
 394      20202020 
 394      25303278 
 394      0A0D00
 395 009f 00       		.align	2
 396              	.LC8:
 397 00a0 73657269 		.ascii	"serial: 0x%08lx\012\015\000"
 397      616C3A20 
 397      30782530 
 397      386C780A 
 397      0D00
 398 00b2 0000     		.align	2
 399              	.LC9:
 400 00b4 64617465 		.ascii	"date:   %02d/%02d\012\015\000"
ARM GAS  /tmp/cc2q7bJm.s 			page 10


 400      3A202020 
 400      25303264 
 400      2F253032 
 400      640A0D00 
 401              		.align	2
 402              	.LC10:
 403 00c8 73697A65 		.ascii	"size:   %ld\012\015\000"
 403      3A202020 
 403      256C640A 
 403      0D00
 404 00d6 0000     		.align	2
 405              	.LC11:
 406 00d8 636F7079 		.ascii	"copy:   %d\012\015\000"
 406      3A202020 
 406      25640A0D 
 406      00
 407 00e5 000000   		.align	2
 408              	.LC12:
 409 00e8 77722E70 		.ascii	"wr.pr.: %d/%d\012\015\000"
 409      722E3A20 
 409      25642F25 
 409      640A0D00 
 410              		.align	2
 411              	.LC13:
 412 00f8 666F726D 		.ascii	"format: %d\012\015\000"
 412      61743A20 
 412      25640A0D 
 412      00
 413 0105 000000   		.align	2
 414              	.LC14:
 415 0108 66726565 		.ascii	"free:   %ld/%ld\012\015\000"
 415      3A202020 
 415      256C642F 
 415      256C640A 
 415      0D00
 416              		.section	.text._Z15print_disk_infoPK15fat16_fs_struct,"ax",%progbits
 417              		.align	2
 418              		.global	_Z15print_disk_infoPK15fat16_fs_struct
 419              		.type	_Z15print_disk_infoPK15fat16_fs_struct, %function
 420              	_Z15print_disk_infoPK15fat16_fs_struct:
 421              	.LFB113:
  77:rootdir.cpp   **** 
  78:rootdir.cpp   **** uint8_t print_disk_info(const struct fat16_fs_struct* disk_fs)
  79:rootdir.cpp   **** {
 422              		.loc 1 79 0
 423              		.cfi_startproc
 424              		@ Function supports interworking.
 425              		@ args = 0, pretend = 0, frame = 40
 426              		@ frame_needed = 0, uses_anonymous_args = 0
 427 0000 10402DE9 		stmfd	sp!, {r4, lr}	@,
 428              	.LCFI8:
 429              		.cfi_def_cfa_offset 8
 430 0004 28D04DE2 		sub	sp, sp, #40	@,,
 431              	.LCFI9:
 432              		.cfi_def_cfa_offset 48
 433 0008 04008DE5 		str	r0, [sp, #4]	@ disk_fs, disk_fs
 434              	.LBB3:
ARM GAS  /tmp/cc2q7bJm.s 			page 11


  80:rootdir.cpp   **** 	UART0 * uart = UART0::GetInstance();
 435              		.loc 1 80 0
 436              		.cfi_offset 14, -4
 437              		.cfi_offset 4, -8
 438 000c FEFFFFEB 		bl	_ZN5UART011GetInstanceEv	@
 439 0010 24008DE5 		str	r0, [sp, #36]	@, uart
  81:rootdir.cpp   ****     if(!disk_fs)
 440              		.loc 1 81 0
 441 0014 04309DE5 		ldr	r3, [sp, #4]	@ tmp157, disk_fs
 442 0018 000053E3 		cmp	r3, #0	@ tmp157,
 443 001c 0100001A 		bne	.L20	@,
  82:rootdir.cpp   ****         return 0;
 444              		.loc 1 82 0
 445 0020 0030A0E3 		mov	r3, #0	@ D.10468,
 446 0024 4C0000EA 		b	.L21	@
 447              	.L20:
  83:rootdir.cpp   **** 
  84:rootdir.cpp   ****     struct sd_raw_info disk_info;
  85:rootdir.cpp   ****     if(!sd_raw_get_info(&disk_info))
 448              		.loc 1 85 0
 449 0028 08308DE2 		add	r3, sp, #8	@ tmp158,,
 450 002c 0300A0E1 		mov	r0, r3	@, tmp158
 451 0030 FEFFFFEB 		bl	_Z15sd_raw_get_infoP11sd_raw_info	@
 452 0034 0030A0E1 		mov	r3, r0	@ tmp159,
 453 0038 000053E3 		cmp	r3, #0	@ D.10470,
 454 003c 0030A013 		movne	r3, #0	@, tmp161
 455 0040 0130A003 		moveq	r3, #1	@, tmp161
 456 0044 FF3003E2 		and	r3, r3, #255	@ retval.20, tmp160,
 457 0048 000053E3 		cmp	r3, #0	@ retval.20,
 458 004c 0100000A 		beq	.L22	@,
  86:rootdir.cpp   ****         return 0;
 459              		.loc 1 86 0
 460 0050 0030A0E3 		mov	r3, #0	@ D.10468,
 461 0054 400000EA 		b	.L21	@
 462              	.L22:
  87:rootdir.cpp   **** 
  88:rootdir.cpp   **** //    int temp = get_output();
  89:rootdir.cpp   **** //    set_output(UART_ONLY);
  90:rootdir.cpp   ****     uart->WriteLine("manuf:  0x%02x\n\r", disk_info.manufacturer);
 463              		.loc 1 90 0
 464 0058 0830DDE5 		ldrb	r3, [sp, #8]	@ zero_extendqisi2	@ D.10473, disk_info.manufacturer
 465 005c 24009DE5 		ldr	r0, [sp, #36]	@, uart
 466 0060 04119FE5 		ldr	r1, .L23	@,
 467 0064 0320A0E1 		mov	r2, r3	@, D.10474
 468 0068 FEFFFFEB 		bl	_ZN5UART09WriteLineEPKcz	@
  91:rootdir.cpp   ****     uart->WriteLine("oem:    %s\n\r", disk_info.oem);
 469              		.loc 1 91 0
 470 006c 08308DE2 		add	r3, sp, #8	@ tmp162,,
 471 0070 013083E2 		add	r3, r3, #1	@ tmp163, tmp162,
 472 0074 24009DE5 		ldr	r0, [sp, #36]	@, uart
 473 0078 F0109FE5 		ldr	r1, .L23+4	@,
 474 007c 0320A0E1 		mov	r2, r3	@, tmp163
 475 0080 FEFFFFEB 		bl	_ZN5UART09WriteLineEPKcz	@
  92:rootdir.cpp   ****     uart->WriteLine("prod:   %s\n\r", disk_info.product);
 476              		.loc 1 92 0
 477 0084 08308DE2 		add	r3, sp, #8	@ tmp164,,
 478 0088 043083E2 		add	r3, r3, #4	@ tmp165, tmp164,
ARM GAS  /tmp/cc2q7bJm.s 			page 12


 479 008c 24009DE5 		ldr	r0, [sp, #36]	@, uart
 480 0090 DC109FE5 		ldr	r1, .L23+8	@,
 481 0094 0320A0E1 		mov	r2, r3	@, tmp165
 482 0098 FEFFFFEB 		bl	_ZN5UART09WriteLineEPKcz	@
  93:rootdir.cpp   ****     uart->WriteLine("rev:    %02x\n\r", disk_info.revision);
 483              		.loc 1 93 0
 484 009c 1230DDE5 		ldrb	r3, [sp, #18]	@ zero_extendqisi2	@ D.10475, disk_info.revision
 485 00a0 24009DE5 		ldr	r0, [sp, #36]	@, uart
 486 00a4 CC109FE5 		ldr	r1, .L23+12	@,
 487 00a8 0320A0E1 		mov	r2, r3	@, D.10476
 488 00ac FEFFFFEB 		bl	_ZN5UART09WriteLineEPKcz	@
  94:rootdir.cpp   ****     uart->WriteLine("serial: 0x%08lx\n\r", disk_info.serial);
 489              		.loc 1 94 0
 490 00b0 14309DE5 		ldr	r3, [sp, #20]	@ D.10477, disk_info.serial
 491 00b4 24009DE5 		ldr	r0, [sp, #36]	@, uart
 492 00b8 BC109FE5 		ldr	r1, .L23+16	@,
 493 00bc 0320A0E1 		mov	r2, r3	@, D.10477
 494 00c0 FEFFFFEB 		bl	_ZN5UART09WriteLineEPKcz	@
  95:rootdir.cpp   ****     uart->WriteLine("date:   %02d/%02d\n\r", disk_info.manufacturing_month, disk_info.manufacturing
 495              		.loc 1 95 0
 496 00c4 1930DDE5 		ldrb	r3, [sp, #25]	@ zero_extendqisi2	@ D.10478, disk_info.manufacturing_month
 497 00c8 0320A0E1 		mov	r2, r3	@ D.10479, D.10478
 498 00cc 1830DDE5 		ldrb	r3, [sp, #24]	@ zero_extendqisi2	@ D.10480, disk_info.manufacturing_year
 499 00d0 24009DE5 		ldr	r0, [sp, #36]	@, uart
 500 00d4 A4109FE5 		ldr	r1, .L23+20	@,
 501 00d8 FEFFFFEB 		bl	_ZN5UART09WriteLineEPKcz	@
  96:rootdir.cpp   ****     uart->WriteLine("size:   %ld\n\r", disk_info.capacity);
 502              		.loc 1 96 0
 503 00dc 1C309DE5 		ldr	r3, [sp, #28]	@ D.10482, disk_info.capacity
 504 00e0 24009DE5 		ldr	r0, [sp, #36]	@, uart
 505 00e4 98109FE5 		ldr	r1, .L23+24	@,
 506 00e8 0320A0E1 		mov	r2, r3	@, D.10482
 507 00ec FEFFFFEB 		bl	_ZN5UART09WriteLineEPKcz	@
  97:rootdir.cpp   ****     uart->WriteLine("copy:   %d\n\r", disk_info.flag_copy);
 508              		.loc 1 97 0
 509 00f0 2030DDE5 		ldrb	r3, [sp, #32]	@ zero_extendqisi2	@ D.10483, disk_info.flag_copy
 510 00f4 24009DE5 		ldr	r0, [sp, #36]	@, uart
 511 00f8 88109FE5 		ldr	r1, .L23+28	@,
 512 00fc 0320A0E1 		mov	r2, r3	@, D.10484
 513 0100 FEFFFFEB 		bl	_ZN5UART09WriteLineEPKcz	@
  98:rootdir.cpp   ****     uart->WriteLine("wr.pr.: %d/%d\n\r", disk_info.flag_write_protect_temp, disk_info.flag_write_pr
 514              		.loc 1 98 0
 515 0104 2230DDE5 		ldrb	r3, [sp, #34]	@ zero_extendqisi2	@ D.10485, disk_info.flag_write_protect_temp
 516 0108 0320A0E1 		mov	r2, r3	@ D.10486, D.10485
 517 010c 2130DDE5 		ldrb	r3, [sp, #33]	@ zero_extendqisi2	@ D.10487, disk_info.flag_write_protect
 518 0110 24009DE5 		ldr	r0, [sp, #36]	@, uart
 519 0114 70109FE5 		ldr	r1, .L23+32	@,
 520 0118 FEFFFFEB 		bl	_ZN5UART09WriteLineEPKcz	@
  99:rootdir.cpp   ****     uart->WriteLine("format: %d\n\r", disk_info.format);
 521              		.loc 1 99 0
 522 011c 2330DDE5 		ldrb	r3, [sp, #35]	@ zero_extendqisi2	@ D.10489, disk_info.format
 523 0120 24009DE5 		ldr	r0, [sp, #36]	@, uart
 524 0124 64109FE5 		ldr	r1, .L23+36	@,
 525 0128 0320A0E1 		mov	r2, r3	@, D.10490
 526 012c FEFFFFEB 		bl	_ZN5UART09WriteLineEPKcz	@
 100:rootdir.cpp   ****     uart->WriteLine("free:   %ld/%ld\n\r", fat16_get_fs_free(disk_fs), fat16_get_fs_size(disk_fs));
 527              		.loc 1 100 0
ARM GAS  /tmp/cc2q7bJm.s 			page 13


 528 0130 04009DE5 		ldr	r0, [sp, #4]	@, disk_fs
 529 0134 FEFFFFEB 		bl	_Z17fat16_get_fs_freePK15fat16_fs_struct	@
 530 0138 0040A0E1 		mov	r4, r0	@ D.10491,
 531 013c 04009DE5 		ldr	r0, [sp, #4]	@, disk_fs
 532 0140 FEFFFFEB 		bl	_Z17fat16_get_fs_sizePK15fat16_fs_struct	@
 533 0144 0030A0E1 		mov	r3, r0	@ D.10492,
 534 0148 24009DE5 		ldr	r0, [sp, #36]	@, uart
 535 014c 40109FE5 		ldr	r1, .L23+40	@,
 536 0150 0420A0E1 		mov	r2, r4	@, D.10491
 537 0154 FEFFFFEB 		bl	_ZN5UART09WriteLineEPKcz	@
 101:rootdir.cpp   **** //    set_output(temp);
 102:rootdir.cpp   ****     return 1;
 538              		.loc 1 102 0
 539 0158 0130A0E3 		mov	r3, #1	@ D.10468,
 540              	.L21:
 541              	.LBE3:
 103:rootdir.cpp   **** }
 542              		.loc 1 103 0
 543 015c 0300A0E1 		mov	r0, r3	@, <retval>
 544 0160 28D08DE2 		add	sp, sp, #40	@,,
 545 0164 1040BDE8 		ldmfd	sp!, {r4, lr}
 546 0168 1EFF2FE1 		bx	lr
 547              	.L24:
 548              		.align	2
 549              	.L23:
 550 016c 5C000000 		.word	.LC4
 551 0170 70000000 		.word	.LC5
 552 0174 80000000 		.word	.LC6
 553 0178 90000000 		.word	.LC7
 554 017c A0000000 		.word	.LC8
 555 0180 B4000000 		.word	.LC9
 556 0184 C8000000 		.word	.LC10
 557 0188 D8000000 		.word	.LC11
 558 018c E8000000 		.word	.LC12
 559 0190 F8000000 		.word	.LC13
 560 0194 08010000 		.word	.LC14
 561              		.cfi_endproc
 562              	.LFE113:
 563              		.size	_Z15print_disk_infoPK15fat16_fs_struct, .-_Z15print_disk_infoPK15fat16_fs_struct
 564              		.section	.text._Z14root_disk_infov,"ax",%progbits
 565              		.align	2
 566              		.global	_Z14root_disk_infov
 567              		.type	_Z14root_disk_infov, %function
 568              	_Z14root_disk_infov:
 569              	.LFB114:
 104:rootdir.cpp   **** 
 105:rootdir.cpp   **** void root_disk_info(void)
 106:rootdir.cpp   **** {
 570              		.loc 1 106 0
 571              		.cfi_startproc
 572              		@ Function supports interworking.
 573              		@ args = 0, pretend = 0, frame = 0
 574              		@ frame_needed = 0, uses_anonymous_args = 0
 575 0000 08402DE9 		stmfd	sp!, {r3, lr}	@,
 576              	.LCFI10:
 577              		.cfi_def_cfa_offset 8
 107:rootdir.cpp   ****     print_disk_info(fs);
ARM GAS  /tmp/cc2q7bJm.s 			page 14


 578              		.loc 1 107 0
 579 0004 10309FE5 		ldr	r3, .L26	@ tmp134,
 580              		.cfi_offset 14, -4
 581              		.cfi_offset 3, -8
 582 0008 003093E5 		ldr	r3, [r3, #0]	@ fs.19, fs
 583 000c 0300A0E1 		mov	r0, r3	@, fs.19
 584 0010 FEFFFFEB 		bl	_Z15print_disk_infoPK15fat16_fs_struct	@
 108:rootdir.cpp   **** }
 585              		.loc 1 108 0
 586 0014 0840BDE8 		ldmfd	sp!, {r3, lr}
 587 0018 1EFF2FE1 		bx	lr
 588              	.L27:
 589              		.align	2
 590              	.L26:
 591 001c 00000000 		.word	fs
 592              		.cfi_endproc
 593              	.LFE114:
 594              		.size	_Z14root_disk_infov, .-_Z14root_disk_infov
 595              		.section	.text._Z26rootDirectory_files_streami,"ax",%progbits
 596              		.align	2
 597              		.global	_Z26rootDirectory_files_streami
 598              		.type	_Z26rootDirectory_files_streami, %function
 599              	_Z26rootDirectory_files_streami:
 600              	.LFB115:
 109:rootdir.cpp   **** 
 110:rootdir.cpp   **** /* sequential calls return sequential characters
 111:rootdir.cpp   ****  * of the sequence of file names in the rootdir
 112:rootdir.cpp   ****  * in place of '\0' it returns ',' only
 113:rootdir.cpp   ****  * returning a zero when the end of all files
 114:rootdir.cpp   ****  * has been reached.
 115:rootdir.cpp   ****  *
 116:rootdir.cpp   ****  * Assert (1) reset whenever you want to re-start
 117:rootdir.cpp   ****  */
 118:rootdir.cpp   **** char rootDirectory_files_stream(int reset)
 119:rootdir.cpp   **** {
 601              		.loc 1 119 0
 602              		.cfi_startproc
 603              		@ Function supports interworking.
 604              		@ args = 0, pretend = 0, frame = 8
 605              		@ frame_needed = 0, uses_anonymous_args = 0
 606 0000 04E02DE5 		str	lr, [sp, #-4]!	@,
 607              	.LCFI11:
 608              		.cfi_def_cfa_offset 4
 609 0004 0CD04DE2 		sub	sp, sp, #12	@,,
 610              	.LCFI12:
 611              		.cfi_def_cfa_offset 16
 612 0008 04008DE5 		str	r0, [sp, #4]	@ reset, reset
 613              	.LBB4:
 120:rootdir.cpp   **** 
 121:rootdir.cpp   ****     static int idx = 0;
 122:rootdir.cpp   **** 
 123:rootdir.cpp   ****     /* If reset, we need to reset the dir */
 124:rootdir.cpp   ****     if(reset)
 614              		.loc 1 124 0
 615 000c 04309DE5 		ldr	r3, [sp, #4]	@ tmp144, reset
 616 0010 000053E3 		cmp	r3, #0	@ tmp144,
 617 0014 0500000A 		beq	.L29	@,
ARM GAS  /tmp/cc2q7bJm.s 			page 15


 618              		.cfi_offset 14, -4
 125:rootdir.cpp   ****     {
 126:rootdir.cpp   ****         fat16_reset_dir(dd);
 619              		.loc 1 126 0
 620 0018 B0309FE5 		ldr	r3, .L33	@ tmp145,
 621 001c 003093E5 		ldr	r3, [r3, #0]	@ dd.12, dd
 622 0020 0300A0E1 		mov	r0, r3	@, dd.12
 623 0024 FEFFFFEB 		bl	_Z15fat16_reset_dirP16fat16_dir_struct	@
 127:rootdir.cpp   ****         return 0;
 624              		.loc 1 127 0
 625 0028 0030A0E3 		mov	r3, #0	@ D.10448,
 626 002c 230000EA 		b	.L30	@
 627              	.L29:
 128:rootdir.cpp   ****     }
 129:rootdir.cpp   **** 
 130:rootdir.cpp   ****     /* Whenever IDX is zero, we're gonna start a new file,
 131:rootdir.cpp   ****        * so read a new one.
 132:rootdir.cpp   ****        * if there's no new file,
 133:rootdir.cpp   ****        * return 0, because it's over
 134:rootdir.cpp   ****        */
 135:rootdir.cpp   ****     if(idx == 0)
 628              		.loc 1 135 0
 629 0030 9C309FE5 		ldr	r3, .L33+4	@ tmp146,
 630 0034 003093E5 		ldr	r3, [r3, #0]	@ idx.13, idx
 631 0038 000053E3 		cmp	r3, #0	@ idx.13,
 632 003c 0D00001A 		bne	.L31	@,
 136:rootdir.cpp   ****     {
 137:rootdir.cpp   ****         if(fat16_read_dir(dd,&dir_entry)==0)
 633              		.loc 1 137 0
 634 0040 88309FE5 		ldr	r3, .L33	@ tmp147,
 635 0044 003093E5 		ldr	r3, [r3, #0]	@ dd.15, dd
 636 0048 0300A0E1 		mov	r0, r3	@, dd.15
 637 004c 84109FE5 		ldr	r1, .L33+8	@,
 638 0050 FEFFFFEB 		bl	_Z14fat16_read_dirP16fat16_dir_structP22fat16_dir_entry_struct	@
 639 0054 0030A0E1 		mov	r3, r0	@ tmp148,
 640 0058 000053E3 		cmp	r3, #0	@ D.10454,
 641 005c 0030A013 		movne	r3, #0	@, tmp150
 642 0060 0130A003 		moveq	r3, #1	@, tmp150
 643 0064 FF3003E2 		and	r3, r3, #255	@ retval.14, tmp149,
 644 0068 000053E3 		cmp	r3, #0	@ retval.14,
 645 006c 0100000A 		beq	.L31	@,
 138:rootdir.cpp   ****         {
 139:rootdir.cpp   ****             return '\0';
 646              		.loc 1 139 0
 647 0070 0030A0E3 		mov	r3, #0	@ D.10448,
 648 0074 110000EA 		b	.L30	@
 649              	.L31:
 140:rootdir.cpp   ****         }
 141:rootdir.cpp   ****     }
 142:rootdir.cpp   **** 
 143:rootdir.cpp   ****     /* If we've reached the end of a string,
 144:rootdir.cpp   ****        * return comma instead of \0,
 145:rootdir.cpp   ****        * so the list is comma delimited,
 146:rootdir.cpp   ****        * and terminated with a zero
 147:rootdir.cpp   ****        */
 148:rootdir.cpp   ****     if(dir_entry.long_name[idx]=='\0')
 650              		.loc 1 148 0
ARM GAS  /tmp/cc2q7bJm.s 			page 16


 651 0078 54309FE5 		ldr	r3, .L33+4	@ tmp151,
 652 007c 003093E5 		ldr	r3, [r3, #0]	@ idx.16, idx
 653 0080 50209FE5 		ldr	r2, .L33+8	@ tmp152,
 654 0084 0330D2E7 		ldrb	r3, [r2, r3]	@ zero_extendqisi2	@ D.10459, dir_entry.long_name
 655 0088 000053E3 		cmp	r3, #0	@ D.10459,
 656 008c 0400001A 		bne	.L32	@,
 149:rootdir.cpp   ****     {
 150:rootdir.cpp   ****         idx = 0;
 657              		.loc 1 150 0
 658 0090 3C309FE5 		ldr	r3, .L33+4	@ tmp153,
 659 0094 0020A0E3 		mov	r2, #0	@ tmp154,
 660 0098 002083E5 		str	r2, [r3, #0]	@ tmp154, idx
 151:rootdir.cpp   ****         return ',';
 661              		.loc 1 151 0
 662 009c 2C30A0E3 		mov	r3, #44	@ D.10448,
 663 00a0 060000EA 		b	.L30	@
 664              	.L32:
 152:rootdir.cpp   ****     }
 153:rootdir.cpp   **** 
 154:rootdir.cpp   **** 
 155:rootdir.cpp   ****     return dir_entry.long_name[idx++];
 665              		.loc 1 155 0
 666 00a4 28309FE5 		ldr	r3, .L33+4	@ tmp155,
 667 00a8 002093E5 		ldr	r2, [r3, #0]	@ idx.17, idx
 668 00ac 24309FE5 		ldr	r3, .L33+8	@ tmp156,
 669 00b0 0230D3E7 		ldrb	r3, [r3, r2]	@ zero_extendqisi2	@ D.10448, dir_entry.long_name
 670 00b4 011082E2 		add	r1, r2, #1	@ idx.18, idx.17,
 671 00b8 14209FE5 		ldr	r2, .L33+4	@ tmp157,
 672 00bc 001082E5 		str	r1, [r2, #0]	@ idx.18, idx
 673              	.L30:
 674              	.LBE4:
 156:rootdir.cpp   **** 
 157:rootdir.cpp   **** }
 675              		.loc 1 157 0
 676 00c0 0300A0E1 		mov	r0, r3	@, <retval>
 677 00c4 0CD08DE2 		add	sp, sp, #12	@,,
 678 00c8 04E09DE4 		ldr	lr, [sp], #4
 679 00cc 1EFF2FE1 		bx	lr
 680              	.L34:
 681              		.align	2
 682              	.L33:
 683 00d0 00000000 		.word	dd
 684 00d4 3C000000 		.word	_ZZ26rootDirectory_files_streamiE3idx
 685 00d8 00000000 		.word	dir_entry
 686              		.cfi_endproc
 687              	.LFE115:
 688              		.size	_Z26rootDirectory_files_streami, .-_Z26rootDirectory_files_streami
 689              		.section	.text._Z19rootDirectory_filesPci,"ax",%progbits
 690              		.align	2
 691              		.global	_Z19rootDirectory_filesPci
 692              		.type	_Z19rootDirectory_filesPci, %function
 693              	_Z19rootDirectory_filesPci:
 694              	.LFB116:
 158:rootdir.cpp   **** //Description: Fills buf with len number of chars.  Returns the number of files
 159:rootdir.cpp   **** //				that were cycled through during the read
 160:rootdir.cpp   **** //Pre: buf is an array of characters at least as big as len
 161:rootdir.cpp   **** //		len is the size of the array to read
ARM GAS  /tmp/cc2q7bJm.s 			page 17


 162:rootdir.cpp   **** //Post: buf contains the characters of the filenames in Root, starting at the first file
 163:rootdir.cpp   **** //		and ending after len characters
 164:rootdir.cpp   **** int rootDirectory_files(char* buf, int len)
 165:rootdir.cpp   **** {
 695              		.loc 1 165 0
 696              		.cfi_startproc
 697              		@ Function supports interworking.
 698              		@ args = 0, pretend = 0, frame = 16
 699              		@ frame_needed = 0, uses_anonymous_args = 0
 700 0000 04E02DE5 		str	lr, [sp, #-4]!	@,
 701              	.LCFI13:
 702              		.cfi_def_cfa_offset 4
 703 0004 14D04DE2 		sub	sp, sp, #20	@,,
 704              	.LCFI14:
 705              		.cfi_def_cfa_offset 24
 706 0008 04008DE5 		str	r0, [sp, #4]	@ buf, buf
 707 000c 00108DE5 		str	r1, [sp, #0]	@ len, len
 708              	.LBB5:
 166:rootdir.cpp   ****     int i;
 167:rootdir.cpp   ****     int num=0;
 709              		.loc 1 167 0
 710 0010 0030A0E3 		mov	r3, #0	@ tmp142,
 711 0014 08308DE5 		str	r3, [sp, #8]	@ tmp142, num
 168:rootdir.cpp   ****     /* Loop will walk through every file in directory dd */
 169:rootdir.cpp   ****     fat16_reset_dir(dd);
 712              		.loc 1 169 0
 713 0018 3C319FE5 		ldr	r3, .L41	@ tmp143,
 714 001c 003093E5 		ldr	r3, [r3, #0]	@ dd.9, dd
 715 0020 0300A0E1 		mov	r0, r3	@, dd.9
 716              		.cfi_offset 14, -4
 717 0024 FEFFFFEB 		bl	_Z15fat16_reset_dirP16fat16_dir_struct	@
 170:rootdir.cpp   ****     while(fat16_read_dir(dd,&dir_entry))
 718              		.loc 1 170 0
 719 0028 370000EA 		b	.L36	@
 720              	.L40:
 171:rootdir.cpp   ****     {
 172:rootdir.cpp   ****         i = 0;
 721              		.loc 1 172 0
 722 002c 0030A0E3 		mov	r3, #0	@ tmp144,
 723 0030 0C308DE5 		str	r3, [sp, #12]	@ tmp144, i
 173:rootdir.cpp   ****         /* Spin through the filename */
 174:rootdir.cpp   ****         while(dir_entry.long_name[i]!='\0')
 724              		.loc 1 174 0
 725 0034 160000EA 		b	.L37	@
 726              	.L39:
 175:rootdir.cpp   ****         {
 176:rootdir.cpp   ****             /* And copy each character into buf */
 177:rootdir.cpp   ****             *buf++=dir_entry.long_name[i++];
 727              		.loc 1 177 0
 728 0038 20219FE5 		ldr	r2, .L41+4	@ tmp145,
 729 003c 0C309DE5 		ldr	r3, [sp, #12]	@ tmp147, i
 730 0040 033082E0 		add	r3, r2, r3	@ tmp146, tmp145, tmp147
 731 0044 0020D3E5 		ldrb	r2, [r3, #0]	@ zero_extendqisi2	@ D.10438, dir_entry.long_name
 732 0048 04309DE5 		ldr	r3, [sp, #4]	@ tmp148, buf
 733 004c 0020C3E5 		strb	r2, [r3, #0]	@ tmp149,
 734 0050 04309DE5 		ldr	r3, [sp, #4]	@ tmp150, buf
 735 0054 013083E2 		add	r3, r3, #1	@ tmp151, tmp150,
ARM GAS  /tmp/cc2q7bJm.s 			page 18


 736 0058 04308DE5 		str	r3, [sp, #4]	@ tmp151, buf
 737 005c 0C309DE5 		ldr	r3, [sp, #12]	@ tmp152, i
 738 0060 013083E2 		add	r3, r3, #1	@ tmp153, tmp152,
 739 0064 0C308DE5 		str	r3, [sp, #12]	@ tmp153, i
 178:rootdir.cpp   ****             len--;
 740              		.loc 1 178 0
 741 0068 00309DE5 		ldr	r3, [sp, #0]	@ tmp154, len
 742 006c 013043E2 		sub	r3, r3, #1	@ tmp155, tmp154,
 743 0070 00308DE5 		str	r3, [sp, #0]	@ tmp155, len
 179:rootdir.cpp   ****             if(len==1)
 744              		.loc 1 179 0
 745 0074 00309DE5 		ldr	r3, [sp, #0]	@ tmp156, len
 746 0078 010053E3 		cmp	r3, #1	@ tmp156,
 747 007c 0400001A 		bne	.L37	@,
 180:rootdir.cpp   ****             {
 181:rootdir.cpp   ****                 /* Buf if we ever get to the end of buf, quit */
 182:rootdir.cpp   ****                 *buf='\0';
 748              		.loc 1 182 0
 749 0080 04309DE5 		ldr	r3, [sp, #4]	@ tmp157, buf
 750 0084 0020A0E3 		mov	r2, #0	@ tmp158,
 751 0088 0020C3E5 		strb	r2, [r3, #0]	@ tmp159,
 183:rootdir.cpp   ****                 return 1;
 752              		.loc 1 183 0
 753 008c 0130A0E3 		mov	r3, #1	@ D.10441,
 754 0090 2D0000EA 		b	.L38	@
 755              	.L37:
 174:rootdir.cpp   ****         while(dir_entry.long_name[i]!='\0')
 756              		.loc 1 174 0 discriminator 1
 757 0094 C4209FE5 		ldr	r2, .L41+4	@ tmp160,
 758 0098 0C309DE5 		ldr	r3, [sp, #12]	@ tmp162, i
 759 009c 033082E0 		add	r3, r2, r3	@ tmp161, tmp160, tmp162
 760 00a0 0030D3E5 		ldrb	r3, [r3, #0]	@ zero_extendqisi2	@ D.10436, dir_entry.long_name
 761 00a4 000053E3 		cmp	r3, #0	@ D.10436,
 762 00a8 0030A003 		moveq	r3, #0	@, tmp164
 763 00ac 0130A013 		movne	r3, #1	@, tmp164
 764 00b0 FF3003E2 		and	r3, r3, #255	@ D.10437, tmp163,
 765 00b4 000053E3 		cmp	r3, #0	@ D.10437,
 766 00b8 DEFFFF1A 		bne	.L39	@,
 184:rootdir.cpp   ****             }
 185:rootdir.cpp   ****         }
 186:rootdir.cpp   ****         *buf++=',';
 767              		.loc 1 186 0
 768 00bc 04309DE5 		ldr	r3, [sp, #4]	@ tmp165, buf
 769 00c0 2C20A0E3 		mov	r2, #44	@ tmp166,
 770 00c4 0020C3E5 		strb	r2, [r3, #0]	@ tmp167,
 771 00c8 04309DE5 		ldr	r3, [sp, #4]	@ tmp168, buf
 772 00cc 013083E2 		add	r3, r3, #1	@ tmp169, tmp168,
 773 00d0 04308DE5 		str	r3, [sp, #4]	@ tmp169, buf
 187:rootdir.cpp   ****         num++;
 774              		.loc 1 187 0
 775 00d4 08309DE5 		ldr	r3, [sp, #8]	@ tmp170, num
 776 00d8 013083E2 		add	r3, r3, #1	@ tmp171, tmp170,
 777 00dc 08308DE5 		str	r3, [sp, #8]	@ tmp171, num
 188:rootdir.cpp   ****         len--;
 778              		.loc 1 188 0
 779 00e0 00309DE5 		ldr	r3, [sp, #0]	@ tmp172, len
 780 00e4 013043E2 		sub	r3, r3, #1	@ tmp173, tmp172,
ARM GAS  /tmp/cc2q7bJm.s 			page 19


 781 00e8 00308DE5 		str	r3, [sp, #0]	@ tmp173, len
 189:rootdir.cpp   ****         if(len==1)
 782              		.loc 1 189 0
 783 00ec 00309DE5 		ldr	r3, [sp, #0]	@ tmp174, len
 784 00f0 010053E3 		cmp	r3, #1	@ tmp174,
 785 00f4 0400001A 		bne	.L36	@,
 190:rootdir.cpp   ****         {
 191:rootdir.cpp   ****             /* Buf if we ever get to the end of buf, quit */
 192:rootdir.cpp   ****             *buf='\0';
 786              		.loc 1 192 0
 787 00f8 04309DE5 		ldr	r3, [sp, #4]	@ tmp175, buf
 788 00fc 0020A0E3 		mov	r2, #0	@ tmp176,
 789 0100 0020C3E5 		strb	r2, [r3, #0]	@ tmp177,
 193:rootdir.cpp   ****             return 1;
 790              		.loc 1 193 0
 791 0104 0130A0E3 		mov	r3, #1	@ D.10441,
 792 0108 0F0000EA 		b	.L38	@
 793              	.L36:
 170:rootdir.cpp   ****     while(fat16_read_dir(dd,&dir_entry))
 794              		.loc 1 170 0 discriminator 1
 795 010c 48309FE5 		ldr	r3, .L41	@ tmp178,
 796 0110 003093E5 		ldr	r3, [r3, #0]	@ dd.11, dd
 797 0114 0300A0E1 		mov	r0, r3	@, dd.11
 798 0118 40109FE5 		ldr	r1, .L41+4	@,
 799 011c FEFFFFEB 		bl	_Z14fat16_read_dirP16fat16_dir_structP22fat16_dir_entry_struct	@
 800 0120 0030A0E1 		mov	r3, r0	@ tmp179,
 801 0124 000053E3 		cmp	r3, #0	@ D.10432,
 802 0128 0030A003 		moveq	r3, #0	@, tmp181
 803 012c 0130A013 		movne	r3, #1	@, tmp181
 804 0130 FF3003E2 		and	r3, r3, #255	@ retval.10, tmp180,
 805 0134 000053E3 		cmp	r3, #0	@ retval.10,
 806 0138 BBFFFF1A 		bne	.L40	@,
 194:rootdir.cpp   ****         }
 195:rootdir.cpp   ****     }
 196:rootdir.cpp   ****     *buf='\0';
 807              		.loc 1 196 0
 808 013c 04309DE5 		ldr	r3, [sp, #4]	@ tmp182, buf
 809 0140 0020A0E3 		mov	r2, #0	@ tmp183,
 810 0144 0020C3E5 		strb	r2, [r3, #0]	@ tmp184,
 197:rootdir.cpp   ****     return num;
 811              		.loc 1 197 0
 812 0148 08309DE5 		ldr	r3, [sp, #8]	@ D.10441, num
 813              	.L38:
 814              	.LBE5:
 198:rootdir.cpp   **** }
 815              		.loc 1 198 0
 816 014c 0300A0E1 		mov	r0, r3	@, <retval>
 817 0150 14D08DE2 		add	sp, sp, #20	@,,
 818 0154 04E09DE4 		ldr	lr, [sp], #4
 819 0158 1EFF2FE1 		bx	lr
 820              	.L42:
 821              		.align	2
 822              	.L41:
 823 015c 00000000 		.word	dd
 824 0160 00000000 		.word	dir_entry
 825              		.cfi_endproc
 826              	.LFE116:
ARM GAS  /tmp/cc2q7bJm.s 			page 20


 827              		.size	_Z19rootDirectory_filesPci, .-_Z19rootDirectory_filesPci
 828              		.section	.text._Z11root_formatv,"ax",%progbits
 829              		.align	2
 830              		.global	_Z11root_formatv
 831              		.type	_Z11root_formatv, %function
 832              	_Z11root_formatv:
 833              	.LFB117:
 199:rootdir.cpp   **** 
 200:rootdir.cpp   **** void root_format(void)
 201:rootdir.cpp   **** {
 834              		.loc 1 201 0
 835              		.cfi_startproc
 836              		@ Function supports interworking.
 837              		@ args = 0, pretend = 0, frame = 0
 838              		@ frame_needed = 0, uses_anonymous_args = 0
 839 0000 08402DE9 		stmfd	sp!, {r3, lr}	@,
 840              	.LCFI15:
 841              		.cfi_def_cfa_offset 8
 202:rootdir.cpp   ****     fat16_reset_dir(dd);
 842              		.loc 1 202 0
 843 0004 68309FE5 		ldr	r3, .L46	@ tmp139,
 844              		.cfi_offset 14, -4
 845              		.cfi_offset 3, -8
 846 0008 003093E5 		ldr	r3, [r3, #0]	@ dd.4, dd
 847 000c 0300A0E1 		mov	r0, r3	@, dd.4
 848 0010 FEFFFFEB 		bl	_Z15fat16_reset_dirP16fat16_dir_struct	@
 203:rootdir.cpp   ****     while(fat16_read_dir(dd,&dir_entry))
 849              		.loc 1 203 0
 850 0014 080000EA 		b	.L44	@
 851              	.L45:
 204:rootdir.cpp   ****     {
 205:rootdir.cpp   ****         fat16_delete_file(fs,&dir_entry);
 852              		.loc 1 205 0
 853 0018 58309FE5 		ldr	r3, .L46+4	@ tmp140,
 854 001c 003093E5 		ldr	r3, [r3, #0]	@ fs.7, fs
 855 0020 0300A0E1 		mov	r0, r3	@, fs.7
 856 0024 50109FE5 		ldr	r1, .L46+8	@,
 857 0028 FEFFFFEB 		bl	_Z17fat16_delete_fileP15fat16_fs_structP22fat16_dir_entry_struct	@
 206:rootdir.cpp   ****         fat16_reset_dir(dd);
 858              		.loc 1 206 0
 859 002c 40309FE5 		ldr	r3, .L46	@ tmp141,
 860 0030 003093E5 		ldr	r3, [r3, #0]	@ dd.8, dd
 861 0034 0300A0E1 		mov	r0, r3	@, dd.8
 862 0038 FEFFFFEB 		bl	_Z15fat16_reset_dirP16fat16_dir_struct	@
 863              	.L44:
 203:rootdir.cpp   ****     while(fat16_read_dir(dd,&dir_entry))
 864              		.loc 1 203 0 discriminator 1
 865 003c 30309FE5 		ldr	r3, .L46	@ tmp142,
 866 0040 003093E5 		ldr	r3, [r3, #0]	@ dd.6, dd
 867 0044 0300A0E1 		mov	r0, r3	@, dd.6
 868 0048 2C109FE5 		ldr	r1, .L46+8	@,
 869 004c FEFFFFEB 		bl	_Z14fat16_read_dirP16fat16_dir_structP22fat16_dir_entry_struct	@
 870 0050 0030A0E1 		mov	r3, r0	@ tmp143,
 871 0054 000053E3 		cmp	r3, #0	@ D.10423,
 872 0058 0030A003 		moveq	r3, #0	@, tmp145
 873 005c 0130A013 		movne	r3, #1	@, tmp145
 874 0060 FF3003E2 		and	r3, r3, #255	@ retval.5, tmp144,
ARM GAS  /tmp/cc2q7bJm.s 			page 21


 875 0064 000053E3 		cmp	r3, #0	@ retval.5,
 876 0068 EAFFFF1A 		bne	.L45	@,
 207:rootdir.cpp   ****     }
 208:rootdir.cpp   **** }
 877              		.loc 1 208 0
 878 006c 0840BDE8 		ldmfd	sp!, {r3, lr}
 879 0070 1EFF2FE1 		bx	lr
 880              	.L47:
 881              		.align	2
 882              	.L46:
 883 0074 00000000 		.word	dd
 884 0078 00000000 		.word	fs
 885 007c 00000000 		.word	dir_entry
 886              		.cfi_endproc
 887              	.LFE117:
 888              		.size	_Z11root_formatv, .-_Z11root_formatv
 889              		.section	.text._Z11root_deletePc,"ax",%progbits
 890              		.align	2
 891              		.global	_Z11root_deletePc
 892              		.type	_Z11root_deletePc, %function
 893              	_Z11root_deletePc:
 894              	.LFB118:
 209:rootdir.cpp   **** 
 210:rootdir.cpp   **** int root_delete(char* filename)
 211:rootdir.cpp   **** {
 895              		.loc 1 211 0
 896              		.cfi_startproc
 897              		@ Function supports interworking.
 898              		@ args = 0, pretend = 0, frame = 8
 899              		@ frame_needed = 0, uses_anonymous_args = 0
 900 0000 04E02DE5 		str	lr, [sp, #-4]!	@,
 901              	.LCFI16:
 902              		.cfi_def_cfa_offset 4
 903 0004 0CD04DE2 		sub	sp, sp, #12	@,,
 904              	.LCFI17:
 905              		.cfi_def_cfa_offset 16
 906 0008 04008DE5 		str	r0, [sp, #4]	@ filename, filename
 212:rootdir.cpp   ****     if(find_file_in_dir(fs,dd,filename,&dir_entry))
 907              		.loc 1 212 0
 908 000c 68309FE5 		ldr	r3, .L51	@ tmp140,
 909 0010 002093E5 		ldr	r2, [r3, #0]	@ fs.1, fs
 910 0014 64309FE5 		ldr	r3, .L51+4	@ tmp141,
 911 0018 003093E5 		ldr	r3, [r3, #0]	@ dd.2, dd
 912 001c 0200A0E1 		mov	r0, r2	@, fs.1
 913 0020 0310A0E1 		mov	r1, r3	@, dd.2
 914 0024 04209DE5 		ldr	r2, [sp, #4]	@, filename
 915 0028 54309FE5 		ldr	r3, .L51+8	@,
 916              		.cfi_offset 14, -4
 917 002c FEFFFFEB 		bl	_Z16find_file_in_dirP15fat16_fs_structP16fat16_dir_structPKcP22fat16_dir_entry_struct	@
 918 0030 0030A0E1 		mov	r3, r0	@ tmp142,
 919 0034 000053E3 		cmp	r3, #0	@ D.10411,
 920 0038 0030A003 		moveq	r3, #0	@, tmp144
 921 003c 0130A013 		movne	r3, #1	@, tmp144
 922 0040 FF3003E2 		and	r3, r3, #255	@ retval.0, tmp143,
 923 0044 000053E3 		cmp	r3, #0	@ retval.0,
 924 0048 0600000A 		beq	.L49	@,
 213:rootdir.cpp   ****     {
ARM GAS  /tmp/cc2q7bJm.s 			page 22


 214:rootdir.cpp   ****         fat16_delete_file(fs,&dir_entry);
 925              		.loc 1 214 0
 926 004c 28309FE5 		ldr	r3, .L51	@ tmp145,
 927 0050 003093E5 		ldr	r3, [r3, #0]	@ fs.3, fs
 928 0054 0300A0E1 		mov	r0, r3	@, fs.3
 929 0058 24109FE5 		ldr	r1, .L51+8	@,
 930 005c FEFFFFEB 		bl	_Z17fat16_delete_fileP15fat16_fs_structP22fat16_dir_entry_struct	@
 215:rootdir.cpp   ****         return 0;
 931              		.loc 1 215 0
 932 0060 0030A0E3 		mov	r3, #0	@ D.10415,
 933 0064 000000EA 		b	.L50	@
 934              	.L49:
 216:rootdir.cpp   ****     }
 217:rootdir.cpp   ****     return 1;
 935              		.loc 1 217 0
 936 0068 0130A0E3 		mov	r3, #1	@ D.10415,
 937              	.L50:
 218:rootdir.cpp   **** }
 938              		.loc 1 218 0
 939 006c 0300A0E1 		mov	r0, r3	@, <retval>
 940 0070 0CD08DE2 		add	sp, sp, #12	@,,
 941 0074 04E09DE4 		ldr	lr, [sp], #4
 942 0078 1EFF2FE1 		bx	lr
 943              	.L52:
 944              		.align	2
 945              	.L51:
 946 007c 00000000 		.word	fs
 947 0080 00000000 		.word	dd
 948 0084 00000000 		.word	dir_entry
 949              		.cfi_endproc
 950              	.LFE118:
 951              		.size	_Z11root_deletePc, .-_Z11root_deletePc
 952              		.section	.rodata
 953 011a 0000     		.align	2
 954              		.type	_ZL12VIC_USB_Intr, %object
 955              		.size	_ZL12VIC_USB_Intr, 4
 956              	_ZL12VIC_USB_Intr:
 957 011c 00004000 		.word	4194304
 958              		.align	2
 959              		.type	_ZL9CCR_CLKEN, %object
 960              		.size	_ZL9CCR_CLKEN, 4
 961              	_ZL9CCR_CLKEN:
 962 0120 01000000 		.word	1
 963              		.align	2
 964              		.type	_ZL10CCR_CTCRST, %object
 965              		.size	_ZL10CCR_CTCRST, 4
 966              	_ZL10CCR_CTCRST:
 967 0124 02000000 		.word	2
 968              		.align	2
 969              		.type	_ZL16CCR_CLKSRC_32KHZ, %object
 970              		.size	_ZL16CCR_CLKSRC_32KHZ, 4
 971              	_ZL16CCR_CLKSRC_32KHZ:
 972 0128 10000000 		.word	16
 973              		.align	2
 974              		.type	_ZL18VIC_Channel_Timer0, %object
 975              		.size	_ZL18VIC_Channel_Timer0, 4
 976              	_ZL18VIC_Channel_Timer0:
ARM GAS  /tmp/cc2q7bJm.s 			page 23


 977 012c 04000000 		.word	4
 978              		.align	2
 979              		.type	_ZL18VIC_Channel_Timer1, %object
 980              		.size	_ZL18VIC_Channel_Timer1, 4
 981              	_ZL18VIC_Channel_Timer1:
 982 0130 05000000 		.word	5
 983              		.align	2
 984              		.type	_ZL17VIC_Channel_UART0, %object
 985              		.size	_ZL17VIC_Channel_UART0, 4
 986              	_ZL17VIC_Channel_UART0:
 987 0134 06000000 		.word	6
 988              		.align	2
 989              		.type	_ZL17VIC_Channel_UART1, %object
 990              		.size	_ZL17VIC_Channel_UART1, 4
 991              	_ZL17VIC_Channel_UART1:
 992 0138 07000000 		.word	7
 993              		.align	2
 994              		.type	_ZL15VIC_Channel_USB, %object
 995              		.size	_ZL15VIC_Channel_USB, 4
 996              	_ZL15VIC_Channel_USB:
 997 013c 16000000 		.word	22
 998              		.align	2
 999              		.type	_ZL18VICVectCntl_ENABLE, %object
 1000              		.size	_ZL18VICVectCntl_ENABLE, 4
 1001              	_ZL18VICVectCntl_ENABLE:
 1002 0140 20000000 		.word	32
 1003              		.align	2
 1004              		.type	_ZL10UIER_ERBFI, %object
 1005              		.size	_ZL10UIER_ERBFI, 4
 1006              	_ZL10UIER_ERBFI:
 1007 0144 01000000 		.word	1
 1008              		.align	2
 1009              		.type	_ZL12UIIR_ID_MASK, %object
 1010              		.size	_ZL12UIIR_ID_MASK, 4
 1011              	_ZL12UIIR_ID_MASK:
 1012 0148 0E000000 		.word	14
 1013              		.align	2
 1014              		.type	_ZL12UIIR_RDA_INT, %object
 1015              		.size	_ZL12UIIR_RDA_INT, 4
 1016              	_ZL12UIIR_RDA_INT:
 1017 014c 04000000 		.word	4
 1018              		.align	2
 1019              		.type	_ZL8ULSR_RDR, %object
 1020              		.size	_ZL8ULSR_RDR, 4
 1021              	_ZL8ULSR_RDR:
 1022 0150 01000000 		.word	1
 1023              		.align	2
 1024              		.type	_ZL5SSEL1, %object
 1025              		.size	_ZL5SSEL1, 4
 1026              	_ZL5SSEL1:
 1027 0154 00001000 		.word	1048576
 1028              		.align	2
 1029              		.type	_ZL9SSPSR_TFE, %object
 1030              		.size	_ZL9SSPSR_TFE, 4
 1031              	_ZL9SSPSR_TFE:
 1032 0158 01000000 		.word	1
 1033              		.align	2
ARM GAS  /tmp/cc2q7bJm.s 			page 24


 1034              		.type	_ZL9SSPSR_TNF, %object
 1035              		.size	_ZL9SSPSR_TNF, 4
 1036              	_ZL9SSPSR_TNF:
 1037 015c 02000000 		.word	2
 1038              		.align	2
 1039              		.type	_ZL9SSPSR_RNE, %object
 1040              		.size	_ZL9SSPSR_RNE, 4
 1041              	_ZL9SSPSR_RNE:
 1042 0160 04000000 		.word	4
 1043              		.align	2
 1044              		.type	_ZL9SSPSR_BSY, %object
 1045              		.size	_ZL9SSPSR_BSY, 4
 1046              	_ZL9SSPSR_BSY:
 1047 0164 10000000 		.word	16
 1048              		.align	2
 1049              		.type	_ZL11SSPCR0_CPOL, %object
 1050              		.size	_ZL11SSPCR0_CPOL, 4
 1051              	_ZL11SSPCR0_CPOL:
 1052 0168 40000000 		.word	64
 1053              		.align	2
 1054              		.type	_ZL11SSPCR0_CPHA, %object
 1055              		.size	_ZL11SSPCR0_CPHA, 4
 1056              	_ZL11SSPCR0_CPHA:
 1057 016c 80000000 		.word	128
 1058              		.align	2
 1059              		.type	_ZL13I2CxCONCLR_AA, %object
 1060              		.size	_ZL13I2CxCONCLR_AA, 4
 1061              	_ZL13I2CxCONCLR_AA:
 1062 0170 04000000 		.word	4
 1063              		.align	2
 1064              		.type	_ZL13I2CxCONCLR_SI, %object
 1065              		.size	_ZL13I2CxCONCLR_SI, 4
 1066              	_ZL13I2CxCONCLR_SI:
 1067 0174 08000000 		.word	8
 1068              		.align	2
 1069              		.type	_ZL15I2CxCONCLR_STAC, %object
 1070              		.size	_ZL15I2CxCONCLR_STAC, 4
 1071              	_ZL15I2CxCONCLR_STAC:
 1072 0178 20000000 		.word	32
 1073              		.align	2
 1074              		.type	_ZL16I2CxCONCLR_I2ENC, %object
 1075              		.size	_ZL16I2CxCONCLR_I2ENC, 4
 1076              	_ZL16I2CxCONCLR_I2ENC:
 1077 017c 40000000 		.word	64
 1078              		.align	2
 1079              		.type	_ZL13I2CxCONSET_AA, %object
 1080              		.size	_ZL13I2CxCONSET_AA, 4
 1081              	_ZL13I2CxCONSET_AA:
 1082 0180 04000000 		.word	4
 1083              		.align	2
 1084              		.type	_ZL13I2CxCONSET_SI, %object
 1085              		.size	_ZL13I2CxCONSET_SI, 4
 1086              	_ZL13I2CxCONSET_SI:
 1087 0184 08000000 		.word	8
 1088              		.align	2
 1089              		.type	_ZL14I2CxCONSET_STO, %object
 1090              		.size	_ZL14I2CxCONSET_STO, 4
ARM GAS  /tmp/cc2q7bJm.s 			page 25


 1091              	_ZL14I2CxCONSET_STO:
 1092 0188 10000000 		.word	16
 1093              		.align	2
 1094              		.type	_ZL14I2CxCONSET_STA, %object
 1095              		.size	_ZL14I2CxCONSET_STA, 4
 1096              	_ZL14I2CxCONSET_STA:
 1097 018c 20000000 		.word	32
 1098              		.align	2
 1099              		.type	_ZL15I2CxCONSET_I2EN, %object
 1100              		.size	_ZL15I2CxCONSET_I2EN, 4
 1101              	_ZL15I2CxCONSET_I2EN:
 1102 0190 40000000 		.word	64
 1103              		.align	2
 1104              		.type	_ZL20TxTCR_COUNTER_ENABLE, %object
 1105              		.size	_ZL20TxTCR_COUNTER_ENABLE, 4
 1106              	_ZL20TxTCR_COUNTER_ENABLE:
 1107 0194 01000000 		.word	1
 1108              		.align	2
 1109              		.type	_ZL19TxTCR_COUNTER_RESET, %object
 1110              		.size	_ZL19TxTCR_COUNTER_RESET, 4
 1111              	_ZL19TxTCR_COUNTER_RESET:
 1112 0198 02000000 		.word	2
 1113              		.align	2
 1114              		.type	_ZL16TxMCR_INT_ON_MR0, %object
 1115              		.size	_ZL16TxMCR_INT_ON_MR0, 4
 1116              	_ZL16TxMCR_INT_ON_MR0:
 1117 019c 01000000 		.word	1
 1118              		.align	2
 1119              		.type	_ZL18TxMCR_RESET_ON_MR0, %object
 1120              		.size	_ZL18TxMCR_RESET_ON_MR0, 4
 1121              	_ZL18TxMCR_RESET_ON_MR0:
 1122 01a0 02000000 		.word	2
 1123              		.align	2
 1124              		.type	_ZL13TxIR_MR0_FLAG, %object
 1125              		.size	_ZL13TxIR_MR0_FLAG, 4
 1126              	_ZL13TxIR_MR0_FLAG:
 1127 01a4 01000000 		.word	1
 1128              		.align	2
 1129              		.type	_ZL13TxIR_MR1_FLAG, %object
 1130              		.size	_ZL13TxIR_MR1_FLAG, 4
 1131              	_ZL13TxIR_MR1_FLAG:
 1132 01a8 02000000 		.word	2
 1133              		.align	2
 1134              		.type	_ZL13TxIR_MR2_FLAG, %object
 1135              		.size	_ZL13TxIR_MR2_FLAG, 4
 1136              	_ZL13TxIR_MR2_FLAG:
 1137 01ac 04000000 		.word	4
 1138              		.align	2
 1139              		.type	_ZL13TxIR_MR3_FLAG, %object
 1140              		.size	_ZL13TxIR_MR3_FLAG, 4
 1141              	_ZL13TxIR_MR3_FLAG:
 1142 01b0 08000000 		.word	8
 1143              		.align	2
 1144              		.type	_ZL13TxIR_CR0_FLAG, %object
 1145              		.size	_ZL13TxIR_CR0_FLAG, 4
 1146              	_ZL13TxIR_CR0_FLAG:
 1147 01b4 10000000 		.word	16
ARM GAS  /tmp/cc2q7bJm.s 			page 26


 1148              		.align	2
 1149              		.type	_ZL13TxIR_CR1_FLAG, %object
 1150              		.size	_ZL13TxIR_CR1_FLAG, 4
 1151              	_ZL13TxIR_CR1_FLAG:
 1152 01b8 20000000 		.word	32
 1153              		.align	2
 1154              		.type	_ZL13TxIR_CR2_FLAG, %object
 1155              		.size	_ZL13TxIR_CR2_FLAG, 4
 1156              	_ZL13TxIR_CR2_FLAG:
 1157 01bc 40000000 		.word	64
 1158              		.align	2
 1159              		.type	_ZL13TxIR_CR3_FLAG, %object
 1160              		.size	_ZL13TxIR_CR3_FLAG, 4
 1161              	_ZL13TxIR_CR3_FLAG:
 1162 01c0 80000000 		.word	128
 1163              		.align	2
 1164              		.type	_ZL12TxCCR_CAP0RE, %object
 1165              		.size	_ZL12TxCCR_CAP0RE, 4
 1166              	_ZL12TxCCR_CAP0RE:
 1167 01c4 01000000 		.word	1
 1168              		.align	2
 1169              		.type	_ZL12TxCCR_CAP0FE, %object
 1170              		.size	_ZL12TxCCR_CAP0FE, 4
 1171              	_ZL12TxCCR_CAP0FE:
 1172 01c8 02000000 		.word	2
 1173              		.align	2
 1174              		.type	_ZL11TxCCR_CAP0I, %object
 1175              		.size	_ZL11TxCCR_CAP0I, 4
 1176              	_ZL11TxCCR_CAP0I:
 1177 01cc 04000000 		.word	4
 1178              		.align	2
 1179              		.type	_ZL12TxCCR_CAP1RE, %object
 1180              		.size	_ZL12TxCCR_CAP1RE, 4
 1181              	_ZL12TxCCR_CAP1RE:
 1182 01d0 08000000 		.word	8
 1183              		.align	2
 1184              		.type	_ZL12TxCCR_CAP1FE, %object
 1185              		.size	_ZL12TxCCR_CAP1FE, 4
 1186              	_ZL12TxCCR_CAP1FE:
 1187 01d4 10000000 		.word	16
 1188              		.align	2
 1189              		.type	_ZL11TxCCR_CAP1I, %object
 1190              		.size	_ZL11TxCCR_CAP1I, 4
 1191              	_ZL11TxCCR_CAP1I:
 1192 01d8 20000000 		.word	32
 1193              		.align	2
 1194              		.type	_ZL12TxCCR_CAP2RE, %object
 1195              		.size	_ZL12TxCCR_CAP2RE, 4
 1196              	_ZL12TxCCR_CAP2RE:
 1197 01dc 40000000 		.word	64
 1198              		.align	2
 1199              		.type	_ZL12TxCCR_CAP2FE, %object
 1200              		.size	_ZL12TxCCR_CAP2FE, 4
 1201              	_ZL12TxCCR_CAP2FE:
 1202 01e0 80000000 		.word	128
 1203              		.align	2
 1204              		.type	_ZL11TxCCR_CAP2I, %object
ARM GAS  /tmp/cc2q7bJm.s 			page 27


 1205              		.size	_ZL11TxCCR_CAP2I, 4
 1206              	_ZL11TxCCR_CAP2I:
 1207 01e4 00010000 		.word	256
 1208              		.align	2
 1209              		.type	_ZL12TxCCR_CAP3RE, %object
 1210              		.size	_ZL12TxCCR_CAP3RE, 4
 1211              	_ZL12TxCCR_CAP3RE:
 1212 01e8 00020000 		.word	512
 1213              		.align	2
 1214              		.type	_ZL12TxCCR_CAP3FE, %object
 1215              		.size	_ZL12TxCCR_CAP3FE, 4
 1216              	_ZL12TxCCR_CAP3FE:
 1217 01ec 00040000 		.word	1024
 1218              		.align	2
 1219              		.type	_ZL11TxCCR_CAP3I, %object
 1220              		.size	_ZL11TxCCR_CAP3I, 4
 1221              	_ZL11TxCCR_CAP3I:
 1222 01f0 00080000 		.word	2048
 1223              		.align	2
 1224              		.type	_ZL9ADxCR_PDN, %object
 1225              		.size	_ZL9ADxCR_PDN, 4
 1226              	_ZL9ADxCR_PDN:
 1227 01f4 00002000 		.word	2097152
 1228              		.align	2
 1229              		.type	_ZL15ADxCR_START_NOW, %object
 1230              		.size	_ZL15ADxCR_START_NOW, 4
 1231              	_ZL15ADxCR_START_NOW:
 1232 01f8 00000001 		.word	16777216
 1233              		.align	2
 1234              		.type	_ZL11ADxGDR_DONE, %object
 1235              		.size	_ZL11ADxGDR_DONE, 4
 1236              	_ZL11ADxGDR_DONE:
 1237 01fc 00000080 		.word	-2147483648
 1238              		.align	2
 1239              		.type	_ZL7PWMMR0R, %object
 1240              		.size	_ZL7PWMMR0R, 4
 1241              	_ZL7PWMMR0R:
 1242 0200 02000000 		.word	2
 1243              		.align	2
 1244              		.type	_ZL7LER0_EN, %object
 1245              		.size	_ZL7LER0_EN, 4
 1246              	_ZL7LER0_EN:
 1247 0204 01000000 		.word	1
 1248              		.align	2
 1249              		.type	_ZL7LER1_EN, %object
 1250              		.size	_ZL7LER1_EN, 4
 1251              	_ZL7LER1_EN:
 1252 0208 02000000 		.word	2
 1253              		.align	2
 1254              		.type	_ZL7LER2_EN, %object
 1255              		.size	_ZL7LER2_EN, 4
 1256              	_ZL7LER2_EN:
 1257 020c 04000000 		.word	4
 1258              		.align	2
 1259              		.type	_ZL7LER3_EN, %object
 1260              		.size	_ZL7LER3_EN, 4
 1261              	_ZL7LER3_EN:
ARM GAS  /tmp/cc2q7bJm.s 			page 28


 1262 0210 08000000 		.word	8
 1263              		.align	2
 1264              		.type	_ZL7LER4_EN, %object
 1265              		.size	_ZL7LER4_EN, 4
 1266              	_ZL7LER4_EN:
 1267 0214 10000000 		.word	16
 1268              		.align	2
 1269              		.type	_ZL7LER5_EN, %object
 1270              		.size	_ZL7LER5_EN, 4
 1271              	_ZL7LER5_EN:
 1272 0218 20000000 		.word	32
 1273              		.align	2
 1274              		.type	_ZL7LER6_EN, %object
 1275              		.size	_ZL7LER6_EN, 4
 1276              	_ZL7LER6_EN:
 1277 021c 40000000 		.word	64
 1278              		.align	2
 1279              		.type	_ZL7PWMENA1, %object
 1280              		.size	_ZL7PWMENA1, 4
 1281              	_ZL7PWMENA1:
 1282 0220 00020000 		.word	512
 1283              		.align	2
 1284              		.type	_ZL7PWMENA2, %object
 1285              		.size	_ZL7PWMENA2, 4
 1286              	_ZL7PWMENA2:
 1287 0224 00040000 		.word	1024
 1288              		.align	2
 1289              		.type	_ZL7PWMENA3, %object
 1290              		.size	_ZL7PWMENA3, 4
 1291              	_ZL7PWMENA3:
 1292 0228 00080000 		.word	2048
 1293              		.align	2
 1294              		.type	_ZL7PWMENA4, %object
 1295              		.size	_ZL7PWMENA4, 4
 1296              	_ZL7PWMENA4:
 1297 022c 00100000 		.word	4096
 1298              		.align	2
 1299              		.type	_ZL7PWMENA5, %object
 1300              		.size	_ZL7PWMENA5, 4
 1301              	_ZL7PWMENA5:
 1302 0230 00200000 		.word	8192
 1303              		.align	2
 1304              		.type	_ZL7PWMENA6, %object
 1305              		.size	_ZL7PWMENA6, 4
 1306              	_ZL7PWMENA6:
 1307 0234 00400000 		.word	16384
 1308              		.align	2
 1309              		.type	_ZL21PWMTCR_COUNTER_ENABLE, %object
 1310              		.size	_ZL21PWMTCR_COUNTER_ENABLE, 4
 1311              	_ZL21PWMTCR_COUNTER_ENABLE:
 1312 0238 01000000 		.word	1
 1313              		.align	2
 1314              		.type	_ZL12PWMTCR_RESET, %object
 1315              		.size	_ZL12PWMTCR_RESET, 4
 1316              	_ZL12PWMTCR_RESET:
 1317 023c 02000000 		.word	2
 1318              		.align	2
ARM GAS  /tmp/cc2q7bJm.s 			page 29


 1319              		.type	_ZL17PWMTCR_PWM_ENABLE, %object
 1320              		.size	_ZL17PWMTCR_PWM_ENABLE, 4
 1321              	_ZL17PWMTCR_PWM_ENABLE:
 1322 0240 08000000 		.word	8
 1323              		.align	2
 1324              		.type	_ZL10WDMOD_WDEN, %object
 1325              		.size	_ZL10WDMOD_WDEN, 4
 1326              	_ZL10WDMOD_WDEN:
 1327 0244 01000000 		.word	1
 1328              		.align	2
 1329              		.type	_ZL13WDMOD_WDRESET, %object
 1330              		.size	_ZL13WDMOD_WDRESET, 4
 1331              	_ZL13WDMOD_WDRESET:
 1332 0248 02000000 		.word	2
 1333              		.align	2
 1334              		.type	_ZL27HID_MESSAGE_ID_SYSTEM_DEBUG, %object
 1335              		.size	_ZL27HID_MESSAGE_ID_SYSTEM_DEBUG, 4
 1336              	_ZL27HID_MESSAGE_ID_SYSTEM_DEBUG:
 1337 024c C0000000 		.word	192
 1338              		.bss
 1339              		.align	2
 1340              	_ZZ26rootDirectory_files_streamiE3idx:
 1341 003c 00000000 		.space	4
 1342              		.text
 1343              	.Letext0: