ARM GAS  /tmp/ccX0J2UF.s 			page 1


   1              		.cpu arm7tdmi
   2              		.fpu softvfp
   3              		.eabi_attribute 20, 1
   4              		.eabi_attribute 21, 1
   5              		.eabi_attribute 23, 3
   6              		.eabi_attribute 24, 1
   7              		.eabi_attribute 25, 1
   8              		.eabi_attribute 26, 1
   9              		.eabi_attribute 30, 6
  10              		.eabi_attribute 18, 4
  11              		.file	"sd_raw.cpp"
  12              	@ GNU C++ (Sourcery G++ Lite 2011.03-42) version 4.5.2 (arm-none-eabi)
  13              	@	compiled by GNU C version 4.3.2, GMP version 4.3.2, MPFR version 2.4.2, MPC version 0.8.1
  14              	@ GGC heuristics: --param ggc-min-expand=100 --param ggc-min-heapsize=131072
  15              	@ options passed:  -I . -I../arm/arm7lib -iprefix
  16              	@ /home/elijah/CodeSourcery/Sourcery_G++_Lite/bin/../lib/gcc/arm-none-eabi/4.5.2/
  17              	@ -isysroot
  18              	@ /home/elijah/CodeSourcery/Sourcery_G++_Lite/bin/../arm-none-eabi -MD
  19              	@ sd_raw.d -MF .dep/sd_raw.o.d -MP -MQ sd_raw.o -D__USES_INITFINI__
  20              	@ -D__CS_SOURCERYGXX_MAJ__=2011 -D__CS_SOURCERYGXX_MIN__=3
  21              	@ -D__CS_SOURCERYGXX_REV__=42 sd_raw.cpp -mcpu=arm7tdmi -auxbase-strip
  22              	@ sd_raw.o -gdwarf-2 -O0 -Wall -fno-rtti -fno-exceptions
  23              	@ -fomit-frame-pointer -ffunction-sections -fverbose-asm
  24              	@ options enabled:  -falign-loops -fargument-alias -fauto-inc-dec
  25              	@ -fbranch-count-reg -fcommon -fdelete-null-pointer-checks -fdwarf2-cfi-asm
  26              	@ -fearly-inlining -feliminate-unused-debug-types -ffunction-cse
  27              	@ -ffunction-sections -fgcse-lm -fident -finline-functions-called-once
  28              	@ -fira-share-save-slots -fira-share-spill-slots -fivopts
  29              	@ -fkeep-static-consts -fleading-underscore -fmath-errno
  30              	@ -fmerge-debug-strings -fmove-loop-invariants -fomit-frame-pointer
  31              	@ -fpeephole -fpromote-loop-indices -freg-struct-return
  32              	@ -fsched-critical-path-heuristic -fsched-dep-count-heuristic
  33              	@ -fsched-group-heuristic -fsched-interblock -fsched-last-insn-heuristic
  34              	@ -fsched-rank-heuristic -fsched-spec -fsched-spec-insn-heuristic
  35              	@ -fsched-stalled-insns-dep -fshow-column -fsigned-zeros
  36              	@ -fsplit-ivs-in-unroller -fstrict-volatile-bitfields -ftrapping-math
  37              	@ -ftree-cselim -ftree-forwprop -ftree-loop-im -ftree-loop-ivcanon
  38              	@ -ftree-loop-optimize -ftree-parallelize-loops= -ftree-phiprop -ftree-pta
  39              	@ -ftree-reassoc -ftree-scev-cprop -ftree-slp-vectorize
  40              	@ -ftree-vect-loop-version -funit-at-a-time -fverbose-asm
  41              	@ -fzero-initialized-in-bss -mlittle-endian -msched-prolog
  42              	@ -mthumb-interwork
  43              	
  44              		.section	.debug_abbrev,"",%progbits
  45              	.Ldebug_abbrev0:
  46              		.section	.debug_info,"",%progbits
  47              	.Ldebug_info0:
  48              		.section	.debug_line,"",%progbits
  49              	.Ldebug_line0:
  50 0000 BF060000 		.text
  50      02009203 
  50      00000201 
  50      FB0E0D00 
  50      01010101 
  51              	.Ltext0:
  52              	@ Compiler executable checksum: cfdaeede3ac8e9b2b599068efabc405c
  53              	
ARM GAS  /tmp/ccX0J2UF.s 			page 2


  54              		.cfi_sections	.debug_frame
  55              		.bss
  56              		.align	2
  57              	_ZL9raw_block:
  58 0000 00000000 		.space	512
  58      00000000 
  58      00000000 
  58      00000000 
  58      00000000 
  59              		.align	2
  60              	_ZL17raw_block_address:
  61 0200 00000000 		.space	4
  62              	_ZL17raw_block_written:
  63 0204 00       		.space	1
  64 0205 000000   		.section	.rodata
  65              		.align	2
  66              	.LC0:
  67 0000 53442052 		.ascii	"SD RAW NOT AVAILABLE\012\015\000"
  67      4157204E 
  67      4F542041 
  67      5641494C 
  67      41424C45 
  68 0017 00       		.align	2
  69              	.LC1:
  70 0018 0A0D7265 		.ascii	"\012\015response: %d\012\015\000"
  70      73706F6E 
  70      73653A20 
  70      25640A0D 
  70      00
  71 0029 000000   		.align	2
  72              	.LC2:
  73 002c 69203D20 		.ascii	"i = 0x7fff\012\015\000"
  73      30783766 
  73      66660A0D 
  73      00
  74 0039 000000   		.align	2
  75              	.LC3:
  76 003c 424C4F43 		.ascii	"BLOCK SIZE SET ERR \012\015\000"
  76      4B205349 
  76      5A452053 
  76      45542045 
  76      5252200A 
  77 0052 0000     		.align	2
  78              	.LC4:
  79 0054 73645F72 		.ascii	"sd_raw_read borks\012\015\000"
  79      61775F72 
  79      65616420 
  79      626F726B 
  79      730A0D00 
  80              		.section	.text._Z11sd_raw_initv,"ax",%progbits
  81              		.align	2
  82              		.global	_Z11sd_raw_initv
  83              		.type	_Z11sd_raw_initv, %function
  84              	_Z11sd_raw_initv:
  85              	.LFB109:
  86              		.file 1 "sd_raw.cpp"
   1:sd_raw.cpp    **** 
ARM GAS  /tmp/ccX0J2UF.s 			page 3


   2:sd_raw.cpp    **** /* This program is free software; you can redistribute it and/or modify
   3:sd_raw.cpp    ****  * it under the terms of the GNU General Public License version 2 as
   4:sd_raw.cpp    ****  * published by the Free Software Foundation.
   5:sd_raw.cpp    ****  */
   6:sd_raw.cpp    **** 
   7:sd_raw.cpp    **** #include "main.h"
   8:sd_raw.cpp    **** 
   9:sd_raw.cpp    **** /*
  10:sd_raw.cpp    **** #include <string.h>
  11:sd_raw.cpp    **** #include "sd_raw.h"
  12:sd_raw.cpp    **** #include "LPC214x.h"
  13:sd_raw.cpp    **** */
  14:sd_raw.cpp    **** 
  15:sd_raw.cpp    **** /**
  16:sd_raw.cpp    ****  * \addtogroup sd_raw MMC/SD card raw access
  17:sd_raw.cpp    ****  *
  18:sd_raw.cpp    ****  * This module implements read and write access to MMC and
  19:sd_raw.cpp    ****  * SD cards. It serves as a low-level driver for the higher
  20:sd_raw.cpp    ****  * level modules such as partition and file system access.
  21:sd_raw.cpp    ****  *
  22:sd_raw.cpp    ****  * @{
  23:sd_raw.cpp    ****  */
  24:sd_raw.cpp    **** /**
  25:sd_raw.cpp    ****  * \file
  26:sd_raw.cpp    ****  * MMC/SD raw access implementation.
  27:sd_raw.cpp    ****  *
  28:sd_raw.cpp    ****  * \author Roland Riegel
  29:sd_raw.cpp    ****  */
  30:sd_raw.cpp    **** 
  31:sd_raw.cpp    **** /**
  32:sd_raw.cpp    ****  * \addtogroup sd_raw_config MMC/SD configuration
  33:sd_raw.cpp    ****  * Preprocessor defines to configure the MMC/SD support.
  34:sd_raw.cpp    ****  */
  35:sd_raw.cpp    **** 
  36:sd_raw.cpp    **** /**
  37:sd_raw.cpp    ****  * @}
  38:sd_raw.cpp    ****  */
  39:sd_raw.cpp    **** 
  40:sd_raw.cpp    **** /* commands available in SPI mode */
  41:sd_raw.cpp    **** 
  42:sd_raw.cpp    **** /* CMD0: response R1 */
  43:sd_raw.cpp    **** #define CMD_GO_IDLE_STATE 0x00
  44:sd_raw.cpp    **** /* CMD1: response R1 */
  45:sd_raw.cpp    **** #define CMD_SEND_OP_COND 0x01
  46:sd_raw.cpp    **** /* CMD9: response R1 */
  47:sd_raw.cpp    **** #define CMD_SEND_CSD 0x09
  48:sd_raw.cpp    **** /* CMD10: response R1 */
  49:sd_raw.cpp    **** #define CMD_SEND_CID 0x0a
  50:sd_raw.cpp    **** /* CMD12: response R1 */
  51:sd_raw.cpp    **** #define CMD_STOP_TRANSMISSION 0x0c
  52:sd_raw.cpp    **** /* CMD13: response R2 */
  53:sd_raw.cpp    **** #define CMD_SEND_STATUS 0x0d
  54:sd_raw.cpp    **** /* CMD16: arg0[31:0]: block length, response R1 */
  55:sd_raw.cpp    **** #define CMD_SET_BLOCKLEN 0x10
  56:sd_raw.cpp    **** /* CMD17: arg0[31:0]: data address, response R1 */
  57:sd_raw.cpp    **** #define CMD_READ_SINGLE_BLOCK 0x11
  58:sd_raw.cpp    **** /* CMD18: arg0[31:0]: data address, response R1 */
ARM GAS  /tmp/ccX0J2UF.s 			page 4


  59:sd_raw.cpp    **** #define CMD_READ_MULTIPLE_BLOCK 0x12
  60:sd_raw.cpp    **** /* CMD24: arg0[31:0]: data address, response R1 */
  61:sd_raw.cpp    **** #define CMD_WRITE_SINGLE_BLOCK 0x18
  62:sd_raw.cpp    **** /* CMD25: arg0[31:0]: data address, response R1 */
  63:sd_raw.cpp    **** #define CMD_WRITE_MULTIPLE_BLOCK 0x19
  64:sd_raw.cpp    **** /* CMD27: response R1 */
  65:sd_raw.cpp    **** #define CMD_PROGRAM_CSD 0x1b
  66:sd_raw.cpp    **** /* CMD28: arg0[31:0]: data address, response R1b */
  67:sd_raw.cpp    **** #define CMD_SET_WRITE_PROT 0x1c
  68:sd_raw.cpp    **** /* CMD29: arg0[31:0]: data address, response R1b */
  69:sd_raw.cpp    **** #define CMD_CLR_WRITE_PROT 0x1d
  70:sd_raw.cpp    **** /* CMD30: arg0[31:0]: write protect data address, response R1 */
  71:sd_raw.cpp    **** #define CMD_SEND_WRITE_PROT 0x1e
  72:sd_raw.cpp    **** /* CMD32: arg0[31:0]: data address, response R1 */
  73:sd_raw.cpp    **** #define CMD_TAG_SECTOR_START 0x20
  74:sd_raw.cpp    **** /* CMD33: arg0[31:0]: data address, response R1 */
  75:sd_raw.cpp    **** #define CMD_TAG_SECTOR_END 0x21
  76:sd_raw.cpp    **** /* CMD34: arg0[31:0]: data address, response R1 */
  77:sd_raw.cpp    **** #define CMD_UNTAG_SECTOR 0x22
  78:sd_raw.cpp    **** /* CMD35: arg0[31:0]: data address, response R1 */
  79:sd_raw.cpp    **** #define CMD_TAG_ERASE_GROUP_START 0x23
  80:sd_raw.cpp    **** /* CMD36: arg0[31:0]: data address, response R1 */
  81:sd_raw.cpp    **** #define CMD_TAG_ERASE_GROUP_END 0x24
  82:sd_raw.cpp    **** /* CMD37: arg0[31:0]: data address, response R1 */
  83:sd_raw.cpp    **** #define CMD_UNTAG_ERASE_GROUP 0x25
  84:sd_raw.cpp    **** /* CMD38: arg0[31:0]: stuff bits, response R1b */
  85:sd_raw.cpp    **** #define CMD_ERASE 0x26
  86:sd_raw.cpp    **** /* CMD42: arg0[31:0]: stuff bits, response R1b */
  87:sd_raw.cpp    **** #define CMD_LOCK_UNLOCK 0x2a
  88:sd_raw.cpp    **** /* CMD58: response R3 */
  89:sd_raw.cpp    **** #define CMD_READ_OCR 0x3a
  90:sd_raw.cpp    **** /* CMD59: arg0[31:1]: stuff bits, arg0[0:0]: crc option, response R1 */
  91:sd_raw.cpp    **** #define CMD_CRC_ON_OFF 0x3b
  92:sd_raw.cpp    **** 
  93:sd_raw.cpp    **** /* command responses */
  94:sd_raw.cpp    **** /* R1: size 1 byte */
  95:sd_raw.cpp    **** #define R1_IDLE_STATE 0
  96:sd_raw.cpp    **** #define R1_ERASE_RESET 1
  97:sd_raw.cpp    **** #define R1_ILL_COMMAND 2
  98:sd_raw.cpp    **** #define R1_COM_CRC_ERR 3
  99:sd_raw.cpp    **** #define R1_ERASE_SEQ_ERR 4
 100:sd_raw.cpp    **** #define R1_ADDR_ERR 5
 101:sd_raw.cpp    **** #define R1_PARAM_ERR 6
 102:sd_raw.cpp    **** /* R1b: equals R1, additional busy bytes */
 103:sd_raw.cpp    **** /* R2: size 2 bytes */
 104:sd_raw.cpp    **** #define R2_CARD_LOCKED 0
 105:sd_raw.cpp    **** #define R2_WP_ERASE_SKIP 1
 106:sd_raw.cpp    **** #define R2_ERR 2
 107:sd_raw.cpp    **** #define R2_CARD_ERR 3
 108:sd_raw.cpp    **** #define R2_CARD_ECC_FAIL 4
 109:sd_raw.cpp    **** #define R2_WP_VIOLATION 5
 110:sd_raw.cpp    **** #define R2_INVAL_ERASE 6
 111:sd_raw.cpp    **** #define R2_OUT_OF_RANGE 7
 112:sd_raw.cpp    **** #define R2_CSD_OVERWRITE 7
 113:sd_raw.cpp    **** #define R2_IDLE_STATE (R1_IDLE_STATE + 8)
 114:sd_raw.cpp    **** #define R2_ERASE_RESET (R1_ERASE_RESET + 8)
 115:sd_raw.cpp    **** #define R2_ILL_COMMAND (R1_ILL_COMMAND + 8)
ARM GAS  /tmp/ccX0J2UF.s 			page 5


 116:sd_raw.cpp    **** #define R2_COM_CRC_ERR (R1_COM_CRC_ERR + 8)
 117:sd_raw.cpp    **** #define R2_ERASE_SEQ_ERR (R1_ERASE_SEQ_ERR + 8)
 118:sd_raw.cpp    **** #define R2_ADDR_ERR (R1_ADDR_ERR + 8)
 119:sd_raw.cpp    **** #define R2_PARAM_ERR (R1_PARAM_ERR + 8)
 120:sd_raw.cpp    **** /* R3: size 5 bytes */
 121:sd_raw.cpp    **** #define R3_OCR_MASK (0xffffffffUL)
 122:sd_raw.cpp    **** #define R3_IDLE_STATE (R1_IDLE_STATE + 32)
 123:sd_raw.cpp    **** #define R3_ERASE_RESET (R1_ERASE_RESET + 32)
 124:sd_raw.cpp    **** #define R3_ILL_COMMAND (R1_ILL_COMMAND + 32)
 125:sd_raw.cpp    **** #define R3_COM_CRC_ERR (R1_COM_CRC_ERR + 32)
 126:sd_raw.cpp    **** #define R3_ERASE_SEQ_ERR (R1_ERASE_SEQ_ERR + 32)
 127:sd_raw.cpp    **** #define R3_ADDR_ERR (R1_ADDR_ERR + 32)
 128:sd_raw.cpp    **** #define R3_PARAM_ERR (R1_PARAM_ERR + 32)
 129:sd_raw.cpp    **** /* Data Response: size 1 byte */
 130:sd_raw.cpp    **** #define DR_STATUS_MASK 0x0e
 131:sd_raw.cpp    **** #define DR_STATUS_ACCEPTED 0x05
 132:sd_raw.cpp    **** #define DR_STATUS_CRC_ERR 0x0a
 133:sd_raw.cpp    **** #define DR_STATUS_WRITE_ERR 0x0c
 134:sd_raw.cpp    **** 
 135:sd_raw.cpp    **** #if !SD_RAW_SAVE_RAM
 136:sd_raw.cpp    ****     
 137:sd_raw.cpp    ****     /* static data buffer for acceleration */
 138:sd_raw.cpp    ****     static unsigned char raw_block[512];
 139:sd_raw.cpp    ****     /* offset where the data within raw_block lies on the card */
 140:sd_raw.cpp    ****     static unsigned int raw_block_address;
 141:sd_raw.cpp    ****     #if SD_RAW_WRITE_BUFFERING
 142:sd_raw.cpp    ****     /* flag to remember if raw_block was written to the card */
 143:sd_raw.cpp    ****     static unsigned char raw_block_written;
 144:sd_raw.cpp    **** #endif
 145:sd_raw.cpp    **** 
 146:sd_raw.cpp    **** #endif
 147:sd_raw.cpp    **** 
 148:sd_raw.cpp    **** /* private helper functions */
 149:sd_raw.cpp    **** static void sd_raw_send_byte(unsigned char b);
 150:sd_raw.cpp    **** static unsigned char sd_raw_rec_byte(void);
 151:sd_raw.cpp    **** static unsigned char sd_raw_send_command_r1(unsigned char command, unsigned int arg);
 152:sd_raw.cpp    **** //static unsigned short sd_raw_send_command_r2(unsigned char command, unsigned int arg);
 153:sd_raw.cpp    **** 
 154:sd_raw.cpp    **** /**
 155:sd_raw.cpp    ****  * \ingroup sd_raw
 156:sd_raw.cpp    ****  * Initializes memory card communication.
 157:sd_raw.cpp    ****  *
 158:sd_raw.cpp    ****  * \returns 0 on failure, 1 on success.
 159:sd_raw.cpp    ****  */
 160:sd_raw.cpp    **** unsigned char sd_raw_init()
 161:sd_raw.cpp    **** {
  87              		.loc 1 161 0
  88              		.cfi_startproc
  89              		@ Function supports interworking.
  90              		@ args = 0, pretend = 0, frame = 16
  91              		@ frame_needed = 0, uses_anonymous_args = 0
  92 0000 04E02DE5 		str	lr, [sp, #-4]!	@,
  93              	.LCFI0:
  94              		.cfi_def_cfa_offset 4
  95 0004 14D04DE2 		sub	sp, sp, #20	@,,
  96              	.LCFI1:
  97              		.cfi_def_cfa_offset 24
ARM GAS  /tmp/ccX0J2UF.s 			page 6


  98              	.LBB2:
 162:sd_raw.cpp    **** 	UART0 * uart = UART0::GetInstance();
  99              		.loc 1 162 0
 100              		.cfi_offset 14, -4
 101 0008 FEFFFFEB 		bl	_ZN5UART011GetInstanceEv	@
 102 000c 08008DE5 		str	r0, [sp, #8]	@, uart
 163:sd_raw.cpp    **** 
 164:sd_raw.cpp    ****     /* enable inputs for reading card status */
 165:sd_raw.cpp    ****     /*    configure_pin_available();*/
 166:sd_raw.cpp    ****     /*    configure_pin_locked();*/
 167:sd_raw.cpp    **** 
 168:sd_raw.cpp    ****     /* enable outputs for MOSI, SCK, SS, input for MISO */
 169:sd_raw.cpp    ****     configure_pin_ss();
 103              		.loc 1 169 0
 104 0010 04339FE5 		ldr	r3, .L16	@ D.10836,
 105 0014 00239FE5 		ldr	r2, .L16	@ D.10837,
 106 0018 002092E5 		ldr	r2, [r2, #0]	@ D.10838,* D.10837
 107 001c 012682E3 		orr	r2, r2, #1048576	@ D.10839, D.10838,
 108 0020 002083E5 		str	r2, [r3, #0]	@ D.10839,* D.10836
 170:sd_raw.cpp    ****     configure_pin_mosi();
 109              		.loc 1 170 0
 110 0024 F4329FE5 		ldr	r3, .L16+4	@ D.10840,
 111 0028 F0229FE5 		ldr	r2, .L16+4	@ D.10841,
 112 002c 002092E5 		ldr	r2, [r2, #0]	@ D.10842,* D.10841
 113 0030 802082E3 		orr	r2, r2, #128	@ D.10843, D.10842,
 114 0034 002083E5 		str	r2, [r3, #0]	@ D.10843,* D.10840
 171:sd_raw.cpp    ****     configure_pin_miso();
 115              		.loc 1 171 0
 116 0038 E0329FE5 		ldr	r3, .L16+4	@ D.10844,
 117 003c DC229FE5 		ldr	r2, .L16+4	@ D.10845,
 118 0040 002092E5 		ldr	r2, [r2, #0]	@ D.10846,* D.10845
 119 0044 202082E3 		orr	r2, r2, #32	@ D.10847, D.10846,
 120 0048 002083E5 		str	r2, [r3, #0]	@ D.10847,* D.10844
 172:sd_raw.cpp    ****     configure_pin_sck();
 121              		.loc 1 172 0
 122 004c CC329FE5 		ldr	r3, .L16+4	@ D.10848,
 123 0050 C8229FE5 		ldr	r2, .L16+4	@ D.10849,
 124 0054 002092E5 		ldr	r2, [r2, #0]	@ D.10850,* D.10849
 125 0058 082082E3 		orr	r2, r2, #8	@ D.10851, D.10850,
 126 005c 002083E5 		str	r2, [r3, #0]	@ D.10851,* D.10848
 173:sd_raw.cpp    **** 
 174:sd_raw.cpp    ****     unselect_card();
 127              		.loc 1 174 0
 128 0060 BC329FE5 		ldr	r3, .L16+8	@ D.10852,
 129 0064 B8229FE5 		ldr	r2, .L16+8	@ D.10853,
 130 0068 002092E5 		ldr	r2, [r2, #0]	@ D.10854,* D.10853
 131 006c 012682E3 		orr	r2, r2, #1048576	@ D.10855, D.10854,
 132 0070 002083E5 		str	r2, [r3, #0]	@ D.10855,* D.10852
 175:sd_raw.cpp    **** 
 176:sd_raw.cpp    ****     /* initialize SPI with lowest frequency; max. 400kHz during identification mode of card */
 177:sd_raw.cpp    ****     //S0SPCCR = 150;  /* Set frequency to 400kHz */
 178:sd_raw.cpp    ****     //S0SPCR = 0x38;
 179:sd_raw.cpp    ****     SSPCR0 = 0x0E07;  // 8 bits/transfer, SPI mode, CPOL CPHA, SCR,
 133              		.loc 1 179 0
 134 0074 AC329FE5 		ldr	r3, .L16+12	@ D.10856,
 135 0078 AC229FE5 		ldr	r2, .L16+16	@ tmp200,
 136 007c B020C3E1 		strh	r2, [r3, #0]	@ movhi	@ tmp199,* D.10856
ARM GAS  /tmp/ccX0J2UF.s 			page 7


 180:sd_raw.cpp    ****     SSPCPSR = 0x04;
 137              		.loc 1 180 0
 138 0080 A8329FE5 		ldr	r3, .L16+20	@ D.10857,
 139 0084 0420A0E3 		mov	r2, #4	@ tmp201,
 140 0088 0020C3E5 		strb	r2, [r3, #0]	@ tmp202,* D.10857
 181:sd_raw.cpp    ****     SSPCR1 = 0x02;
 141              		.loc 1 181 0
 142 008c A0329FE5 		ldr	r3, .L16+24	@ D.10858,
 143 0090 0220A0E3 		mov	r2, #2	@ tmp203,
 144 0094 0020C3E5 		strb	r2, [r3, #0]	@ tmp204,* D.10858
 182:sd_raw.cpp    **** 
 183:sd_raw.cpp    **** 
 184:sd_raw.cpp    **** 
 185:sd_raw.cpp    ****     /* initialization procedure */
 186:sd_raw.cpp    **** 
 187:sd_raw.cpp    ****     if(!sd_raw_available())
 145              		.loc 1 187 0
 146 0098 FEFFFFEB 		bl	_Z16sd_raw_availablev	@
 147 009c 0030A0E1 		mov	r3, r0	@ tmp205,
 148 00a0 000053E3 		cmp	r3, #0	@ D.10860,
 149 00a4 0030A013 		movne	r3, #0	@, tmp207
 150 00a8 0130A003 		moveq	r3, #1	@, tmp207
 151 00ac FF3003E2 		and	r3, r3, #255	@ retval.29, tmp206,
 152 00b0 000053E3 		cmp	r3, #0	@ retval.29,
 153 00b4 0400000A 		beq	.L2	@,
 188:sd_raw.cpp    ****     {
 189:sd_raw.cpp    ****         uart->WriteLine("SD RAW NOT AVAILABLE\n\r");
 154              		.loc 1 189 0
 155 00b8 08009DE5 		ldr	r0, [sp, #8]	@, uart
 156 00bc 74129FE5 		ldr	r1, .L16+28	@,
 157 00c0 FEFFFFEB 		bl	_ZN5UART09WriteLineEPKcz	@
 190:sd_raw.cpp    ****         return 0;
 158              		.loc 1 190 0
 159 00c4 0030A0E3 		mov	r3, #0	@ D.10863,
 160 00c8 8F0000EA 		b	.L3	@
 161              	.L2:
 191:sd_raw.cpp    ****     }
 192:sd_raw.cpp    ****     configure_pin_ss();
 162              		.loc 1 192 0
 163 00cc 48329FE5 		ldr	r3, .L16	@ D.10864,
 164 00d0 44229FE5 		ldr	r2, .L16	@ D.10865,
 165 00d4 002092E5 		ldr	r2, [r2, #0]	@ D.10866,* D.10865
 166 00d8 012682E3 		orr	r2, r2, #1048576	@ D.10867, D.10866,
 167 00dc 002083E5 		str	r2, [r3, #0]	@ D.10867,* D.10864
 193:sd_raw.cpp    ****     unselect_card();
 168              		.loc 1 193 0
 169 00e0 3C329FE5 		ldr	r3, .L16+8	@ D.10868,
 170 00e4 38229FE5 		ldr	r2, .L16+8	@ D.10869,
 171 00e8 002092E5 		ldr	r2, [r2, #0]	@ D.10870,* D.10869
 172 00ec 012682E3 		orr	r2, r2, #1048576	@ D.10871, D.10870,
 173 00f0 002083E5 		str	r2, [r3, #0]	@ D.10871,* D.10868
 194:sd_raw.cpp    **** 
 195:sd_raw.cpp    ****     unsigned short i;
 196:sd_raw.cpp    ****     /* card needs 74 cycles minimum to start up */
 197:sd_raw.cpp    ****     for(i = 0; i < 10; ++i)
 174              		.loc 1 197 0
 175 00f4 0030A0E3 		mov	r3, #0	@ tmp209,
ARM GAS  /tmp/ccX0J2UF.s 			page 8


 176 00f8 BE30CDE1 		strh	r3, [sp, #14]	@ movhi	@ tmp208, i
 177 00fc 030000EA 		b	.L4	@
 178              	.L5:
 198:sd_raw.cpp    ****     {
 199:sd_raw.cpp    ****         /* wait 8 clock cycles */
 200:sd_raw.cpp    ****         sd_raw_rec_byte();
 179              		.loc 1 200 0 discriminator 2
 180 0100 FEFFFFEB 		bl	_ZL15sd_raw_rec_bytev	@
 197:sd_raw.cpp    ****     for(i = 0; i < 10; ++i)
 181              		.loc 1 197 0 discriminator 2
 182 0104 BE30DDE1 		ldrh	r3, [sp, #14]	@ movhi	@ tmp210, i
 183 0108 013083E2 		add	r3, r3, #1	@ tmp211, tmp210,
 184 010c BE30CDE1 		strh	r3, [sp, #14]	@ movhi	@ tmp211, i
 185              	.L4:
 197:sd_raw.cpp    ****     for(i = 0; i < 10; ++i)
 186              		.loc 1 197 0 is_stmt 0 discriminator 1
 187 0110 BE30DDE1 		ldrh	r3, [sp, #14]	@ tmp213, i
 188 0114 090053E3 		cmp	r3, #9	@ tmp213,
 189 0118 0030A083 		movhi	r3, #0	@, tmp214
 190 011c 0130A093 		movls	r3, #1	@, tmp214
 191 0120 FF3003E2 		and	r3, r3, #255	@ D.10875, tmp212,
 192 0124 000053E3 		cmp	r3, #0	@ D.10875,
 193 0128 F4FFFF1A 		bne	.L5	@,
 201:sd_raw.cpp    ****     }
 202:sd_raw.cpp    **** 
 203:sd_raw.cpp    ****     /* address card */
 204:sd_raw.cpp    ****     select_card();
 194              		.loc 1 204 0 is_stmt 1
 195 012c 08329FE5 		ldr	r3, .L16+32	@ D.10877,
 196 0130 04229FE5 		ldr	r2, .L16+32	@ D.10878,
 197 0134 002092E5 		ldr	r2, [r2, #0]	@ D.10879,* D.10878
 198 0138 012682E3 		orr	r2, r2, #1048576	@ D.10880, D.10879,
 199 013c 002083E5 		str	r2, [r3, #0]	@ D.10880,* D.10877
 205:sd_raw.cpp    **** 
 206:sd_raw.cpp    ****     /* reset card */
 207:sd_raw.cpp    ****     unsigned char response;
 208:sd_raw.cpp    ****     for(i = 0; ; ++i)
 200              		.loc 1 208 0
 201 0140 0030A0E3 		mov	r3, #0	@ tmp216,
 202 0144 BE30CDE1 		strh	r3, [sp, #14]	@ movhi	@ tmp215, i
 203              	.L9:
 209:sd_raw.cpp    ****     {
 210:sd_raw.cpp    ****         response = sd_raw_send_command_r1(CMD_GO_IDLE_STATE, 0);
 204              		.loc 1 210 0
 205 0148 0000A0E3 		mov	r0, #0	@,
 206 014c 0010A0E3 		mov	r1, #0	@,
 207 0150 FEFFFFEB 		bl	_ZL22sd_raw_send_command_r1hj	@
 208 0154 0030A0E1 		mov	r3, r0	@ tmp217,
 209 0158 0730CDE5 		strb	r3, [sp, #7]	@ tmp218, response
 211:sd_raw.cpp    ****         if(response == (1 << R1_IDLE_STATE))
 210              		.loc 1 211 0
 211 015c 0730DDE5 		ldrb	r3, [sp, #7]	@ zero_extendqisi2	@ tmp219, response
 212 0160 010053E3 		cmp	r3, #1	@ tmp219,
 213 0164 0200001A 		bne	.L6	@,
 212:sd_raw.cpp    ****             break;
 213:sd_raw.cpp    **** 
 214:sd_raw.cpp    ****         if(i == 0x1ff)
ARM GAS  /tmp/ccX0J2UF.s 			page 9


 215:sd_raw.cpp    ****         {
 216:sd_raw.cpp    ****         	uart->WriteLine("\n\rresponse: %d\n\r",response);
 217:sd_raw.cpp    ****             unselect_card();
 218:sd_raw.cpp    ****             return 0;
 219:sd_raw.cpp    ****         }
 220:sd_raw.cpp    ****     }
 221:sd_raw.cpp    **** 
 222:sd_raw.cpp    ****     /* wait for card to get ready */
 223:sd_raw.cpp    ****     for(i = 0; ; ++i)
 214              		.loc 1 223 0
 215 0168 0030A0E3 		mov	r3, #0	@ tmp221,
 216 016c BE30CDE1 		strh	r3, [sp, #14]	@ movhi	@ tmp220, i
 217 0170 130000EA 		b	.L7	@
 218              	.L6:
 214:sd_raw.cpp    ****         if(i == 0x1ff)
 219              		.loc 1 214 0
 220 0174 BE20DDE1 		ldrh	r2, [sp, #14]	@ tmp222, i
 221 0178 C0319FE5 		ldr	r3, .L16+36	@ tmp223,
 222 017c 030052E1 		cmp	r2, r3	@ tmp222, tmp223
 223 0180 0B00001A 		bne	.L8	@,
 216:sd_raw.cpp    ****         	uart->WriteLine("\n\rresponse: %d\n\r",response);
 224              		.loc 1 216 0
 225 0184 0730DDE5 		ldrb	r3, [sp, #7]	@ zero_extendqisi2	@ D.10888, response
 226 0188 08009DE5 		ldr	r0, [sp, #8]	@, uart
 227 018c B0119FE5 		ldr	r1, .L16+40	@,
 228 0190 0320A0E1 		mov	r2, r3	@, D.10888
 229 0194 FEFFFFEB 		bl	_ZN5UART09WriteLineEPKcz	@
 217:sd_raw.cpp    ****             unselect_card();
 230              		.loc 1 217 0
 231 0198 84319FE5 		ldr	r3, .L16+8	@ D.10889,
 232 019c 80219FE5 		ldr	r2, .L16+8	@ D.10890,
 233 01a0 002092E5 		ldr	r2, [r2, #0]	@ D.10891,* D.10890
 234 01a4 012682E3 		orr	r2, r2, #1048576	@ D.10892, D.10891,
 235 01a8 002083E5 		str	r2, [r3, #0]	@ D.10892,* D.10889
 218:sd_raw.cpp    ****             return 0;
 236              		.loc 1 218 0
 237 01ac 0030A0E3 		mov	r3, #0	@ D.10863,
 238 01b0 550000EA 		b	.L3	@
 239              	.L8:
 208:sd_raw.cpp    ****     for(i = 0; ; ++i)
 240              		.loc 1 208 0
 241 01b4 BE30DDE1 		ldrh	r3, [sp, #14]	@ movhi	@ tmp224, i
 242 01b8 013083E2 		add	r3, r3, #1	@ tmp225, tmp224,
 243 01bc BE30CDE1 		strh	r3, [sp, #14]	@ movhi	@ tmp225, i
 244 01c0 E0FFFFEA 		b	.L9	@
 245              	.L7:
 224:sd_raw.cpp    ****     {
 225:sd_raw.cpp    ****         response = sd_raw_send_command_r1(CMD_SEND_OP_COND, 0);
 246              		.loc 1 225 0
 247 01c4 0100A0E3 		mov	r0, #1	@,
 248 01c8 0010A0E3 		mov	r1, #0	@,
 249 01cc FEFFFFEB 		bl	_ZL22sd_raw_send_command_r1hj	@
 250 01d0 0030A0E1 		mov	r3, r0	@ tmp226,
 251 01d4 0730CDE5 		strb	r3, [sp, #7]	@ tmp227, response
 226:sd_raw.cpp    ****         if(!(response & (1 << R1_IDLE_STATE)))
 252              		.loc 1 226 0
 253 01d8 0730DDE5 		ldrb	r3, [sp, #7]	@ zero_extendqisi2	@ D.10896, response
ARM GAS  /tmp/ccX0J2UF.s 			page 10


 254 01dc 013003E2 		and	r3, r3, #1	@ D.10897, D.10896,
 255 01e0 FF3003E2 		and	r3, r3, #255	@ D.10898, D.10897,
 256 01e4 013023E2 		eor	r3, r3, #1	@ tmp228, D.10898,
 257 01e8 FF3003E2 		and	r3, r3, #255	@ D.10899, tmp228,
 258 01ec 000053E3 		cmp	r3, #0	@ D.10899,
 259 01f0 0A00000A 		beq	.L10	@,
 227:sd_raw.cpp    ****             break;
 228:sd_raw.cpp    **** 
 229:sd_raw.cpp    ****         if(i == 0x7fff)
 230:sd_raw.cpp    ****         {
 231:sd_raw.cpp    ****             unselect_card();
 232:sd_raw.cpp    ****             uart->WriteLine("i = 0x7fff\n\r");
 233:sd_raw.cpp    ****             return 0;
 234:sd_raw.cpp    ****         }
 235:sd_raw.cpp    ****     }
 236:sd_raw.cpp    **** 
 237:sd_raw.cpp    ****     /* set block size to 512 bytes */
 238:sd_raw.cpp    ****     if(sd_raw_send_command_r1(CMD_SET_BLOCKLEN, 512))
 260              		.loc 1 238 0
 261 01f4 1000A0E3 		mov	r0, #16	@,
 262 01f8 021CA0E3 		mov	r1, #512	@,
 263 01fc FEFFFFEB 		bl	_ZL22sd_raw_send_command_r1hj	@
 264 0200 0030A0E1 		mov	r3, r0	@ tmp229,
 265 0204 000053E3 		cmp	r3, #0	@ D.10909,
 266 0208 0030A003 		moveq	r3, #0	@, tmp231
 267 020c 0130A013 		movne	r3, #1	@, tmp231
 268 0210 FF3003E2 		and	r3, r3, #255	@ retval.30, tmp230,
 269 0214 000053E3 		cmp	r3, #0	@ retval.30,
 270 0218 1200001A 		bne	.L11	@,
 271 021c 1B0000EA 		b	.L15	@
 272              	.L10:
 229:sd_raw.cpp    ****         if(i == 0x7fff)
 273              		.loc 1 229 0
 274 0220 BE20DDE1 		ldrh	r2, [sp, #14]	@ tmp232, i
 275 0224 1C319FE5 		ldr	r3, .L16+44	@ tmp233,
 276 0228 030052E1 		cmp	r2, r3	@ tmp232, tmp233
 277 022c 0900001A 		bne	.L13	@,
 231:sd_raw.cpp    ****             unselect_card();
 278              		.loc 1 231 0
 279 0230 EC309FE5 		ldr	r3, .L16+8	@ D.10904,
 280 0234 E8209FE5 		ldr	r2, .L16+8	@ D.10905,
 281 0238 002092E5 		ldr	r2, [r2, #0]	@ D.10906,* D.10905
 282 023c 012682E3 		orr	r2, r2, #1048576	@ D.10907, D.10906,
 283 0240 002083E5 		str	r2, [r3, #0]	@ D.10907,* D.10904
 232:sd_raw.cpp    ****             uart->WriteLine("i = 0x7fff\n\r");
 284              		.loc 1 232 0
 285 0244 08009DE5 		ldr	r0, [sp, #8]	@, uart
 286 0248 FC109FE5 		ldr	r1, .L16+48	@,
 287 024c FEFFFFEB 		bl	_ZN5UART09WriteLineEPKcz	@
 233:sd_raw.cpp    ****             return 0;
 288              		.loc 1 233 0
 289 0250 0030A0E3 		mov	r3, #0	@ D.10863,
 290 0254 2C0000EA 		b	.L3	@
 291              	.L13:
 223:sd_raw.cpp    ****     for(i = 0; ; ++i)
 292              		.loc 1 223 0
 293 0258 BE30DDE1 		ldrh	r3, [sp, #14]	@ movhi	@ tmp234, i
ARM GAS  /tmp/ccX0J2UF.s 			page 11


 294 025c 013083E2 		add	r3, r3, #1	@ tmp235, tmp234,
 295 0260 BE30CDE1 		strh	r3, [sp, #14]	@ movhi	@ tmp235, i
 296 0264 D6FFFFEA 		b	.L7	@
 297              	.L11:
 239:sd_raw.cpp    ****     {
 240:sd_raw.cpp    ****         unselect_card();
 298              		.loc 1 240 0
 299 0268 B4309FE5 		ldr	r3, .L16+8	@ D.10912,
 300 026c B0209FE5 		ldr	r2, .L16+8	@ D.10913,
 301 0270 002092E5 		ldr	r2, [r2, #0]	@ D.10914,* D.10913
 302 0274 012682E3 		orr	r2, r2, #1048576	@ D.10915, D.10914,
 303 0278 002083E5 		str	r2, [r3, #0]	@ D.10915,* D.10912
 241:sd_raw.cpp    ****         uart->WriteLine("BLOCK SIZE SET ERR \n\r");
 304              		.loc 1 241 0
 305 027c 08009DE5 		ldr	r0, [sp, #8]	@, uart
 306 0280 C8109FE5 		ldr	r1, .L16+52	@,
 307 0284 FEFFFFEB 		bl	_ZN5UART09WriteLineEPKcz	@
 242:sd_raw.cpp    ****         return 0;
 308              		.loc 1 242 0
 309 0288 0030A0E3 		mov	r3, #0	@ D.10863,
 310 028c 1E0000EA 		b	.L3	@
 311              	.L15:
 243:sd_raw.cpp    ****     }
 244:sd_raw.cpp    **** 
 245:sd_raw.cpp    ****     /* deaddress card */
 246:sd_raw.cpp    ****     unselect_card();
 312              		.loc 1 246 0
 313 0290 8C309FE5 		ldr	r3, .L16+8	@ D.10916,
 314 0294 88209FE5 		ldr	r2, .L16+8	@ D.10917,
 315 0298 002092E5 		ldr	r2, [r2, #0]	@ D.10918,* D.10917
 316 029c 012682E3 		orr	r2, r2, #1048576	@ D.10919, D.10918,
 317 02a0 002083E5 		str	r2, [r3, #0]	@ D.10919,* D.10916
 247:sd_raw.cpp    **** 
 248:sd_raw.cpp    ****     /* switch to highest SPI frequency possible */
 249:sd_raw.cpp    ****     //S0SPCCR = 60; /* ~1MHz-- potentially can be faster */
 250:sd_raw.cpp    ****     SSPCR0 = 0x0507;
 318              		.loc 1 250 0
 319 02a4 7C309FE5 		ldr	r3, .L16+12	@ D.10920,
 320 02a8 A4209FE5 		ldr	r2, .L16+56	@ tmp237,
 321 02ac B020C3E1 		strh	r2, [r3, #0]	@ movhi	@ tmp236,* D.10920
 251:sd_raw.cpp    **** 
 252:sd_raw.cpp    ****     #if !SD_RAW_SAVE_RAM
 253:sd_raw.cpp    ****         /* the first block is likely to be accessed first, so precache it here */
 254:sd_raw.cpp    ****         raw_block_address = 0xffffffff;
 322              		.loc 1 254 0
 323 02b0 A0309FE5 		ldr	r3, .L16+60	@ tmp238,
 324 02b4 0020E0E3 		mvn	r2, #0	@ tmp239,
 325 02b8 002083E5 		str	r2, [r3, #0]	@ tmp239, raw_block_address
 255:sd_raw.cpp    ****         #if SD_RAW_WRITE_BUFFERING
 256:sd_raw.cpp    ****         raw_block_written = 1;
 326              		.loc 1 256 0
 327 02bc 98309FE5 		ldr	r3, .L16+64	@ tmp240,
 328 02c0 0120A0E3 		mov	r2, #1	@ tmp241,
 329 02c4 0020C3E5 		strb	r2, [r3, #0]	@ tmp242, raw_block_written
 257:sd_raw.cpp    ****     #endif
 258:sd_raw.cpp    ****     if(!sd_raw_read(0, raw_block, sizeof(raw_block)))
 330              		.loc 1 258 0
ARM GAS  /tmp/ccX0J2UF.s 			page 12


 331 02c8 0000A0E3 		mov	r0, #0	@,
 332 02cc 8C109FE5 		ldr	r1, .L16+68	@,
 333 02d0 022CA0E3 		mov	r2, #512	@,
 334 02d4 FEFFFFEB 		bl	_Z11sd_raw_readjPht	@
 335 02d8 0030A0E1 		mov	r3, r0	@ tmp243,
 336 02dc 000053E3 		cmp	r3, #0	@ D.10922,
 337 02e0 0030A013 		movne	r3, #0	@, tmp245
 338 02e4 0130A003 		moveq	r3, #1	@, tmp245
 339 02e8 FF3003E2 		and	r3, r3, #255	@ retval.31, tmp244,
 340 02ec 000053E3 		cmp	r3, #0	@ retval.31,
 341 02f0 0400000A 		beq	.L14	@,
 259:sd_raw.cpp    ****     {
 260:sd_raw.cpp    ****     	uart->WriteLine("sd_raw_read borks\n\r");
 342              		.loc 1 260 0
 343 02f4 08009DE5 		ldr	r0, [sp, #8]	@, uart
 344 02f8 64109FE5 		ldr	r1, .L16+72	@,
 345 02fc FEFFFFEB 		bl	_ZN5UART09WriteLineEPKcz	@
 261:sd_raw.cpp    ****         return 0;
 346              		.loc 1 261 0
 347 0300 0030A0E3 		mov	r3, #0	@ D.10863,
 348 0304 000000EA 		b	.L3	@
 349              	.L14:
 262:sd_raw.cpp    ****     }
 263:sd_raw.cpp    ****     #endif
 264:sd_raw.cpp    **** 
 265:sd_raw.cpp    ****     return 1;
 350              		.loc 1 265 0
 351 0308 0130A0E3 		mov	r3, #1	@ D.10863,
 352              	.L3:
 353              	.LBE2:
 266:sd_raw.cpp    **** }
 354              		.loc 1 266 0
 355 030c 0300A0E1 		mov	r0, r3	@, <retval>
 356 0310 14D08DE2 		add	sp, sp, #20	@,,
 357 0314 04E09DE4 		ldr	lr, [sp], #4
 358 0318 1EFF2FE1 		bx	lr
 359              	.L17:
 360              		.align	2
 361              	.L16:
 362 031c 00C0FF3F 		.word	1073725440
 363 0320 04C002E0 		.word	-536690684
 364 0324 18C0FF3F 		.word	1073725464
 365 0328 008006E0 		.word	-536444928
 366 032c 070E0000 		.word	3591
 367 0330 108006E0 		.word	-536444912
 368 0334 048006E0 		.word	-536444924
 369 0338 00000000 		.word	.LC0
 370 033c 1CC0FF3F 		.word	1073725468
 371 0340 FF010000 		.word	511
 372 0344 18000000 		.word	.LC1
 373 0348 FF7F0000 		.word	32767
 374 034c 2C000000 		.word	.LC2
 375 0350 3C000000 		.word	.LC3
 376 0354 07050000 		.word	1287
 377 0358 00020000 		.word	_ZL17raw_block_address
 378 035c 04020000 		.word	_ZL17raw_block_written
 379 0360 00000000 		.word	_ZL9raw_block
ARM GAS  /tmp/ccX0J2UF.s 			page 13


 380 0364 54000000 		.word	.LC4
 381              		.cfi_endproc
 382              	.LFE109:
 383              		.size	_Z11sd_raw_initv, .-_Z11sd_raw_initv
 384              		.section	.text._Z16sd_raw_availablev,"ax",%progbits
 385              		.align	2
 386              		.global	_Z16sd_raw_availablev
 387              		.type	_Z16sd_raw_availablev, %function
 388              	_Z16sd_raw_availablev:
 389              	.LFB110:
 267:sd_raw.cpp    **** 
 268:sd_raw.cpp    **** /**
 269:sd_raw.cpp    ****  * \ingroup sd_raw
 270:sd_raw.cpp    ****  * Checks wether a memory card is located in the slot.
 271:sd_raw.cpp    ****  *
 272:sd_raw.cpp    ****  * \returns 1 if the card is available, 0 if it is not.
 273:sd_raw.cpp    ****  */
 274:sd_raw.cpp    **** unsigned char sd_raw_available()
 275:sd_raw.cpp    **** {
 390              		.loc 1 275 0
 391              		.cfi_startproc
 392              		@ Function supports interworking.
 393              		@ args = 0, pretend = 0, frame = 8
 394              		@ frame_needed = 0, uses_anonymous_args = 0
 395              		@ link register save eliminated.
 396 0000 08D04DE2 		sub	sp, sp, #8	@,,
 397              	.LCFI2:
 398              		.cfi_def_cfa_offset 8
 399              	.LBB3:
 276:sd_raw.cpp    ****     unsigned int i;
 277:sd_raw.cpp    ****     configure_pin_available();
 400              		.loc 1 277 0
 401 0004 98309FE5 		ldr	r3, .L21	@ D.10817,
 402 0008 94209FE5 		ldr	r2, .L21	@ D.10818,
 403 000c 002092E5 		ldr	r2, [r2, #0]	@ D.10819,* D.10818
 404 0010 0126C2E3 		bic	r2, r2, #1048576	@ D.10820, D.10819,
 405 0014 002083E5 		str	r2, [r3, #0]	@ D.10820,* D.10817
 278:sd_raw.cpp    ****     for(i=0;i<100000;i++);
 406              		.loc 1 278 0
 407 0018 0030A0E3 		mov	r3, #0	@ tmp148,
 408 001c 04308DE5 		str	r3, [sp, #4]	@ tmp148, i
 409 0020 020000EA 		b	.L19	@
 410              	.L20:
 411              		.loc 1 278 0 is_stmt 0 discriminator 2
 412 0024 04309DE5 		ldr	r3, [sp, #4]	@ tmp149, i
 413 0028 013083E2 		add	r3, r3, #1	@ tmp150, tmp149,
 414 002c 04308DE5 		str	r3, [sp, #4]	@ tmp150, i
 415              	.L19:
 416              		.loc 1 278 0 discriminator 1
 417 0030 04209DE5 		ldr	r2, [sp, #4]	@ tmp152, i
 418 0034 6C309FE5 		ldr	r3, .L21+4	@ tmp154,
 419 0038 030052E1 		cmp	r2, r3	@ tmp152, tmp154
 420 003c 0030A083 		movhi	r3, #0	@, tmp153
 421 0040 0130A093 		movls	r3, #1	@, tmp153
 422 0044 FF3003E2 		and	r3, r3, #255	@ D.10824, tmp151,
 423 0048 000053E3 		cmp	r3, #0	@ D.10824,
 424 004c F4FFFF1A 		bne	.L20	@,
ARM GAS  /tmp/ccX0J2UF.s 			page 14


 279:sd_raw.cpp    ****     i = get_pin_available();
 425              		.loc 1 279 0 is_stmt 1
 426 0050 54309FE5 		ldr	r3, .L21+8	@ D.10826,
 427 0054 003093E5 		ldr	r3, [r3, #0]	@ D.10827,* D.10826
 428 0058 013603E2 		and	r3, r3, #1048576	@ D.10828, D.10827,
 429 005c 233AA0E1 		mov	r3, r3, lsr #20	@ D.10829, D.10828,
 430 0060 000053E3 		cmp	r3, #0	@ D.10829,
 431 0064 0030A013 		movne	r3, #0	@, tmp155
 432 0068 0130A003 		moveq	r3, #1	@, tmp155
 433 006c 04308DE5 		str	r3, [sp, #4]	@ tmp155, i
 280:sd_raw.cpp    ****     configure_pin_ss();
 434              		.loc 1 280 0
 435 0070 2C309FE5 		ldr	r3, .L21	@ D.10830,
 436 0074 28209FE5 		ldr	r2, .L21	@ D.10831,
 437 0078 002092E5 		ldr	r2, [r2, #0]	@ D.10832,* D.10831
 438 007c 012682E3 		orr	r2, r2, #1048576	@ D.10833, D.10832,
 439 0080 002083E5 		str	r2, [r3, #0]	@ D.10833,* D.10830
 281:sd_raw.cpp    ****     return i == 0x00;
 440              		.loc 1 281 0
 441 0084 04309DE5 		ldr	r3, [sp, #4]	@ tmp157, i
 442 0088 000053E3 		cmp	r3, #0	@ tmp157,
 443 008c 0030A013 		movne	r3, #0	@, tmp158
 444 0090 0130A003 		moveq	r3, #1	@, tmp158
 445 0094 FF3003E2 		and	r3, r3, #255	@ D.10834, tmp156,
 446              	.LBE3:
 282:sd_raw.cpp    **** }
 447              		.loc 1 282 0
 448 0098 0300A0E1 		mov	r0, r3	@, <retval>
 449 009c 08D08DE2 		add	sp, sp, #8	@,,
 450 00a0 1EFF2FE1 		bx	lr
 451              	.L22:
 452              		.align	2
 453              	.L21:
 454 00a4 00C0FF3F 		.word	1073725440
 455 00a8 9F860100 		.word	99999
 456 00ac 14C0FF3F 		.word	1073725460
 457              		.cfi_endproc
 458              	.LFE110:
 459              		.size	_Z16sd_raw_availablev, .-_Z16sd_raw_availablev
 460              		.section	.text._Z13sd_raw_lockedv,"ax",%progbits
 461              		.align	2
 462              		.global	_Z13sd_raw_lockedv
 463              		.type	_Z13sd_raw_lockedv, %function
 464              	_Z13sd_raw_lockedv:
 465              	.LFB111:
 283:sd_raw.cpp    **** 
 284:sd_raw.cpp    **** /**
 285:sd_raw.cpp    ****  * \ingroup sd_raw
 286:sd_raw.cpp    ****  * Checks wether the memory card is locked for write access.
 287:sd_raw.cpp    ****  *
 288:sd_raw.cpp    ****  * \returns 1 if the card is locked, 0 if it is not.
 289:sd_raw.cpp    ****  */
 290:sd_raw.cpp    **** unsigned char sd_raw_locked()
 291:sd_raw.cpp    **** {
 466              		.loc 1 291 0
 467              		.cfi_startproc
 468              		@ Function supports interworking.
ARM GAS  /tmp/ccX0J2UF.s 			page 15


 469              		@ args = 0, pretend = 0, frame = 0
 470              		@ frame_needed = 0, uses_anonymous_args = 0
 471              		@ link register save eliminated.
 292:sd_raw.cpp    ****     return get_pin_locked() == 0x00;
 472              		.loc 1 292 0
 473 0000 0130A0E3 		mov	r3, #1	@ D.10815,
 293:sd_raw.cpp    **** }
 474              		.loc 1 293 0
 475 0004 0300A0E1 		mov	r0, r3	@, <retval>
 476 0008 1EFF2FE1 		bx	lr	@
 477              		.cfi_endproc
 478              	.LFE111:
 479              		.size	_Z13sd_raw_lockedv, .-_Z13sd_raw_lockedv
 480              		.section	.text._ZL16sd_raw_send_byteh,"ax",%progbits
 481              		.align	2
 482              		.type	_ZL16sd_raw_send_byteh, %function
 483              	_ZL16sd_raw_send_byteh:
 484              	.LFB112:
 294:sd_raw.cpp    **** 
 295:sd_raw.cpp    **** /**
 296:sd_raw.cpp    ****  * \ingroup sd_raw
 297:sd_raw.cpp    ****  * Sends a raw byte to the memory card.
 298:sd_raw.cpp    ****  *
 299:sd_raw.cpp    ****  * \param[in] b The byte to sent.
 300:sd_raw.cpp    ****  * \see sd_raw_rec_byte
 301:sd_raw.cpp    ****  */
 302:sd_raw.cpp    **** void sd_raw_send_byte(unsigned char b)
 303:sd_raw.cpp    **** {
 485              		.loc 1 303 0
 486              		.cfi_startproc
 487              		@ Function supports interworking.
 488              		@ args = 0, pretend = 0, frame = 8
 489              		@ frame_needed = 0, uses_anonymous_args = 0
 490              		@ link register save eliminated.
 491 0000 08D04DE2 		sub	sp, sp, #8	@,,
 492              	.LCFI3:
 493              		.cfi_def_cfa_offset 8
 494 0004 0030A0E1 		mov	r3, r0	@ tmp141, b
 495 0008 0730CDE5 		strb	r3, [sp, #7]	@ tmp142, b
 304:sd_raw.cpp    ****     SSPDR = b;
 496              		.loc 1 304 0
 497 000c 3C309FE5 		ldr	r3, .L26	@ D.10804,
 498 0010 0720DDE5 		ldrb	r2, [sp, #7]	@ zero_extendqisi2	@ tmp144, b
 499 0014 0228A0E1 		mov	r2, r2, asl #16	@ tmp145, tmp143,
 500 0018 2228A0E1 		mov	r2, r2, lsr #16	@ D.10805, tmp145,
 501 001c B020C3E1 		strh	r2, [r3, #0]	@ movhi	@ D.10805,* D.10804
 305:sd_raw.cpp    ****     //S0SPDR = b;
 306:sd_raw.cpp    ****     /* wait for byte to be shifted out */
 307:sd_raw.cpp    ****     //while(!(S0SPSR & 0x80));
 308:sd_raw.cpp    ****     // while TX FIFO not empty...
 309:sd_raw.cpp    ****     while(!(SSPSR & 0x01));
 502              		.loc 1 309 0
 503 0020 0000A0E1 		mov	r0, r0	@ nop
 504              	.L25:
 505              		.loc 1 309 0 is_stmt 0 discriminator 1
 506 0024 28309FE5 		ldr	r3, .L26+4	@ D.10810,
 507 0028 0030D3E5 		ldrb	r3, [r3, #0]	@ tmp146,* D.10810
ARM GAS  /tmp/ccX0J2UF.s 			page 16


 508 002c FF3003E2 		and	r3, r3, #255	@ D.10811, tmp146,
 509 0030 013003E2 		and	r3, r3, #1	@ D.10813, D.10812,
 510 0034 FF3003E2 		and	r3, r3, #255	@ D.10814, D.10813,
 511 0038 013023E2 		eor	r3, r3, #1	@ tmp147, D.10814,
 512 003c FF3003E2 		and	r3, r3, #255	@ retval.28, tmp147,
 513 0040 000053E3 		cmp	r3, #0	@ retval.28,
 514 0044 F6FFFF1A 		bne	.L25	@,
 310:sd_raw.cpp    **** }
 515              		.loc 1 310 0 is_stmt 1
 516 0048 08D08DE2 		add	sp, sp, #8	@,,
 517 004c 1EFF2FE1 		bx	lr
 518              	.L27:
 519              		.align	2
 520              	.L26:
 521 0050 088006E0 		.word	-536444920
 522 0054 0C8006E0 		.word	-536444916
 523              		.cfi_endproc
 524              	.LFE112:
 525              		.size	_ZL16sd_raw_send_byteh, .-_ZL16sd_raw_send_byteh
 526              		.section	.text._ZL15sd_raw_rec_bytev,"ax",%progbits
 527              		.align	2
 528              		.type	_ZL15sd_raw_rec_bytev, %function
 529              	_ZL15sd_raw_rec_bytev:
 530              	.LFB113:
 311:sd_raw.cpp    **** 
 312:sd_raw.cpp    **** /**
 313:sd_raw.cpp    ****  * \ingroup sd_raw
 314:sd_raw.cpp    ****  * Receives a raw byte from the memory card.
 315:sd_raw.cpp    ****  *
 316:sd_raw.cpp    ****  * \returns The byte which should be read.
 317:sd_raw.cpp    ****  * \see sd_raw_send_byte
 318:sd_raw.cpp    ****  */
 319:sd_raw.cpp    **** unsigned char sd_raw_rec_byte(void)
 320:sd_raw.cpp    **** {
 531              		.loc 1 320 0
 532              		.cfi_startproc
 533              		@ Function supports interworking.
 534              		@ args = 0, pretend = 0, frame = 0
 535              		@ frame_needed = 0, uses_anonymous_args = 0
 536              		@ link register save eliminated.
 321:sd_raw.cpp    ****     /* send dummy data for receiving some */
 322:sd_raw.cpp    ****     //S0SPDR = 0xff;
 323:sd_raw.cpp    **** 	SSPDR = 0xff;
 537              		.loc 1 323 0
 538 0000 48309FE5 		ldr	r3, .L30	@ D.10790,
 539 0004 FF20A0E3 		mov	r2, #255	@ tmp145,
 540 0008 B020C3E1 		strh	r2, [r3, #0]	@ movhi	@ tmp144,* D.10790
 324:sd_raw.cpp    ****     //while(!(S0SPSR & 0x80));
 325:sd_raw.cpp    ****     while(!(SSPSR & 0x01));
 541              		.loc 1 325 0
 542 000c 0000A0E1 		mov	r0, r0	@ nop
 543              	.L29:
 544              		.loc 1 325 0 is_stmt 0 discriminator 1
 545 0010 3C309FE5 		ldr	r3, .L30+4	@ D.10795,
 546 0014 0030D3E5 		ldrb	r3, [r3, #0]	@ tmp146,* D.10795
 547 0018 FF3003E2 		and	r3, r3, #255	@ D.10796, tmp146,
 548 001c 013003E2 		and	r3, r3, #1	@ D.10798, D.10797,
ARM GAS  /tmp/ccX0J2UF.s 			page 17


 549 0020 FF3003E2 		and	r3, r3, #255	@ D.10799, D.10798,
 550 0024 013023E2 		eor	r3, r3, #1	@ tmp147, D.10799,
 551 0028 FF3003E2 		and	r3, r3, #255	@ retval.27, tmp147,
 552 002c 000053E3 		cmp	r3, #0	@ retval.27,
 553 0030 F6FFFF1A 		bne	.L29	@,
 326:sd_raw.cpp    **** 
 327:sd_raw.cpp    ****     return SSPDR;
 554              		.loc 1 327 0 is_stmt 1
 555 0034 14309FE5 		ldr	r3, .L30	@ D.10801,
 556 0038 B030D3E1 		ldrh	r3, [r3, #0]	@ movhi	@ tmp148,* D.10801
 557 003c 0338A0E1 		mov	r3, r3, asl #16	@ tmp149, tmp148,
 558 0040 2338A0E1 		mov	r3, r3, lsr #16	@ D.10802, tmp149,
 559 0044 FF3003E2 		and	r3, r3, #255	@ D.10800, D.10802,
 328:sd_raw.cpp    **** }
 560              		.loc 1 328 0
 561 0048 0300A0E1 		mov	r0, r3	@, <retval>
 562 004c 1EFF2FE1 		bx	lr	@
 563              	.L31:
 564              		.align	2
 565              	.L30:
 566 0050 088006E0 		.word	-536444920
 567 0054 0C8006E0 		.word	-536444916
 568              		.cfi_endproc
 569              	.LFE113:
 570              		.size	_ZL15sd_raw_rec_bytev, .-_ZL15sd_raw_rec_bytev
 571              		.section	.text._ZL22sd_raw_send_command_r1hj,"ax",%progbits
 572              		.align	2
 573              		.type	_ZL22sd_raw_send_command_r1hj, %function
 574              	_ZL22sd_raw_send_command_r1hj:
 575              	.LFB114:
 329:sd_raw.cpp    **** 
 330:sd_raw.cpp    **** /**
 331:sd_raw.cpp    ****  * \ingroup sd_raw
 332:sd_raw.cpp    ****  * Send a command to the memory card which responses with a R1 response.
 333:sd_raw.cpp    ****  *
 334:sd_raw.cpp    ****  * \param[in] command The command to send.
 335:sd_raw.cpp    ****  * \param[in] arg The argument for command.
 336:sd_raw.cpp    ****  * \returns The command answer.
 337:sd_raw.cpp    ****  */
 338:sd_raw.cpp    **** unsigned char sd_raw_send_command_r1(unsigned char command, unsigned int arg)
 339:sd_raw.cpp    **** {
 576              		.loc 1 339 0
 577              		.cfi_startproc
 578              		@ Function supports interworking.
 579              		@ args = 0, pretend = 0, frame = 16
 580              		@ frame_needed = 0, uses_anonymous_args = 0
 581 0000 04E02DE5 		str	lr, [sp, #-4]!	@,
 582              	.LCFI4:
 583              		.cfi_def_cfa_offset 4
 584 0004 14D04DE2 		sub	sp, sp, #20	@,,
 585              	.LCFI5:
 586              		.cfi_def_cfa_offset 24
 587 0008 0030A0E1 		mov	r3, r0	@ tmp145, command
 588 000c 00108DE5 		str	r1, [sp, #0]	@ arg, arg
 589 0010 0730CDE5 		strb	r3, [sp, #7]	@ tmp146, command
 590              	.LBB4:
 340:sd_raw.cpp    ****     unsigned char response;
ARM GAS  /tmp/ccX0J2UF.s 			page 18


 341:sd_raw.cpp    ****     unsigned char i;
 342:sd_raw.cpp    **** 
 343:sd_raw.cpp    ****     /* wait some clock cycles */
 344:sd_raw.cpp    ****     sd_raw_rec_byte();
 591              		.loc 1 344 0
 592              		.cfi_offset 14, -4
 593 0014 FEFFFFEB 		bl	_ZL15sd_raw_rec_bytev	@
 345:sd_raw.cpp    **** 
 346:sd_raw.cpp    ****     /* send command via SPI */
 347:sd_raw.cpp    ****     sd_raw_send_byte(0x40 | command);
 594              		.loc 1 347 0
 595 0018 0730DDE5 		ldrb	r3, [sp, #7]	@ tmp147, command
 596 001c 403083E3 		orr	r3, r3, #64	@ tmp148, tmp147,
 597 0020 FF3003E2 		and	r3, r3, #255	@ D.10769, tmp148,
 598 0024 0300A0E1 		mov	r0, r3	@, D.10769
 599 0028 FEFFFFEB 		bl	_ZL16sd_raw_send_byteh	@
 348:sd_raw.cpp    ****     sd_raw_send_byte((arg >> 24) & 0xff);
 600              		.loc 1 348 0
 601 002c 00309DE5 		ldr	r3, [sp, #0]	@ tmp149, arg
 602 0030 233CA0E1 		mov	r3, r3, lsr #24	@ D.10770, tmp149,
 603 0034 FF3003E2 		and	r3, r3, #255	@ D.10771, D.10770,
 604 0038 0300A0E1 		mov	r0, r3	@, D.10771
 605 003c FEFFFFEB 		bl	_ZL16sd_raw_send_byteh	@
 349:sd_raw.cpp    ****     sd_raw_send_byte((arg >> 16) & 0xff);
 606              		.loc 1 349 0
 607 0040 00309DE5 		ldr	r3, [sp, #0]	@ tmp150, arg
 608 0044 2338A0E1 		mov	r3, r3, lsr #16	@ D.10772, tmp150,
 609 0048 FF3003E2 		and	r3, r3, #255	@ D.10773, D.10772,
 610 004c 0300A0E1 		mov	r0, r3	@, D.10773
 611 0050 FEFFFFEB 		bl	_ZL16sd_raw_send_byteh	@
 350:sd_raw.cpp    ****     sd_raw_send_byte((arg >> 8) & 0xff);
 612              		.loc 1 350 0
 613 0054 00309DE5 		ldr	r3, [sp, #0]	@ tmp151, arg
 614 0058 2334A0E1 		mov	r3, r3, lsr #8	@ D.10774, tmp151,
 615 005c FF3003E2 		and	r3, r3, #255	@ D.10775, D.10774,
 616 0060 0300A0E1 		mov	r0, r3	@, D.10775
 617 0064 FEFFFFEB 		bl	_ZL16sd_raw_send_byteh	@
 351:sd_raw.cpp    ****     sd_raw_send_byte((arg >> 0) & 0xff);
 618              		.loc 1 351 0
 619 0068 00309DE5 		ldr	r3, [sp, #0]	@ tmp152, arg
 620 006c FF3003E2 		and	r3, r3, #255	@ D.10776, tmp152,
 621 0070 0300A0E1 		mov	r0, r3	@, D.10776
 622 0074 FEFFFFEB 		bl	_ZL16sd_raw_send_byteh	@
 352:sd_raw.cpp    ****     sd_raw_send_byte((command == CMD_GO_IDLE_STATE) ? 0x95 : 0xff);
 623              		.loc 1 352 0
 624 0078 0730DDE5 		ldrb	r3, [sp, #7]	@ zero_extendqisi2	@ tmp153, command
 625 007c 000053E3 		cmp	r3, #0	@ tmp153,
 626 0080 0100001A 		bne	.L33	@,
 627              		.loc 1 352 0 is_stmt 0 discriminator 1
 628 0084 9530A0E3 		mov	r3, #149	@ iftmp.26,
 629 0088 000000EA 		b	.L34	@
 630              	.L33:
 631              		.loc 1 352 0 discriminator 2
 632 008c FF30A0E3 		mov	r3, #255	@ iftmp.26,
 633              	.L34:
 634              		.loc 1 352 0 discriminator 3
 635 0090 0300A0E1 		mov	r0, r3	@, iftmp.26
ARM GAS  /tmp/ccX0J2UF.s 			page 19


 636 0094 FEFFFFEB 		bl	_ZL16sd_raw_send_byteh	@
 353:sd_raw.cpp    **** 
 354:sd_raw.cpp    ****     /* receive response */
 355:sd_raw.cpp    ****     for(i = 0; i < 10; ++i)
 637              		.loc 1 355 0 is_stmt 1 discriminator 3
 638 0098 0030A0E3 		mov	r3, #0	@ tmp154,
 639 009c 0E30CDE5 		strb	r3, [sp, #14]	@ tmp155, i
 640 00a0 080000EA 		b	.L35	@
 641              	.L38:
 356:sd_raw.cpp    ****     {
 357:sd_raw.cpp    ****         response = sd_raw_rec_byte();
 642              		.loc 1 357 0
 643 00a4 FEFFFFEB 		bl	_ZL15sd_raw_rec_bytev	@
 644 00a8 0030A0E1 		mov	r3, r0	@ tmp156,
 645 00ac 0F30CDE5 		strb	r3, [sp, #15]	@ tmp157, response
 358:sd_raw.cpp    ****         if(response != 0xff)
 646              		.loc 1 358 0
 647 00b0 0F30DDE5 		ldrb	r3, [sp, #15]	@ zero_extendqisi2	@ tmp158, response
 648 00b4 FF0053E3 		cmp	r3, #255	@ tmp158,
 649 00b8 0A00001A 		bne	.L39	@,
 650              	.L36:
 355:sd_raw.cpp    ****     for(i = 0; i < 10; ++i)
 651              		.loc 1 355 0
 652 00bc 0E30DDE5 		ldrb	r3, [sp, #14]	@ tmp159, i
 653 00c0 013083E2 		add	r3, r3, #1	@ tmp160, tmp159,
 654 00c4 0E30CDE5 		strb	r3, [sp, #14]	@ tmp161, i
 655              	.L35:
 355:sd_raw.cpp    ****     for(i = 0; i < 10; ++i)
 656              		.loc 1 355 0 is_stmt 0 discriminator 1
 657 00c8 0E30DDE5 		ldrb	r3, [sp, #14]	@ zero_extendqisi2	@ tmp163, i
 658 00cc 090053E3 		cmp	r3, #9	@ tmp163,
 659 00d0 0030A083 		movhi	r3, #0	@, tmp164
 660 00d4 0130A093 		movls	r3, #1	@, tmp164
 661 00d8 FF3003E2 		and	r3, r3, #255	@ D.10784, tmp162,
 662 00dc 000053E3 		cmp	r3, #0	@ D.10784,
 663 00e0 EFFFFF1A 		bne	.L38	@,
 664 00e4 000000EA 		b	.L37	@
 665              	.L39:
 359:sd_raw.cpp    ****             break;
 666              		.loc 1 359 0 is_stmt 1
 667 00e8 0000A0E1 		mov	r0, r0	@ nop
 668              	.L37:
 360:sd_raw.cpp    ****     }
 361:sd_raw.cpp    **** 
 362:sd_raw.cpp    ****     return response;
 669              		.loc 1 362 0
 670 00ec 0F30DDE5 		ldrb	r3, [sp, #15]	@ zero_extendqisi2	@ D.10788, response
 671              	.LBE4:
 363:sd_raw.cpp    **** }
 672              		.loc 1 363 0
 673 00f0 0300A0E1 		mov	r0, r3	@, <retval>
 674 00f4 14D08DE2 		add	sp, sp, #20	@,,
 675 00f8 04E09DE4 		ldr	lr, [sp], #4
 676 00fc 1EFF2FE1 		bx	lr
 677              		.cfi_endproc
 678              	.LFE114:
 679              		.size	_ZL22sd_raw_send_command_r1hj, .-_ZL22sd_raw_send_command_r1hj
ARM GAS  /tmp/ccX0J2UF.s 			page 20


 680              		.section	.text._Z11sd_raw_readjPht,"ax",%progbits
 681              		.align	2
 682              		.global	_Z11sd_raw_readjPht
 683              		.type	_Z11sd_raw_readjPht, %function
 684              	_Z11sd_raw_readjPht:
 685              	.LFB115:
 364:sd_raw.cpp    **** 
 365:sd_raw.cpp    **** /**
 366:sd_raw.cpp    ****  * \ingroup sd_raw
 367:sd_raw.cpp    ****  * Send a command to the memory card which responses with a R2 response.
 368:sd_raw.cpp    ****  *
 369:sd_raw.cpp    ****  * \param[in] command The command to send.
 370:sd_raw.cpp    ****  * \param[in] arg The argument for command.
 371:sd_raw.cpp    ****  * \returns The command answer.
 372:sd_raw.cpp    ****  */
 373:sd_raw.cpp    **** /*
 374:sd_raw.cpp    **** unsigned short sd_raw_send_command_r2(unsigned char command, unsigned int arg)
 375:sd_raw.cpp    **** {
 376:sd_raw.cpp    ****     unsigned short response;
 377:sd_raw.cpp    ****     unsigned char i;
 378:sd_raw.cpp    **** 
 379:sd_raw.cpp    ****     // wait some clock cycles
 380:sd_raw.cpp    ****     sd_raw_rec_byte();
 381:sd_raw.cpp    **** 
 382:sd_raw.cpp    ****     // send command via SPI
 383:sd_raw.cpp    ****     sd_raw_send_byte(0x40 | command);
 384:sd_raw.cpp    ****     sd_raw_send_byte((arg >> 24) & 0xff);
 385:sd_raw.cpp    ****     sd_raw_send_byte((arg >> 16) & 0xff);
 386:sd_raw.cpp    ****     sd_raw_send_byte((arg >> 8) & 0xff);
 387:sd_raw.cpp    ****     sd_raw_send_byte((arg >> 0) & 0xff);
 388:sd_raw.cpp    ****     sd_raw_send_byte(command == CMD_GO_IDLE_STATE ? 0x95 : 0xff);
 389:sd_raw.cpp    **** 
 390:sd_raw.cpp    ****     // receive response
 391:sd_raw.cpp    ****     for(i = 0; i < 10; ++i)
 392:sd_raw.cpp    ****     {
 393:sd_raw.cpp    ****         response = sd_raw_rec_byte();
 394:sd_raw.cpp    ****         if(response != 0xff)
 395:sd_raw.cpp    ****             break;
 396:sd_raw.cpp    ****     }
 397:sd_raw.cpp    ****     response <<= 8;
 398:sd_raw.cpp    ****     response |= sd_raw_rec_byte();
 399:sd_raw.cpp    **** 
 400:sd_raw.cpp    ****     return response;
 401:sd_raw.cpp    **** }
 402:sd_raw.cpp    **** */
 403:sd_raw.cpp    **** 
 404:sd_raw.cpp    **** /**
 405:sd_raw.cpp    ****  * \ingroup sd_raw
 406:sd_raw.cpp    ****  * Reads raw data from the card.
 407:sd_raw.cpp    ****  *
 408:sd_raw.cpp    ****  * \param[in] offset The offset from which to read.
 409:sd_raw.cpp    ****  * \param[out] buffer The buffer into which to write the data.
 410:sd_raw.cpp    ****  * \param[in] length The number of bytes to read.
 411:sd_raw.cpp    ****  * \returns 0 on failure, 1 on success.
 412:sd_raw.cpp    ****  * \see sd_raw_read_interval, sd_raw_write
 413:sd_raw.cpp    ****  */
 414:sd_raw.cpp    **** unsigned char sd_raw_read(unsigned int offset, unsigned char* buffer, unsigned short length)
ARM GAS  /tmp/ccX0J2UF.s 			page 21


 415:sd_raw.cpp    **** {
 686              		.loc 1 415 0
 687              		.cfi_startproc
 688              		@ Function supports interworking.
 689              		@ args = 0, pretend = 0, frame = 40
 690              		@ frame_needed = 0, uses_anonymous_args = 0
 691 0000 04E02DE5 		str	lr, [sp, #-4]!	@,
 692              	.LCFI6:
 693              		.cfi_def_cfa_offset 4
 694 0004 2CD04DE2 		sub	sp, sp, #44	@,,
 695              	.LCFI7:
 696              		.cfi_def_cfa_offset 48
 697 0008 0C008DE5 		str	r0, [sp, #12]	@ offset, offset
 698 000c 08108DE5 		str	r1, [sp, #8]	@ buffer, buffer
 699 0010 0230A0E1 		mov	r3, r2	@ tmp168, length
 700 0014 B630CDE1 		strh	r3, [sp, #6]	@ movhi	@ tmp168, length
 701              	.LBB5:
 416:sd_raw.cpp    ****     unsigned int block_address;
 417:sd_raw.cpp    ****     unsigned short block_offset;
 418:sd_raw.cpp    ****     unsigned short read_length;
 419:sd_raw.cpp    ****     while(length > 0)
 702              		.loc 1 419 0
 703 0018 890000EA 		b	.L41	@
 704              		.cfi_offset 14, -4
 705              	.L51:
 706              	.LBB6:
 420:sd_raw.cpp    ****     {
 421:sd_raw.cpp    ****         /* determine byte count to read at once */
 422:sd_raw.cpp    ****         block_address = offset & 0xfffffe00;
 707              		.loc 1 422 0
 708 001c 0C309DE5 		ldr	r3, [sp, #12]	@ tmp169, offset
 709 0020 7F3FC3E3 		bic	r3, r3, #508	@ tmp170, tmp169,
 710 0024 0330C3E3 		bic	r3, r3, #3	@ tmp170, tmp170,
 711 0028 18308DE5 		str	r3, [sp, #24]	@ tmp170, block_address
 423:sd_raw.cpp    ****         block_offset = offset & 0x01ff;
 712              		.loc 1 423 0
 713 002c 0C309DE5 		ldr	r3, [sp, #12]	@ tmp171, offset
 714 0030 0338A0E1 		mov	r3, r3, asl #16	@ tmp172, tmp171,
 715 0034 2338A0E1 		mov	r3, r3, lsr #16	@ D.10715, tmp172,
 716 0038 833BA0E1 		mov	r3, r3, asl #23	@ tmp173, D.10715,
 717 003c A33BA0E1 		mov	r3, r3, lsr #23	@ tmp173, tmp173,
 718 0040 B631CDE1 		strh	r3, [sp, #22]	@ movhi	@ tmp173, block_offset
 424:sd_raw.cpp    ****         read_length = 512 - block_offset; /* read up to block border */
 719              		.loc 1 424 0
 720 0044 B631DDE1 		ldrh	r3, [sp, #22]	@ movhi	@ tmp174, block_offset
 721 0048 023C63E2 		rsb	r3, r3, #512	@ tmp175, tmp174,
 722 004c B632CDE1 		strh	r3, [sp, #38]	@ movhi	@ tmp175, read_length
 425:sd_raw.cpp    ****         if(read_length > length)
 723              		.loc 1 425 0
 724 0050 B622DDE1 		ldrh	r2, [sp, #38]	@ tmp176, read_length
 725 0054 B630DDE1 		ldrh	r3, [sp, #6]	@ tmp177, length
 726 0058 030052E1 		cmp	r2, r3	@ tmp176, tmp177
 727 005c 0100009A 		bls	.L42	@,
 426:sd_raw.cpp    ****             read_length = length;
 728              		.loc 1 426 0
 729 0060 B630DDE1 		ldrh	r3, [sp, #6]	@ movhi	@ tmp178, length
 730 0064 B632CDE1 		strh	r3, [sp, #38]	@ movhi	@ tmp178, read_length
ARM GAS  /tmp/ccX0J2UF.s 			page 22


 731              	.L42:
 732              	.LBB7:
 427:sd_raw.cpp    **** 
 428:sd_raw.cpp    ****         #if !SD_RAW_SAVE_RAM
 429:sd_raw.cpp    ****             /* check if the requested data is cached */
 430:sd_raw.cpp    ****             if(block_address != raw_block_address)
 733              		.loc 1 430 0
 734 0068 04329FE5 		ldr	r3, .L53	@ tmp179,
 735 006c 003093E5 		ldr	r3, [r3, #0]	@ raw_block_address.20, raw_block_address
 736 0070 18209DE5 		ldr	r2, [sp, #24]	@ tmp180, block_address
 737 0074 030052E1 		cmp	r2, r3	@ tmp180, raw_block_address.20
 738 0078 6100000A 		beq	.L43	@,
 739              	.LBB8:
 431:sd_raw.cpp    ****             #endif
 432:sd_raw.cpp    ****         {
 433:sd_raw.cpp    ****             #if SD_RAW_WRITE_BUFFERING
 434:sd_raw.cpp    ****                 if(!raw_block_written)
 740              		.loc 1 434 0
 741 007c F4319FE5 		ldr	r3, .L53+4	@ tmp181,
 742 0080 0030D3E5 		ldrb	r3, [r3, #0]	@ zero_extendqisi2	@ raw_block_written.21, raw_block_written
 743 0084 000053E3 		cmp	r3, #0	@ raw_block_written.21,
 744 0088 0E00001A 		bne	.L44	@,
 435:sd_raw.cpp    ****                 {
 436:sd_raw.cpp    ****                     if(!sd_raw_write(raw_block_address, raw_block, sizeof(raw_block)))
 745              		.loc 1 436 0
 746 008c E0319FE5 		ldr	r3, .L53	@ tmp182,
 747 0090 003093E5 		ldr	r3, [r3, #0]	@ raw_block_address.23, raw_block_address
 748 0094 0300A0E1 		mov	r0, r3	@, raw_block_address.23
 749 0098 DC119FE5 		ldr	r1, .L53+8	@,
 750 009c 022CA0E3 		mov	r2, #512	@,
 751 00a0 FEFFFFEB 		bl	_Z12sd_raw_writejPKht	@
 752 00a4 0030A0E1 		mov	r3, r0	@ tmp183,
 753 00a8 000053E3 		cmp	r3, #0	@ D.10727,
 754 00ac 0030A013 		movne	r3, #0	@, tmp185
 755 00b0 0130A003 		moveq	r3, #1	@, tmp185
 756 00b4 FF3003E2 		and	r3, r3, #255	@ retval.22, tmp184,
 757 00b8 000053E3 		cmp	r3, #0	@ retval.22,
 758 00bc 0100000A 		beq	.L44	@,
 437:sd_raw.cpp    ****                         return 0;
 759              		.loc 1 437 0
 760 00c0 0030A0E3 		mov	r3, #0	@ D.10730,
 761 00c4 660000EA 		b	.L45	@
 762              	.L44:
 438:sd_raw.cpp    ****                 }
 439:sd_raw.cpp    ****             #endif
 440:sd_raw.cpp    **** 
 441:sd_raw.cpp    ****             /* address card */
 442:sd_raw.cpp    ****             select_card();
 763              		.loc 1 442 0
 764 00c8 B0319FE5 		ldr	r3, .L53+12	@ D.10732,
 765 00cc AC219FE5 		ldr	r2, .L53+12	@ D.10733,
 766 00d0 002092E5 		ldr	r2, [r2, #0]	@ D.10734,* D.10733
 767 00d4 012682E3 		orr	r2, r2, #1048576	@ D.10735, D.10734,
 768 00d8 002083E5 		str	r2, [r3, #0]	@ D.10735,* D.10732
 443:sd_raw.cpp    **** 
 444:sd_raw.cpp    ****             /* send single block request */
 445:sd_raw.cpp    ****             if(sd_raw_send_command_r1(CMD_READ_SINGLE_BLOCK, block_address))
ARM GAS  /tmp/ccX0J2UF.s 			page 23


 769              		.loc 1 445 0
 770 00dc 1100A0E3 		mov	r0, #17	@,
 771 00e0 18109DE5 		ldr	r1, [sp, #24]	@, block_address
 772 00e4 FEFFFFEB 		bl	_ZL22sd_raw_send_command_r1hj	@
 773 00e8 0030A0E1 		mov	r3, r0	@ tmp186,
 774 00ec 000053E3 		cmp	r3, #0	@ D.10737,
 775 00f0 0030A003 		moveq	r3, #0	@, tmp188
 776 00f4 0130A013 		movne	r3, #1	@, tmp188
 777 00f8 FF3003E2 		and	r3, r3, #255	@ retval.24, tmp187,
 778 00fc 000053E3 		cmp	r3, #0	@ retval.24,
 779 0100 0600000A 		beq	.L52	@,
 446:sd_raw.cpp    ****             {
 447:sd_raw.cpp    ****                 unselect_card();
 780              		.loc 1 447 0
 781 0104 78319FE5 		ldr	r3, .L53+16	@ D.10740,
 782 0108 74219FE5 		ldr	r2, .L53+16	@ D.10741,
 783 010c 002092E5 		ldr	r2, [r2, #0]	@ D.10742,* D.10741
 784 0110 012682E3 		orr	r2, r2, #1048576	@ D.10743, D.10742,
 785 0114 002083E5 		str	r2, [r3, #0]	@ D.10743,* D.10740
 448:sd_raw.cpp    ****                 return 0;
 786              		.loc 1 448 0
 787 0118 0030A0E3 		mov	r3, #0	@ D.10730,
 788 011c 500000EA 		b	.L45	@
 789              	.L52:
 449:sd_raw.cpp    ****             }
 450:sd_raw.cpp    **** 
 451:sd_raw.cpp    ****             /* wait for data block (start byte 0xfe) */
 452:sd_raw.cpp    ****             while(sd_raw_rec_byte() != 0xfe);
 790              		.loc 1 452 0
 791 0120 0000A0E1 		mov	r0, r0	@ nop
 792              	.L47:
 793              		.loc 1 452 0 is_stmt 0 discriminator 1
 794 0124 FEFFFFEB 		bl	_ZL15sd_raw_rec_bytev	@
 795 0128 0030A0E1 		mov	r3, r0	@ tmp189,
 796 012c FE0053E3 		cmp	r3, #254	@ D.10748,
 797 0130 0030A003 		moveq	r3, #0	@, tmp191
 798 0134 0130A013 		movne	r3, #1	@, tmp191
 799 0138 FF3003E2 		and	r3, r3, #255	@ retval.25, tmp190,
 800 013c 000053E3 		cmp	r3, #0	@ retval.25,
 801 0140 F7FFFF1A 		bne	.L47	@,
 453:sd_raw.cpp    **** 
 454:sd_raw.cpp    ****             #if SD_RAW_SAVE_RAM
 455:sd_raw.cpp    ****                 /* read byte block */
 456:sd_raw.cpp    ****                 unsigned short read_to = block_offset + read_length;
 457:sd_raw.cpp    ****                 for(unsigned short i = 0; i < 512; ++i)
 458:sd_raw.cpp    ****                 {
 459:sd_raw.cpp    ****                     unsigned char b = sd_raw_rec_byte();
 460:sd_raw.cpp    ****                     if(i >= block_offset && i < read_to)
 461:sd_raw.cpp    ****                         *buffer++ = b;
 462:sd_raw.cpp    ****                 }
 463:sd_raw.cpp    ****             #else
 464:sd_raw.cpp    ****                 /* read byte block */
 465:sd_raw.cpp    ****                 unsigned char* cache = raw_block;
 802              		.loc 1 465 0 is_stmt 1
 803 0144 30319FE5 		ldr	r3, .L53+8	@ tmp192,
 804 0148 20308DE5 		str	r3, [sp, #32]	@ tmp192, cache
 466:sd_raw.cpp    ****                 unsigned short i;
ARM GAS  /tmp/ccX0J2UF.s 			page 24


 467:sd_raw.cpp    ****                 for(i = 0; i < 512; ++i)
 805              		.loc 1 467 0
 806 014c 0030A0E3 		mov	r3, #0	@ tmp194,
 807 0150 BE31CDE1 		strh	r3, [sp, #30]	@ movhi	@ tmp193, i
 808 0154 0A0000EA 		b	.L48	@
 809              	.L49:
 468:sd_raw.cpp    ****                     *cache++ = sd_raw_rec_byte();
 810              		.loc 1 468 0 discriminator 2
 811 0158 FEFFFFEB 		bl	_ZL15sd_raw_rec_bytev	@
 812 015c 0030A0E1 		mov	r3, r0	@ tmp195,
 813 0160 0320A0E1 		mov	r2, r3	@ D.10754, tmp195
 814 0164 20309DE5 		ldr	r3, [sp, #32]	@ tmp196, cache
 815 0168 0020C3E5 		strb	r2, [r3, #0]	@ tmp197,
 816 016c 20309DE5 		ldr	r3, [sp, #32]	@ tmp198, cache
 817 0170 013083E2 		add	r3, r3, #1	@ tmp199, tmp198,
 818 0174 20308DE5 		str	r3, [sp, #32]	@ tmp199, cache
 467:sd_raw.cpp    ****                 for(i = 0; i < 512; ++i)
 819              		.loc 1 467 0 discriminator 2
 820 0178 BE31DDE1 		ldrh	r3, [sp, #30]	@ movhi	@ tmp200, i
 821 017c 013083E2 		add	r3, r3, #1	@ tmp201, tmp200,
 822 0180 BE31CDE1 		strh	r3, [sp, #30]	@ movhi	@ tmp201, i
 823              	.L48:
 467:sd_raw.cpp    ****                 for(i = 0; i < 512; ++i)
 824              		.loc 1 467 0 is_stmt 0 discriminator 1
 825 0184 BE21DDE1 		ldrh	r2, [sp, #30]	@ tmp203, i
 826 0188 F8309FE5 		ldr	r3, .L53+20	@ tmp205,
 827 018c 030052E1 		cmp	r2, r3	@ tmp203, tmp205
 828 0190 0030A083 		movhi	r3, #0	@, tmp204
 829 0194 0130A093 		movls	r3, #1	@, tmp204
 830 0198 FF3003E2 		and	r3, r3, #255	@ D.10752, tmp202,
 831 019c 000053E3 		cmp	r3, #0	@ D.10752,
 832 01a0 ECFFFF1A 		bne	.L49	@,
 469:sd_raw.cpp    ****                 raw_block_address = block_address;
 833              		.loc 1 469 0 is_stmt 1
 834 01a4 C8309FE5 		ldr	r3, .L53	@ tmp206,
 835 01a8 18209DE5 		ldr	r2, [sp, #24]	@ tmp207, block_address
 836 01ac 002083E5 		str	r2, [r3, #0]	@ tmp207, raw_block_address
 470:sd_raw.cpp    ****     
 471:sd_raw.cpp    ****                 memcpy(buffer, raw_block + block_offset, read_length);
 837              		.loc 1 471 0
 838 01b0 B621DDE1 		ldrh	r2, [sp, #22]	@ D.10755, block_offset
 839 01b4 C0309FE5 		ldr	r3, .L53+8	@ tmp208,
 840 01b8 032082E0 		add	r2, r2, r3	@ D.10756, D.10755, tmp208
 841 01bc B632DDE1 		ldrh	r3, [sp, #38]	@ D.10757, read_length
 842 01c0 08009DE5 		ldr	r0, [sp, #8]	@, buffer
 843 01c4 0210A0E1 		mov	r1, r2	@, D.10756
 844 01c8 0320A0E1 		mov	r2, r3	@, D.10757
 845 01cc FEFFFFEB 		bl	memcpy	@
 472:sd_raw.cpp    ****                 buffer += read_length;
 846              		.loc 1 472 0
 847 01d0 B632DDE1 		ldrh	r3, [sp, #38]	@ D.10758, read_length
 848 01d4 08209DE5 		ldr	r2, [sp, #8]	@ tmp209, buffer
 849 01d8 033082E0 		add	r3, r2, r3	@ tmp210, tmp209, D.10758
 850 01dc 08308DE5 		str	r3, [sp, #8]	@ tmp210, buffer
 473:sd_raw.cpp    ****             #endif
 474:sd_raw.cpp    **** 
 475:sd_raw.cpp    ****             /* read crc16 */
ARM GAS  /tmp/ccX0J2UF.s 			page 25


 476:sd_raw.cpp    ****             sd_raw_rec_byte();
 851              		.loc 1 476 0
 852 01e0 FEFFFFEB 		bl	_ZL15sd_raw_rec_bytev	@
 477:sd_raw.cpp    ****             sd_raw_rec_byte();
 853              		.loc 1 477 0
 854 01e4 FEFFFFEB 		bl	_ZL15sd_raw_rec_bytev	@
 478:sd_raw.cpp    **** 
 479:sd_raw.cpp    ****             /* deaddress card */
 480:sd_raw.cpp    ****             unselect_card();
 855              		.loc 1 480 0
 856 01e8 94309FE5 		ldr	r3, .L53+16	@ D.10759,
 857 01ec 90209FE5 		ldr	r2, .L53+16	@ D.10760,
 858 01f0 002092E5 		ldr	r2, [r2, #0]	@ D.10761,* D.10760
 859 01f4 012682E3 		orr	r2, r2, #1048576	@ D.10762, D.10761,
 860 01f8 002083E5 		str	r2, [r3, #0]	@ D.10762,* D.10759
 481:sd_raw.cpp    **** 
 482:sd_raw.cpp    ****             /* let card some time to finish */
 483:sd_raw.cpp    ****             sd_raw_rec_byte();
 861              		.loc 1 483 0
 862 01fc FEFFFFEB 		bl	_ZL15sd_raw_rec_bytev	@
 863 0200 070000EA 		b	.L50	@
 864              	.L43:
 865              	.LBE8:
 484:sd_raw.cpp    ****         }
 485:sd_raw.cpp    ****         #if !SD_RAW_SAVE_RAM
 486:sd_raw.cpp    ****             else
 487:sd_raw.cpp    ****             {
 488:sd_raw.cpp    ****                 /* use cached data */
 489:sd_raw.cpp    ****                 memcpy(buffer, raw_block + block_offset, read_length);
 866              		.loc 1 489 0
 867 0204 B621DDE1 		ldrh	r2, [sp, #22]	@ D.10764, block_offset
 868 0208 6C309FE5 		ldr	r3, .L53+8	@ tmp211,
 869 020c 032082E0 		add	r2, r2, r3	@ D.10765, D.10764, tmp211
 870 0210 B632DDE1 		ldrh	r3, [sp, #38]	@ D.10766, read_length
 871 0214 08009DE5 		ldr	r0, [sp, #8]	@, buffer
 872 0218 0210A0E1 		mov	r1, r2	@, D.10765
 873 021c 0320A0E1 		mov	r2, r3	@, D.10766
 874 0220 FEFFFFEB 		bl	memcpy	@
 875              	.L50:
 876              	.LBE7:
 490:sd_raw.cpp    ****             }
 491:sd_raw.cpp    ****         #endif
 492:sd_raw.cpp    **** 
 493:sd_raw.cpp    ****         length -= read_length;
 877              		.loc 1 493 0
 878 0224 B620DDE1 		ldrh	r2, [sp, #6]	@ movhi	@ tmp212, length
 879 0228 B632DDE1 		ldrh	r3, [sp, #38]	@ movhi	@ tmp213, read_length
 880 022c 023063E0 		rsb	r3, r3, r2	@ tmp214, tmp213, tmp212
 881 0230 B630CDE1 		strh	r3, [sp, #6]	@ movhi	@ tmp214, length
 494:sd_raw.cpp    ****         offset += read_length;
 882              		.loc 1 494 0
 883 0234 B632DDE1 		ldrh	r3, [sp, #38]	@ D.10767, read_length
 884 0238 0C209DE5 		ldr	r2, [sp, #12]	@ tmp215, offset
 885 023c 033082E0 		add	r3, r2, r3	@ tmp216, tmp215, D.10767
 886 0240 0C308DE5 		str	r3, [sp, #12]	@ tmp216, offset
 887              	.L41:
 888              	.LBE6:
ARM GAS  /tmp/ccX0J2UF.s 			page 26


 419:sd_raw.cpp    ****     while(length > 0)
 889              		.loc 1 419 0 discriminator 1
 890 0244 B630DDE1 		ldrh	r3, [sp, #6]	@ tmp218, length
 891 0248 000053E3 		cmp	r3, #0	@ tmp218,
 892 024c 0030A003 		moveq	r3, #0	@, tmp219
 893 0250 0130A013 		movne	r3, #1	@, tmp219
 894 0254 FF3003E2 		and	r3, r3, #255	@ D.10714, tmp217,
 895 0258 000053E3 		cmp	r3, #0	@ D.10714,
 896 025c 6EFFFF1A 		bne	.L51	@,
 495:sd_raw.cpp    ****     }
 496:sd_raw.cpp    **** 
 497:sd_raw.cpp    ****     return 1;
 897              		.loc 1 497 0
 898 0260 0130A0E3 		mov	r3, #1	@ D.10730,
 899              	.L45:
 900              	.LBE5:
 498:sd_raw.cpp    **** }
 901              		.loc 1 498 0
 902 0264 0300A0E1 		mov	r0, r3	@, <retval>
 903 0268 2CD08DE2 		add	sp, sp, #44	@,,
 904 026c 04E09DE4 		ldr	lr, [sp], #4
 905 0270 1EFF2FE1 		bx	lr
 906              	.L54:
 907              		.align	2
 908              	.L53:
 909 0274 00020000 		.word	_ZL17raw_block_address
 910 0278 04020000 		.word	_ZL17raw_block_written
 911 027c 00000000 		.word	_ZL9raw_block
 912 0280 1CC0FF3F 		.word	1073725468
 913 0284 18C0FF3F 		.word	1073725464
 914 0288 FF010000 		.word	511
 915              		.cfi_endproc
 916              	.LFE115:
 917              		.size	_Z11sd_raw_readjPht, .-_Z11sd_raw_readjPht
 918              		.section	.text._Z20sd_raw_read_intervaljPhttPFhS_jPvES0_,"ax",%progbits
 919              		.align	2
 920              		.global	_Z20sd_raw_read_intervaljPhttPFhS_jPvES0_
 921              		.type	_Z20sd_raw_read_intervaljPhttPFhS_jPvES0_, %function
 922              	_Z20sd_raw_read_intervaljPhttPFhS_jPvES0_:
 923              	.LFB116:
 499:sd_raw.cpp    **** 
 500:sd_raw.cpp    **** /**
 501:sd_raw.cpp    ****  * \ingroup sd_raw
 502:sd_raw.cpp    ****  * Continuously reads units of \c interval bytes and calls a callback function.
 503:sd_raw.cpp    ****  *
 504:sd_raw.cpp    ****  * This function starts reading at the specified offset. Every \c interval bytes,
 505:sd_raw.cpp    ****  * it calls the callback function with the associated data buffer.
 506:sd_raw.cpp    ****  *
 507:sd_raw.cpp    ****  * By returning zero, the callback may stop reading.
 508:sd_raw.cpp    ****  *
 509:sd_raw.cpp    ****  * \note Within the callback function, you can not start another read or
 510:sd_raw.cpp    ****  *       write operation.
 511:sd_raw.cpp    ****  * \note This function only works if the following conditions are met:
 512:sd_raw.cpp    ****  *       - (offset - (offset % 512)) % interval == 0
 513:sd_raw.cpp    ****  *       - length % interval == 0
 514:sd_raw.cpp    ****  *
 515:sd_raw.cpp    ****  * \param[in] offset Offset from which to start reading.
ARM GAS  /tmp/ccX0J2UF.s 			page 27


 516:sd_raw.cpp    ****  * \param[in] buffer Pointer to a buffer which is at least interval bytes in size.
 517:sd_raw.cpp    ****  * \param[in] interval Number of bytes to read before calling the callback function.
 518:sd_raw.cpp    ****  * \param[in] length Number of bytes to read altogether.
 519:sd_raw.cpp    ****  * \param[in] callback The function to call every interval bytes.
 520:sd_raw.cpp    ****  * \param[in] p An opaque pointer directly passed to the callback function.
 521:sd_raw.cpp    ****  * \returns 0 on failure, 1 on success
 522:sd_raw.cpp    ****  * \see sd_raw_read, sd_raw_write
 523:sd_raw.cpp    ****  */
 524:sd_raw.cpp    **** unsigned char sd_raw_read_interval(unsigned int offset, unsigned char* buffer, unsigned short inter
 525:sd_raw.cpp    **** {
 924              		.loc 1 525 0
 925              		.cfi_startproc
 926              		@ Function supports interworking.
 927              		@ args = 8, pretend = 0, frame = 16
 928              		@ frame_needed = 0, uses_anonymous_args = 0
 929 0000 04E02DE5 		str	lr, [sp, #-4]!	@,
 930              	.LCFI8:
 931              		.cfi_def_cfa_offset 4
 932 0004 14D04DE2 		sub	sp, sp, #20	@,,
 933              	.LCFI9:
 934              		.cfi_def_cfa_offset 24
 935 0008 0C008DE5 		str	r0, [sp, #12]	@ offset, offset
 936 000c 08108DE5 		str	r1, [sp, #8]	@ buffer, buffer
 937 0010 B620CDE1 		strh	r2, [sp, #6]	@ movhi	@ tmp141, interval
 938 0014 B430CDE1 		strh	r3, [sp, #4]	@ movhi	@ tmp142, length
 526:sd_raw.cpp    ****     if(!buffer || interval == 0 || length < interval || !callback)
 939              		.loc 1 526 0
 940 0018 08309DE5 		ldr	r3, [sp, #8]	@ tmp143, buffer
 941 001c 000053E3 		cmp	r3, #0	@ tmp143,
 942 0020 0900000A 		beq	.L56	@,
 943              		.cfi_offset 14, -4
 944              		.loc 1 526 0 is_stmt 0 discriminator 1
 945 0024 B630DDE1 		ldrh	r3, [sp, #6]	@ tmp144, interval
 946 0028 000053E3 		cmp	r3, #0	@ tmp144,
 947 002c 0600000A 		beq	.L56	@,
 948              		.loc 1 526 0 discriminator 2
 949 0030 B420DDE1 		ldrh	r2, [sp, #4]	@ tmp145, length
 950 0034 B630DDE1 		ldrh	r3, [sp, #6]	@ tmp146, interval
 951 0038 030052E1 		cmp	r2, r3	@ tmp145, tmp146
 952 003c 0200003A 		bcc	.L56	@,
 953              		.loc 1 526 0 discriminator 3
 954 0040 18309DE5 		ldr	r3, [sp, #24]	@ tmp147, callback
 955 0044 000053E3 		cmp	r3, #0	@ tmp147,
 956 0048 2400001A 		bne	.L59	@,
 957              	.L56:
 527:sd_raw.cpp    ****         return 0;
 958              		.loc 1 527 0 is_stmt 1
 959 004c 0030A0E3 		mov	r3, #0	@ D.10696,
 960 0050 2D0000EA 		b	.L58	@
 961              	.L63:
 528:sd_raw.cpp    **** 
 529:sd_raw.cpp    ****     #if !SD_RAW_SAVE_RAM
 530:sd_raw.cpp    ****         while(length >= interval)
 531:sd_raw.cpp    ****         {
 532:sd_raw.cpp    ****             /* as reading is now buffered, we directly
 533:sd_raw.cpp    ****                      * hand over the request to sd_raw_read()
 534:sd_raw.cpp    ****                      */
ARM GAS  /tmp/ccX0J2UF.s 			page 28


 535:sd_raw.cpp    ****             if(!sd_raw_read(offset, buffer, interval))
 962              		.loc 1 535 0
 963 0054 B630DDE1 		ldrh	r3, [sp, #6]	@ tmp148, interval
 964 0058 0C009DE5 		ldr	r0, [sp, #12]	@, offset
 965 005c 08109DE5 		ldr	r1, [sp, #8]	@, buffer
 966 0060 0320A0E1 		mov	r2, r3	@, tmp148
 967 0064 FEFFFFEB 		bl	_Z11sd_raw_readjPht	@
 968 0068 0030A0E1 		mov	r3, r0	@ tmp149,
 969 006c 000053E3 		cmp	r3, #0	@ D.10702,
 970 0070 0030A013 		movne	r3, #0	@, tmp151
 971 0074 0130A003 		moveq	r3, #1	@, tmp151
 972 0078 FF3003E2 		and	r3, r3, #255	@ retval.18, tmp150,
 973 007c 000053E3 		cmp	r3, #0	@ retval.18,
 974 0080 0100000A 		beq	.L60	@,
 536:sd_raw.cpp    ****                 return 0;
 975              		.loc 1 536 0
 976 0084 0030A0E3 		mov	r3, #0	@ D.10696,
 977 0088 1F0000EA 		b	.L58	@
 978              	.L60:
 537:sd_raw.cpp    ****             if(!callback(buffer, offset, p))
 979              		.loc 1 537 0
 980 008c 18309DE5 		ldr	r3, [sp, #24]	@ tmp152, callback
 981 0090 08009DE5 		ldr	r0, [sp, #8]	@, buffer
 982 0094 0C109DE5 		ldr	r1, [sp, #12]	@, offset
 983 0098 1C209DE5 		ldr	r2, [sp, #28]	@, p
 984 009c 0FE0A0E1 		mov	lr, pc
 985 00a0 13FF2FE1 		bx	r3	@ tmp152
 986 00a4 0030A0E1 		mov	r3, r0	@ tmp153,
 987 00a8 000053E3 		cmp	r3, #0	@ D.10706,
 988 00ac 0030A013 		movne	r3, #0	@, tmp155
 989 00b0 0130A003 		moveq	r3, #1	@, tmp155
 990 00b4 FF3003E2 		and	r3, r3, #255	@ retval.19, tmp154,
 991 00b8 000053E3 		cmp	r3, #0	@ retval.19,
 992 00bc 1000001A 		bne	.L64	@,
 993              	.L61:
 538:sd_raw.cpp    ****                 break;
 539:sd_raw.cpp    ****             offset += interval;
 994              		.loc 1 539 0
 995 00c0 B630DDE1 		ldrh	r3, [sp, #6]	@ D.10709, interval
 996 00c4 0C209DE5 		ldr	r2, [sp, #12]	@ tmp156, offset
 997 00c8 033082E0 		add	r3, r2, r3	@ tmp157, tmp156, D.10709
 998 00cc 0C308DE5 		str	r3, [sp, #12]	@ tmp157, offset
 540:sd_raw.cpp    ****             length -= interval;
 999              		.loc 1 540 0
 1000 00d0 B420DDE1 		ldrh	r2, [sp, #4]	@ movhi	@ tmp158, length
 1001 00d4 B630DDE1 		ldrh	r3, [sp, #6]	@ movhi	@ tmp159, interval
 1002 00d8 023063E0 		rsb	r3, r3, r2	@ tmp160, tmp159, tmp158
 1003 00dc B430CDE1 		strh	r3, [sp, #4]	@ movhi	@ tmp160, length
 1004              	.L59:
 530:sd_raw.cpp    ****         while(length >= interval)
 1005              		.loc 1 530 0 discriminator 1
 1006 00e0 B420DDE1 		ldrh	r2, [sp, #4]	@ tmp162, length
 1007 00e4 B630DDE1 		ldrh	r3, [sp, #6]	@ tmp163, interval
 1008 00e8 030052E1 		cmp	r2, r3	@ tmp162, tmp163
 1009 00ec 0030A033 		movcc	r3, #0	@, tmp164
 1010 00f0 0130A023 		movcs	r3, #1	@, tmp164
 1011 00f4 FF3003E2 		and	r3, r3, #255	@ D.10700, tmp161,
ARM GAS  /tmp/ccX0J2UF.s 			page 29


 1012 00f8 000053E3 		cmp	r3, #0	@ D.10700,
 1013 00fc D4FFFF1A 		bne	.L63	@,
 1014 0100 000000EA 		b	.L62	@
 1015              	.L64:
 538:sd_raw.cpp    ****                 break;
 1016              		.loc 1 538 0
 1017 0104 0000A0E1 		mov	r0, r0	@ nop
 1018              	.L62:
 541:sd_raw.cpp    ****         }
 542:sd_raw.cpp    ****     
 543:sd_raw.cpp    ****         return 1;
 1019              		.loc 1 543 0
 1020 0108 0130A0E3 		mov	r3, #1	@ D.10696,
 1021              	.L58:
 544:sd_raw.cpp    ****     #else
 545:sd_raw.cpp    ****         /* address card */
 546:sd_raw.cpp    ****         select_card();
 547:sd_raw.cpp    ****     
 548:sd_raw.cpp    ****         unsigned short block_offset;
 549:sd_raw.cpp    ****         unsigned short read_length;
 550:sd_raw.cpp    ****         unsigned char* buffer_cur;
 551:sd_raw.cpp    ****         unsigned char finished = 0;
 552:sd_raw.cpp    ****         do
 553:sd_raw.cpp    ****         {
 554:sd_raw.cpp    ****             /* determine byte count to read at once */
 555:sd_raw.cpp    ****             block_offset = offset & 0x01ff;
 556:sd_raw.cpp    ****             read_length = 512 - block_offset;
 557:sd_raw.cpp    ****     
 558:sd_raw.cpp    ****             /* send single block request */
 559:sd_raw.cpp    ****             if(sd_raw_send_command_r1(CMD_READ_SINGLE_BLOCK, offset & 0xfffffe00))
 560:sd_raw.cpp    ****             {
 561:sd_raw.cpp    ****                 unselect_card();
 562:sd_raw.cpp    ****                 return 0;
 563:sd_raw.cpp    ****             }
 564:sd_raw.cpp    ****     
 565:sd_raw.cpp    ****             /* wait for data block (start byte 0xfe) */
 566:sd_raw.cpp    ****             while(sd_raw_rec_byte() != 0xfe);
 567:sd_raw.cpp    ****             unsigned short i;
 568:sd_raw.cpp    ****             /* read up to the data of interest */
 569:sd_raw.cpp    ****             for(i = 0; i < block_offset; ++i)
 570:sd_raw.cpp    ****                 sd_raw_rec_byte();
 571:sd_raw.cpp    ****     
 572:sd_raw.cpp    ****             /* read interval bytes of data and execute the callback */
 573:sd_raw.cpp    ****             do
 574:sd_raw.cpp    ****             {
 575:sd_raw.cpp    ****                 if(read_length < interval || length < interval)
 576:sd_raw.cpp    ****                     break;
 577:sd_raw.cpp    ****     
 578:sd_raw.cpp    ****                 buffer_cur = buffer;
 579:sd_raw.cpp    ****                 for(i = 0; i < interval; ++i)
 580:sd_raw.cpp    ****                     *buffer_cur++ = sd_raw_rec_byte();
 581:sd_raw.cpp    ****     
 582:sd_raw.cpp    ****                 if(!callback(buffer, offset + (512 - read_length), p))
 583:sd_raw.cpp    ****                 {
 584:sd_raw.cpp    ****                     finished = 1;
 585:sd_raw.cpp    ****                     break;
 586:sd_raw.cpp    ****                 }
ARM GAS  /tmp/ccX0J2UF.s 			page 30


 587:sd_raw.cpp    ****     
 588:sd_raw.cpp    ****                 read_length -= interval;
 589:sd_raw.cpp    ****                 length -= interval;
 590:sd_raw.cpp    ****     
 591:sd_raw.cpp    ****             }
 592:sd_raw.cpp    ****             while(read_length > 0 && length > 0);
 593:sd_raw.cpp    ****     
 594:sd_raw.cpp    ****             /* read rest of data block */
 595:sd_raw.cpp    ****             while(read_length-- > 0)
 596:sd_raw.cpp    ****                 sd_raw_rec_byte();
 597:sd_raw.cpp    ****     
 598:sd_raw.cpp    ****             /* read crc16 */
 599:sd_raw.cpp    ****             sd_raw_rec_byte();
 600:sd_raw.cpp    ****             sd_raw_rec_byte();
 601:sd_raw.cpp    ****     
 602:sd_raw.cpp    ****             if(length < interval)
 603:sd_raw.cpp    ****                 break;
 604:sd_raw.cpp    ****     
 605:sd_raw.cpp    ****             offset = (offset & 0xfffffe00) + 512;
 606:sd_raw.cpp    ****     
 607:sd_raw.cpp    ****         }
 608:sd_raw.cpp    ****         while(!finished);
 609:sd_raw.cpp    ****     
 610:sd_raw.cpp    ****         /* deaddress card */
 611:sd_raw.cpp    ****         unselect_card();
 612:sd_raw.cpp    ****     
 613:sd_raw.cpp    ****         /* let card some time to finish */
 614:sd_raw.cpp    ****         sd_raw_rec_byte();
 615:sd_raw.cpp    ****     
 616:sd_raw.cpp    ****         return 1;
 617:sd_raw.cpp    ****     #endif
 618:sd_raw.cpp    **** }
 1022              		.loc 1 618 0
 1023 010c 0300A0E1 		mov	r0, r3	@, <retval>
 1024 0110 14D08DE2 		add	sp, sp, #20	@,,
 1025 0114 04E09DE4 		ldr	lr, [sp], #4
 1026 0118 1EFF2FE1 		bx	lr
 1027              		.cfi_endproc
 1028              	.LFE116:
 1029              		.size	_Z20sd_raw_read_intervaljPhttPFhS_jPvES0_, .-_Z20sd_raw_read_intervaljPhttPFhS_jPvES0_
 1030              		.section	.text._Z12sd_raw_writejPKht,"ax",%progbits
 1031              		.align	2
 1032              		.global	_Z12sd_raw_writejPKht
 1033              		.type	_Z12sd_raw_writejPKht, %function
 1034              	_Z12sd_raw_writejPKht:
 1035              	.LFB117:
 619:sd_raw.cpp    **** 
 620:sd_raw.cpp    **** /**
 621:sd_raw.cpp    ****  * \ingroup sd_raw
 622:sd_raw.cpp    ****  * Writes raw data to the card.
 623:sd_raw.cpp    ****  *
 624:sd_raw.cpp    ****  * \note If write buffering is enabled, you might have to
 625:sd_raw.cpp    ****  *       call sd_raw_sync() before disconnecting the card
 626:sd_raw.cpp    ****  *       to ensure all remaining data has been written.
 627:sd_raw.cpp    ****  *
 628:sd_raw.cpp    ****  * \param[in] offset The offset where to start writing.
 629:sd_raw.cpp    ****  * \param[in] buffer The buffer containing the data to be written.
ARM GAS  /tmp/ccX0J2UF.s 			page 31


 630:sd_raw.cpp    ****  * \param[in] length The number of bytes to write.
 631:sd_raw.cpp    ****  * \returns 0 on failure, 1 on success.
 632:sd_raw.cpp    ****  * \see sd_raw_read
 633:sd_raw.cpp    ****  */
 634:sd_raw.cpp    **** unsigned char sd_raw_write(unsigned int offset, const unsigned char* buffer, unsigned short length)
 635:sd_raw.cpp    **** {
 1036              		.loc 1 635 0
 1037              		.cfi_startproc
 1038              		@ Function supports interworking.
 1039              		@ args = 0, pretend = 0, frame = 40
 1040              		@ frame_needed = 0, uses_anonymous_args = 0
 1041 0000 04E02DE5 		str	lr, [sp, #-4]!	@,
 1042              	.LCFI10:
 1043              		.cfi_def_cfa_offset 4
 1044 0004 2CD04DE2 		sub	sp, sp, #44	@,,
 1045              	.LCFI11:
 1046              		.cfi_def_cfa_offset 48
 1047 0008 0C008DE5 		str	r0, [sp, #12]	@ offset, offset
 1048 000c 08108DE5 		str	r1, [sp, #8]	@ buffer, buffer
 1049 0010 0230A0E1 		mov	r3, r2	@ tmp167, length
 1050 0014 B630CDE1 		strh	r3, [sp, #6]	@ movhi	@ tmp167, length
 1051              	.LBB9:
 636:sd_raw.cpp    ****     #if SD_RAW_WRITE_SUPPORT
 637:sd_raw.cpp    ****     
 638:sd_raw.cpp    ****         if(get_pin_locked())
 639:sd_raw.cpp    ****             return 0;
 640:sd_raw.cpp    ****     
 641:sd_raw.cpp    ****         unsigned int block_address;
 642:sd_raw.cpp    ****         unsigned short block_offset;
 643:sd_raw.cpp    ****         unsigned short write_length;
 644:sd_raw.cpp    ****         while(length > 0)
 1052              		.loc 1 644 0
 1053 0018 A70000EA 		b	.L66	@
 1054              		.cfi_offset 14, -4
 1055              	.L78:
 1056              	.LBB10:
 645:sd_raw.cpp    ****         {
 646:sd_raw.cpp    ****             /* determine byte count to write at once */
 647:sd_raw.cpp    ****             block_address = offset & 0xfffffe00;
 1057              		.loc 1 647 0
 1058 001c 0C309DE5 		ldr	r3, [sp, #12]	@ tmp168, offset
 1059 0020 7F3FC3E3 		bic	r3, r3, #508	@ tmp169, tmp168,
 1060 0024 0330C3E3 		bic	r3, r3, #3	@ tmp169, tmp169,
 1061 0028 18308DE5 		str	r3, [sp, #24]	@ tmp169, block_address
 648:sd_raw.cpp    ****             block_offset = offset & 0x01ff;
 1062              		.loc 1 648 0
 1063 002c 0C309DE5 		ldr	r3, [sp, #12]	@ tmp170, offset
 1064 0030 0338A0E1 		mov	r3, r3, asl #16	@ tmp171, tmp170,
 1065 0034 2338A0E1 		mov	r3, r3, lsr #16	@ D.10629, tmp171,
 1066 0038 833BA0E1 		mov	r3, r3, asl #23	@ tmp172, D.10629,
 1067 003c A33BA0E1 		mov	r3, r3, lsr #23	@ tmp172, tmp172,
 1068 0040 B631CDE1 		strh	r3, [sp, #22]	@ movhi	@ tmp172, block_offset
 649:sd_raw.cpp    ****             write_length = 512 - block_offset; /* write up to block border */
 1069              		.loc 1 649 0
 1070 0044 B631DDE1 		ldrh	r3, [sp, #22]	@ movhi	@ tmp173, block_offset
 1071 0048 023C63E2 		rsb	r3, r3, #512	@ tmp174, tmp173,
 1072 004c B632CDE1 		strh	r3, [sp, #38]	@ movhi	@ tmp174, write_length
ARM GAS  /tmp/ccX0J2UF.s 			page 32


 650:sd_raw.cpp    ****             if(write_length > length)
 1073              		.loc 1 650 0
 1074 0050 B622DDE1 		ldrh	r2, [sp, #38]	@ tmp175, write_length
 1075 0054 B630DDE1 		ldrh	r3, [sp, #6]	@ tmp176, length
 1076 0058 030052E1 		cmp	r2, r3	@ tmp175, tmp176
 1077 005c 0100009A 		bls	.L67	@,
 651:sd_raw.cpp    ****                 write_length = length;
 1078              		.loc 1 651 0
 1079 0060 B630DDE1 		ldrh	r3, [sp, #6]	@ movhi	@ tmp177, length
 1080 0064 B632CDE1 		strh	r3, [sp, #38]	@ movhi	@ tmp177, write_length
 1081              	.L67:
 652:sd_raw.cpp    ****     
 653:sd_raw.cpp    ****             /* Merge the data to write with the content of the block.
 654:sd_raw.cpp    ****                      * Use the cached block if available.
 655:sd_raw.cpp    ****                      */
 656:sd_raw.cpp    ****             if(block_address != raw_block_address)
 1082              		.loc 1 656 0
 1083 0068 7C329FE5 		ldr	r3, .L79	@ tmp178,
 1084 006c 003093E5 		ldr	r3, [r3, #0]	@ raw_block_address.11, raw_block_address
 1085 0070 18209DE5 		ldr	r2, [sp, #24]	@ tmp179, block_address
 1086 0074 030052E1 		cmp	r2, r3	@ tmp179, raw_block_address.11
 1087 0078 2900000A 		beq	.L68	@,
 657:sd_raw.cpp    ****             {
 658:sd_raw.cpp    ****                 #if SD_RAW_WRITE_BUFFERING
 659:sd_raw.cpp    ****                 if(!raw_block_written)
 1088              		.loc 1 659 0
 1089 007c 6C329FE5 		ldr	r3, .L79+4	@ tmp180,
 1090 0080 0030D3E5 		ldrb	r3, [r3, #0]	@ zero_extendqisi2	@ raw_block_written.12, raw_block_written
 1091 0084 000053E3 		cmp	r3, #0	@ raw_block_written.12,
 1092 0088 0E00001A 		bne	.L69	@,
 660:sd_raw.cpp    ****                 {
 661:sd_raw.cpp    ****                     if(!sd_raw_write(raw_block_address, raw_block, sizeof(raw_block)))
 1093              		.loc 1 661 0
 1094 008c 58329FE5 		ldr	r3, .L79	@ tmp181,
 1095 0090 003093E5 		ldr	r3, [r3, #0]	@ raw_block_address.14, raw_block_address
 1096 0094 0300A0E1 		mov	r0, r3	@, raw_block_address.14
 1097 0098 54129FE5 		ldr	r1, .L79+8	@,
 1098 009c 022CA0E3 		mov	r2, #512	@,
 1099 00a0 FEFFFFEB 		bl	_Z12sd_raw_writejPKht	@
 1100 00a4 0030A0E1 		mov	r3, r0	@ tmp182,
 1101 00a8 000053E3 		cmp	r3, #0	@ D.10641,
 1102 00ac 0030A013 		movne	r3, #0	@, tmp184
 1103 00b0 0130A003 		moveq	r3, #1	@, tmp184
 1104 00b4 FF3003E2 		and	r3, r3, #255	@ retval.13, tmp183,
 1105 00b8 000053E3 		cmp	r3, #0	@ retval.13,
 1106 00bc 0100000A 		beq	.L69	@,
 662:sd_raw.cpp    ****                         return 0;
 1107              		.loc 1 662 0
 1108 00c0 0030A0E3 		mov	r3, #0	@ D.10624,
 1109 00c4 840000EA 		b	.L70	@
 1110              	.L69:
 663:sd_raw.cpp    ****                 }
 664:sd_raw.cpp    ****             #endif
 665:sd_raw.cpp    **** 
 666:sd_raw.cpp    ****             if(block_offset || write_length < 512)
 1111              		.loc 1 666 0
 1112 00c8 B631DDE1 		ldrh	r3, [sp, #22]	@ tmp185, block_offset
ARM GAS  /tmp/ccX0J2UF.s 			page 33


 1113 00cc 000053E3 		cmp	r3, #0	@ tmp185,
 1114 00d0 0300001A 		bne	.L71	@,
 1115              		.loc 1 666 0 is_stmt 0 discriminator 1
 1116 00d4 B622DDE1 		ldrh	r2, [sp, #38]	@ tmp186, write_length
 1117 00d8 18329FE5 		ldr	r3, .L79+12	@ tmp187,
 1118 00dc 030052E1 		cmp	r2, r3	@ tmp186, tmp187
 1119 00e0 0C00008A 		bhi	.L72	@,
 1120              	.L71:
 667:sd_raw.cpp    ****             {
 668:sd_raw.cpp    ****                 if(!sd_raw_read(block_address, raw_block, sizeof(raw_block)))
 1121              		.loc 1 668 0 is_stmt 1
 1122 00e4 18009DE5 		ldr	r0, [sp, #24]	@, block_address
 1123 00e8 04129FE5 		ldr	r1, .L79+8	@,
 1124 00ec 022CA0E3 		mov	r2, #512	@,
 1125 00f0 FEFFFFEB 		bl	_Z11sd_raw_readjPht	@
 1126 00f4 0030A0E1 		mov	r3, r0	@ tmp188,
 1127 00f8 000053E3 		cmp	r3, #0	@ D.10649,
 1128 00fc 0030A013 		movne	r3, #0	@, tmp190
 1129 0100 0130A003 		moveq	r3, #1	@, tmp190
 1130 0104 FF3003E2 		and	r3, r3, #255	@ retval.15, tmp189,
 1131 0108 000053E3 		cmp	r3, #0	@ retval.15,
 1132 010c 0100000A 		beq	.L72	@,
 669:sd_raw.cpp    ****                     return 0;
 1133              		.loc 1 669 0
 1134 0110 0030A0E3 		mov	r3, #0	@ D.10624,
 1135 0114 700000EA 		b	.L70	@
 1136              	.L72:
 670:sd_raw.cpp    ****             }
 671:sd_raw.cpp    ****             raw_block_address = block_address;
 1137              		.loc 1 671 0
 1138 0118 CC319FE5 		ldr	r3, .L79	@ tmp191,
 1139 011c 18209DE5 		ldr	r2, [sp, #24]	@ tmp192, block_address
 1140 0120 002083E5 		str	r2, [r3, #0]	@ tmp192, raw_block_address
 1141              	.L68:
 672:sd_raw.cpp    ****         }
 673:sd_raw.cpp    **** 
 674:sd_raw.cpp    ****         if(buffer != raw_block)
 1142              		.loc 1 674 0
 1143 0124 08209DE5 		ldr	r2, [sp, #8]	@ tmp193, buffer
 1144 0128 C4319FE5 		ldr	r3, .L79+8	@ tmp194,
 1145 012c 030052E1 		cmp	r2, r3	@ tmp193, tmp194
 1146 0130 1000000A 		beq	.L73	@,
 675:sd_raw.cpp    ****         {
 676:sd_raw.cpp    ****             memcpy(raw_block + block_offset, buffer, write_length);
 1147              		.loc 1 676 0
 1148 0134 B621DDE1 		ldrh	r2, [sp, #22]	@ D.10655, block_offset
 1149 0138 B4319FE5 		ldr	r3, .L79+8	@ tmp195,
 1150 013c 032082E0 		add	r2, r2, r3	@ D.10656, D.10655, tmp195
 1151 0140 B632DDE1 		ldrh	r3, [sp, #38]	@ D.10657, write_length
 1152 0144 0200A0E1 		mov	r0, r2	@, D.10656
 1153 0148 08109DE5 		ldr	r1, [sp, #8]	@, buffer
 1154 014c 0320A0E1 		mov	r2, r3	@, D.10657
 1155 0150 FEFFFFEB 		bl	memcpy	@
 677:sd_raw.cpp    **** 
 678:sd_raw.cpp    ****             #if SD_RAW_WRITE_BUFFERING
 679:sd_raw.cpp    ****                 raw_block_written = 0;
 1156              		.loc 1 679 0
ARM GAS  /tmp/ccX0J2UF.s 			page 34


 1157 0154 94319FE5 		ldr	r3, .L79+4	@ tmp196,
 1158 0158 0020A0E3 		mov	r2, #0	@ tmp197,
 1159 015c 0020C3E5 		strb	r2, [r3, #0]	@ tmp198, raw_block_written
 680:sd_raw.cpp    ****     
 681:sd_raw.cpp    ****                 if(length == write_length)
 1160              		.loc 1 681 0
 1161 0160 B620DDE1 		ldrh	r2, [sp, #6]	@ tmp199, length
 1162 0164 B632DDE1 		ldrh	r3, [sp, #38]	@ tmp200, write_length
 1163 0168 030052E1 		cmp	r2, r3	@ tmp199, tmp200
 1164 016c 0100001A 		bne	.L73	@,
 682:sd_raw.cpp    ****                     return 1;
 1165              		.loc 1 682 0
 1166 0170 0130A0E3 		mov	r3, #1	@ D.10624,
 1167 0174 580000EA 		b	.L70	@
 1168              	.L73:
 683:sd_raw.cpp    ****             #endif
 684:sd_raw.cpp    ****         }
 685:sd_raw.cpp    **** 
 686:sd_raw.cpp    ****         buffer += write_length;
 1169              		.loc 1 686 0
 1170 0178 B632DDE1 		ldrh	r3, [sp, #38]	@ D.10661, write_length
 1171 017c 08209DE5 		ldr	r2, [sp, #8]	@ tmp201, buffer
 1172 0180 033082E0 		add	r3, r2, r3	@ tmp202, tmp201, D.10661
 1173 0184 08308DE5 		str	r3, [sp, #8]	@ tmp202, buffer
 687:sd_raw.cpp    **** 
 688:sd_raw.cpp    ****         /* address card */
 689:sd_raw.cpp    ****         select_card();
 1174              		.loc 1 689 0
 1175 0188 6C319FE5 		ldr	r3, .L79+16	@ D.10662,
 1176 018c 68219FE5 		ldr	r2, .L79+16	@ D.10663,
 1177 0190 002092E5 		ldr	r2, [r2, #0]	@ D.10664,* D.10663
 1178 0194 012682E3 		orr	r2, r2, #1048576	@ D.10665, D.10664,
 1179 0198 002083E5 		str	r2, [r3, #0]	@ D.10665,* D.10662
 690:sd_raw.cpp    **** 
 691:sd_raw.cpp    ****         /* send single block request */
 692:sd_raw.cpp    ****         if(sd_raw_send_command_r1(CMD_WRITE_SINGLE_BLOCK, block_address))
 1180              		.loc 1 692 0
 1181 019c 1800A0E3 		mov	r0, #24	@,
 1182 01a0 18109DE5 		ldr	r1, [sp, #24]	@, block_address
 1183 01a4 FEFFFFEB 		bl	_ZL22sd_raw_send_command_r1hj	@
 1184 01a8 0030A0E1 		mov	r3, r0	@ tmp203,
 1185 01ac 000053E3 		cmp	r3, #0	@ D.10667,
 1186 01b0 0030A003 		moveq	r3, #0	@, tmp205
 1187 01b4 0130A013 		movne	r3, #1	@, tmp205
 1188 01b8 FF3003E2 		and	r3, r3, #255	@ retval.16, tmp204,
 1189 01bc 000053E3 		cmp	r3, #0	@ retval.16,
 1190 01c0 0600000A 		beq	.L74	@,
 693:sd_raw.cpp    ****         {
 694:sd_raw.cpp    ****             unselect_card();
 1191              		.loc 1 694 0
 1192 01c4 34319FE5 		ldr	r3, .L79+20	@ D.10670,
 1193 01c8 30219FE5 		ldr	r2, .L79+20	@ D.10671,
 1194 01cc 002092E5 		ldr	r2, [r2, #0]	@ D.10672,* D.10671
 1195 01d0 012682E3 		orr	r2, r2, #1048576	@ D.10673, D.10672,
 1196 01d4 002083E5 		str	r2, [r3, #0]	@ D.10673,* D.10670
 695:sd_raw.cpp    ****             return 0;
 1197              		.loc 1 695 0
ARM GAS  /tmp/ccX0J2UF.s 			page 35


 1198 01d8 0030A0E3 		mov	r3, #0	@ D.10624,
 1199 01dc 3E0000EA 		b	.L70	@
 1200              	.L74:
 696:sd_raw.cpp    ****         }
 697:sd_raw.cpp    **** 
 698:sd_raw.cpp    ****         /* send start byte */
 699:sd_raw.cpp    ****         sd_raw_send_byte(0xfe);
 1201              		.loc 1 699 0
 1202 01e0 FE00A0E3 		mov	r0, #254	@,
 1203 01e4 FEFFFFEB 		bl	_ZL16sd_raw_send_byteh	@
 700:sd_raw.cpp    **** 
 701:sd_raw.cpp    ****         /* write byte block */
 702:sd_raw.cpp    ****         unsigned char* cache = raw_block;
 1204              		.loc 1 702 0
 1205 01e8 04319FE5 		ldr	r3, .L79+8	@ tmp206,
 1206 01ec 20308DE5 		str	r3, [sp, #32]	@ tmp206, cache
 703:sd_raw.cpp    ****         unsigned short i;
 704:sd_raw.cpp    ****         for(i = 0; i < 512; ++i)
 1207              		.loc 1 704 0
 1208 01f0 0030A0E3 		mov	r3, #0	@ tmp208,
 1209 01f4 BE31CDE1 		strh	r3, [sp, #30]	@ movhi	@ tmp207, i
 1210 01f8 090000EA 		b	.L75	@
 1211              	.L76:
 705:sd_raw.cpp    ****             sd_raw_send_byte(*cache++);
 1212              		.loc 1 705 0 discriminator 2
 1213 01fc 20309DE5 		ldr	r3, [sp, #32]	@ tmp209, cache
 1214 0200 0030D3E5 		ldrb	r3, [r3, #0]	@ zero_extendqisi2	@ D.10679,
 1215 0204 20209DE5 		ldr	r2, [sp, #32]	@ tmp210, cache
 1216 0208 012082E2 		add	r2, r2, #1	@ tmp211, tmp210,
 1217 020c 20208DE5 		str	r2, [sp, #32]	@ tmp211, cache
 1218 0210 0300A0E1 		mov	r0, r3	@, D.10679
 1219 0214 FEFFFFEB 		bl	_ZL16sd_raw_send_byteh	@
 704:sd_raw.cpp    ****         for(i = 0; i < 512; ++i)
 1220              		.loc 1 704 0 discriminator 2
 1221 0218 BE31DDE1 		ldrh	r3, [sp, #30]	@ movhi	@ tmp212, i
 1222 021c 013083E2 		add	r3, r3, #1	@ tmp213, tmp212,
 1223 0220 BE31CDE1 		strh	r3, [sp, #30]	@ movhi	@ tmp213, i
 1224              	.L75:
 704:sd_raw.cpp    ****         for(i = 0; i < 512; ++i)
 1225              		.loc 1 704 0 is_stmt 0 discriminator 1
 1226 0224 BE21DDE1 		ldrh	r2, [sp, #30]	@ tmp215, i
 1227 0228 C8309FE5 		ldr	r3, .L79+12	@ tmp217,
 1228 022c 030052E1 		cmp	r2, r3	@ tmp215, tmp217
 1229 0230 0030A083 		movhi	r3, #0	@, tmp216
 1230 0234 0130A093 		movls	r3, #1	@, tmp216
 1231 0238 FF3003E2 		and	r3, r3, #255	@ D.10677, tmp214,
 1232 023c 000053E3 		cmp	r3, #0	@ D.10677,
 1233 0240 EDFFFF1A 		bne	.L76	@,
 706:sd_raw.cpp    **** 
 707:sd_raw.cpp    ****         /* write dummy crc16 */
 708:sd_raw.cpp    ****         sd_raw_send_byte(0xff);
 1234              		.loc 1 708 0 is_stmt 1
 1235 0244 FF00A0E3 		mov	r0, #255	@,
 1236 0248 FEFFFFEB 		bl	_ZL16sd_raw_send_byteh	@
 709:sd_raw.cpp    ****         sd_raw_send_byte(0xff);
 1237              		.loc 1 709 0
 1238 024c FF00A0E3 		mov	r0, #255	@,
ARM GAS  /tmp/ccX0J2UF.s 			page 36


 1239 0250 FEFFFFEB 		bl	_ZL16sd_raw_send_byteh	@
 710:sd_raw.cpp    **** 
 711:sd_raw.cpp    ****         /* wait while card is busy */
 712:sd_raw.cpp    ****         while(sd_raw_rec_byte() != 0xff);
 1240              		.loc 1 712 0
 1241 0254 0000A0E1 		mov	r0, r0	@ nop
 1242              	.L77:
 1243              		.loc 1 712 0 is_stmt 0 discriminator 1
 1244 0258 FEFFFFEB 		bl	_ZL15sd_raw_rec_bytev	@
 1245 025c 0030A0E1 		mov	r3, r0	@ tmp218,
 1246 0260 FF0053E3 		cmp	r3, #255	@ D.10684,
 1247 0264 0030A003 		moveq	r3, #0	@, tmp220
 1248 0268 0130A013 		movne	r3, #1	@, tmp220
 1249 026c FF3003E2 		and	r3, r3, #255	@ retval.17, tmp219,
 1250 0270 000053E3 		cmp	r3, #0	@ retval.17,
 1251 0274 F7FFFF1A 		bne	.L77	@,
 713:sd_raw.cpp    ****         sd_raw_rec_byte();
 1252              		.loc 1 713 0 is_stmt 1
 1253 0278 FEFFFFEB 		bl	_ZL15sd_raw_rec_bytev	@
 714:sd_raw.cpp    **** 
 715:sd_raw.cpp    ****         /* deaddress card */
 716:sd_raw.cpp    ****         unselect_card();
 1254              		.loc 1 716 0
 1255 027c 7C309FE5 		ldr	r3, .L79+20	@ D.10685,
 1256 0280 78209FE5 		ldr	r2, .L79+20	@ D.10686,
 1257 0284 002092E5 		ldr	r2, [r2, #0]	@ D.10687,* D.10686
 1258 0288 012682E3 		orr	r2, r2, #1048576	@ D.10688, D.10687,
 1259 028c 002083E5 		str	r2, [r3, #0]	@ D.10688,* D.10685
 717:sd_raw.cpp    **** 
 718:sd_raw.cpp    ****         length -= write_length;
 1260              		.loc 1 718 0
 1261 0290 B620DDE1 		ldrh	r2, [sp, #6]	@ movhi	@ tmp221, length
 1262 0294 B632DDE1 		ldrh	r3, [sp, #38]	@ movhi	@ tmp222, write_length
 1263 0298 023063E0 		rsb	r3, r3, r2	@ tmp223, tmp222, tmp221
 1264 029c B630CDE1 		strh	r3, [sp, #6]	@ movhi	@ tmp223, length
 719:sd_raw.cpp    ****         offset += write_length;
 1265              		.loc 1 719 0
 1266 02a0 B632DDE1 		ldrh	r3, [sp, #38]	@ D.10689, write_length
 1267 02a4 0C209DE5 		ldr	r2, [sp, #12]	@ tmp224, offset
 1268 02a8 033082E0 		add	r3, r2, r3	@ tmp225, tmp224, D.10689
 1269 02ac 0C308DE5 		str	r3, [sp, #12]	@ tmp225, offset
 720:sd_raw.cpp    **** 
 721:sd_raw.cpp    ****         #if SD_RAW_WRITE_BUFFERING
 722:sd_raw.cpp    ****             raw_block_written = 1;
 1270              		.loc 1 722 0
 1271 02b0 38309FE5 		ldr	r3, .L79+4	@ tmp226,
 1272 02b4 0120A0E3 		mov	r2, #1	@ tmp227,
 1273 02b8 0020C3E5 		strb	r2, [r3, #0]	@ tmp228, raw_block_written
 1274              	.L66:
 1275              	.LBE10:
 644:sd_raw.cpp    ****         while(length > 0)
 1276              		.loc 1 644 0 discriminator 1
 1277 02bc B630DDE1 		ldrh	r3, [sp, #6]	@ tmp230, length
 1278 02c0 000053E3 		cmp	r3, #0	@ tmp230,
 1279 02c4 0030A003 		moveq	r3, #0	@, tmp231
 1280 02c8 0130A013 		movne	r3, #1	@, tmp231
 1281 02cc FF3003E2 		and	r3, r3, #255	@ D.10628, tmp229,
ARM GAS  /tmp/ccX0J2UF.s 			page 37


 1282 02d0 000053E3 		cmp	r3, #0	@ D.10628,
 1283 02d4 50FFFF1A 		bne	.L78	@,
 723:sd_raw.cpp    ****         #endif
 724:sd_raw.cpp    ****     }
 725:sd_raw.cpp    **** 
 726:sd_raw.cpp    ****     return 1;
 1284              		.loc 1 726 0
 1285 02d8 0130A0E3 		mov	r3, #1	@ D.10624,
 1286              	.L70:
 1287              	.LBE9:
 727:sd_raw.cpp    ****     #else
 728:sd_raw.cpp    ****         return 0;
 729:sd_raw.cpp    ****     #endif
 730:sd_raw.cpp    **** }
 1288              		.loc 1 730 0
 1289 02dc 0300A0E1 		mov	r0, r3	@, <retval>
 1290 02e0 2CD08DE2 		add	sp, sp, #44	@,,
 1291 02e4 04E09DE4 		ldr	lr, [sp], #4
 1292 02e8 1EFF2FE1 		bx	lr
 1293              	.L80:
 1294              		.align	2
 1295              	.L79:
 1296 02ec 00020000 		.word	_ZL17raw_block_address
 1297 02f0 04020000 		.word	_ZL17raw_block_written
 1298 02f4 00000000 		.word	_ZL9raw_block
 1299 02f8 FF010000 		.word	511
 1300 02fc 1CC0FF3F 		.word	1073725468
 1301 0300 18C0FF3F 		.word	1073725464
 1302              		.cfi_endproc
 1303              	.LFE117:
 1304              		.size	_Z12sd_raw_writejPKht, .-_Z12sd_raw_writejPKht
 1305              		.section	.text._Z11sd_raw_syncv,"ax",%progbits
 1306              		.align	2
 1307              		.global	_Z11sd_raw_syncv
 1308              		.type	_Z11sd_raw_syncv, %function
 1309              	_Z11sd_raw_syncv:
 1310              	.LFB118:
 731:sd_raw.cpp    **** 
 732:sd_raw.cpp    **** /**
 733:sd_raw.cpp    ****  * \ingroup sd_raw
 734:sd_raw.cpp    ****  * Writes the write buffer's content to the card.
 735:sd_raw.cpp    ****  *
 736:sd_raw.cpp    ****  * \note When write buffering is enabled, you should
 737:sd_raw.cpp    ****  *       call this function before disconnecting the
 738:sd_raw.cpp    ****  *       card to ensure all remaining data has been
 739:sd_raw.cpp    ****  *       written.
 740:sd_raw.cpp    ****  *
 741:sd_raw.cpp    ****  * \returns 0 on failure, 1 on success.
 742:sd_raw.cpp    ****  * \see sd_raw_write
 743:sd_raw.cpp    ****  */
 744:sd_raw.cpp    **** unsigned char sd_raw_sync()
 745:sd_raw.cpp    **** {
 1311              		.loc 1 745 0
 1312              		.cfi_startproc
 1313              		@ Function supports interworking.
 1314              		@ args = 0, pretend = 0, frame = 0
 1315              		@ frame_needed = 0, uses_anonymous_args = 0
ARM GAS  /tmp/ccX0J2UF.s 			page 38


 1316 0000 08402DE9 		stmfd	sp!, {r3, lr}	@,
 1317              	.LCFI12:
 1318              		.cfi_def_cfa_offset 8
 746:sd_raw.cpp    ****     #if SD_RAW_WRITE_SUPPORT
 747:sd_raw.cpp    ****         #if SD_RAW_WRITE_BUFFERING
 748:sd_raw.cpp    ****         if(raw_block_written)
 1319              		.loc 1 748 0
 1320 0004 5C309FE5 		ldr	r3, .L85	@ tmp139,
 1321              		.cfi_offset 14, -4
 1322              		.cfi_offset 3, -8
 1323 0008 0030D3E5 		ldrb	r3, [r3, #0]	@ zero_extendqisi2	@ raw_block_written.8, raw_block_written
 1324 000c 000053E3 		cmp	r3, #0	@ raw_block_written.8,
 1325 0010 0100000A 		beq	.L82	@,
 749:sd_raw.cpp    ****             return 1;
 1326              		.loc 1 749 0
 1327 0014 0130A0E3 		mov	r3, #1	@ D.10615,
 1328 0018 0F0000EA 		b	.L83	@
 1329              	.L82:
 750:sd_raw.cpp    ****         if(!sd_raw_write(raw_block_address, raw_block, sizeof(raw_block)))
 1330              		.loc 1 750 0
 1331 001c 48309FE5 		ldr	r3, .L85+4	@ tmp140,
 1332 0020 003093E5 		ldr	r3, [r3, #0]	@ raw_block_address.10, raw_block_address
 1333 0024 0300A0E1 		mov	r0, r3	@, raw_block_address.10
 1334 0028 40109FE5 		ldr	r1, .L85+8	@,
 1335 002c 022CA0E3 		mov	r2, #512	@,
 1336 0030 FEFFFFEB 		bl	_Z12sd_raw_writejPKht	@
 1337 0034 0030A0E1 		mov	r3, r0	@ tmp141,
 1338 0038 000053E3 		cmp	r3, #0	@ D.10618,
 1339 003c 0030A013 		movne	r3, #0	@, tmp143
 1340 0040 0130A003 		moveq	r3, #1	@, tmp143
 1341 0044 FF3003E2 		and	r3, r3, #255	@ retval.9, tmp142,
 1342 0048 000053E3 		cmp	r3, #0	@ retval.9,
 1343 004c 0100000A 		beq	.L84	@,
 751:sd_raw.cpp    ****             return 0;
 1344              		.loc 1 751 0
 1345 0050 0030A0E3 		mov	r3, #0	@ D.10615,
 1346 0054 000000EA 		b	.L83	@
 1347              	.L84:
 752:sd_raw.cpp    ****     #endif
 753:sd_raw.cpp    ****     return 1;
 1348              		.loc 1 753 0
 1349 0058 0130A0E3 		mov	r3, #1	@ D.10615,
 1350              	.L83:
 754:sd_raw.cpp    ****     #else
 755:sd_raw.cpp    ****     return 0;
 756:sd_raw.cpp    ****     #endif
 757:sd_raw.cpp    **** }
 1351              		.loc 1 757 0
 1352 005c 0300A0E1 		mov	r0, r3	@, <retval>
 1353 0060 0840BDE8 		ldmfd	sp!, {r3, lr}
 1354 0064 1EFF2FE1 		bx	lr
 1355              	.L86:
 1356              		.align	2
 1357              	.L85:
 1358 0068 04020000 		.word	_ZL17raw_block_written
 1359 006c 00020000 		.word	_ZL17raw_block_address
 1360 0070 00000000 		.word	_ZL9raw_block
ARM GAS  /tmp/ccX0J2UF.s 			page 39


 1361              		.cfi_endproc
 1362              	.LFE118:
 1363              		.size	_Z11sd_raw_syncv, .-_Z11sd_raw_syncv
 1364              		.section	.text._Z15sd_raw_get_infoP11sd_raw_info,"ax",%progbits
 1365              		.align	2
 1366              		.global	_Z15sd_raw_get_infoP11sd_raw_info
 1367              		.type	_Z15sd_raw_get_infoP11sd_raw_info, %function
 1368              	_Z15sd_raw_get_infoP11sd_raw_info:
 1369              	.LFB119:
 758:sd_raw.cpp    **** 
 759:sd_raw.cpp    **** /**
 760:sd_raw.cpp    ****  * \ingroup sd_raw
 761:sd_raw.cpp    ****  * Reads informational data from the card.
 762:sd_raw.cpp    ****  *
 763:sd_raw.cpp    ****  * This function reads and returns the card's registers
 764:sd_raw.cpp    ****  * containing manufacturing and status information.
 765:sd_raw.cpp    ****  *
 766:sd_raw.cpp    ****  * \note: The information retrieved by this function is
 767:sd_raw.cpp    ****  *        not required in any way to operate on the card,
 768:sd_raw.cpp    ****  *        but it might be nice to display some of the data
 769:sd_raw.cpp    ****  *        to the user.
 770:sd_raw.cpp    ****  *
 771:sd_raw.cpp    ****  * \param[in] info A pointer to the structure into which to save the information.
 772:sd_raw.cpp    ****  * \returns 0 on failure, 1 on success.
 773:sd_raw.cpp    ****  */
 774:sd_raw.cpp    **** unsigned char sd_raw_get_info(struct sd_raw_info* info)
 775:sd_raw.cpp    **** {
 1370              		.loc 1 775 0
 1371              		.cfi_startproc
 1372              		@ Function supports interworking.
 1373              		@ args = 0, pretend = 0, frame = 16
 1374              		@ frame_needed = 0, uses_anonymous_args = 0
 1375 0000 04E02DE5 		str	lr, [sp, #-4]!	@,
 1376              	.LCFI13:
 1377              		.cfi_def_cfa_offset 4
 1378 0004 14D04DE2 		sub	sp, sp, #20	@,,
 1379              	.LCFI14:
 1380              		.cfi_def_cfa_offset 24
 1381 0008 04008DE5 		str	r0, [sp, #4]	@ info, info
 1382              	.LBB11:
 776:sd_raw.cpp    ****     if(!info || !sd_raw_available())
 1383              		.loc 1 776 0
 1384 000c 04309DE5 		ldr	r3, [sp, #4]	@ tmp216, info
 1385 0010 000053E3 		cmp	r3, #0	@ tmp216,
 1386 0014 0300000A 		beq	.L88	@,
 1387              		.cfi_offset 14, -4
 1388              		.loc 1 776 0 is_stmt 0 discriminator 2
 1389 0018 FEFFFFEB 		bl	_Z16sd_raw_availablev	@
 1390 001c 0030A0E1 		mov	r3, r0	@ tmp217,
 1391 0020 000053E3 		cmp	r3, #0	@ D.10498,
 1392 0024 0100001A 		bne	.L89	@,
 1393              	.L88:
 1394              		.loc 1 776 0 discriminator 1
 1395 0028 0130A0E3 		mov	r3, #1	@ iftmp.1,
 1396 002c 000000EA 		b	.L90	@
 1397              	.L89:
 1398              		.loc 1 776 0 discriminator 3
ARM GAS  /tmp/ccX0J2UF.s 			page 40


 1399 0030 0030A0E3 		mov	r3, #0	@ iftmp.1,
 1400              	.L90:
 1401              		.loc 1 776 0 discriminator 4
 1402 0034 000053E3 		cmp	r3, #0	@ retval.0,
 1403 0038 0100000A 		beq	.L91	@,
 777:sd_raw.cpp    ****         return 0;
 1404              		.loc 1 777 0 is_stmt 1
 1405 003c 0030A0E3 		mov	r3, #0	@ D.10501,
 1406 0040 1C0100EA 		b	.L92	@
 1407              	.L91:
 778:sd_raw.cpp    **** 
 779:sd_raw.cpp    ****     memset(info, 0, sizeof(*info));
 1408              		.loc 1 779 0
 1409 0044 04009DE5 		ldr	r0, [sp, #4]	@, info
 1410 0048 0010A0E3 		mov	r1, #0	@,
 1411 004c 1C20A0E3 		mov	r2, #28	@,
 1412 0050 FEFFFFEB 		bl	memset	@
 780:sd_raw.cpp    **** 
 781:sd_raw.cpp    ****     select_card();
 1413              		.loc 1 781 0
 1414 0054 6C349FE5 		ldr	r3, .L124	@ D.10502,
 1415 0058 68249FE5 		ldr	r2, .L124	@ D.10503,
 1416 005c 002092E5 		ldr	r2, [r2, #0]	@ D.10504,* D.10503
 1417 0060 012682E3 		orr	r2, r2, #1048576	@ D.10505, D.10504,
 1418 0064 002083E5 		str	r2, [r3, #0]	@ D.10505,* D.10502
 782:sd_raw.cpp    **** 
 783:sd_raw.cpp    ****     /* read cid register */
 784:sd_raw.cpp    ****     if(sd_raw_send_command_r1(CMD_SEND_CID, 0))
 1419              		.loc 1 784 0
 1420 0068 0A00A0E3 		mov	r0, #10	@,
 1421 006c 0010A0E3 		mov	r1, #0	@,
 1422 0070 FEFFFFEB 		bl	_ZL22sd_raw_send_command_r1hj	@
 1423 0074 0030A0E1 		mov	r3, r0	@ tmp218,
 1424 0078 000053E3 		cmp	r3, #0	@ D.10507,
 1425 007c 0030A003 		moveq	r3, #0	@, tmp220
 1426 0080 0130A013 		movne	r3, #1	@, tmp220
 1427 0084 FF3003E2 		and	r3, r3, #255	@ retval.2, tmp219,
 1428 0088 000053E3 		cmp	r3, #0	@ retval.2,
 1429 008c 0600000A 		beq	.L122	@,
 785:sd_raw.cpp    ****     {
 786:sd_raw.cpp    ****         unselect_card();
 1430              		.loc 1 786 0
 1431 0090 34349FE5 		ldr	r3, .L124+4	@ D.10510,
 1432 0094 30249FE5 		ldr	r2, .L124+4	@ D.10511,
 1433 0098 002092E5 		ldr	r2, [r2, #0]	@ D.10512,* D.10511
 1434 009c 012682E3 		orr	r2, r2, #1048576	@ D.10513, D.10512,
 1435 00a0 002083E5 		str	r2, [r3, #0]	@ D.10513,* D.10510
 787:sd_raw.cpp    ****         return 0;
 1436              		.loc 1 787 0
 1437 00a4 0030A0E3 		mov	r3, #0	@ D.10501,
 1438 00a8 020100EA 		b	.L92	@
 1439              	.L122:
 788:sd_raw.cpp    ****     }
 789:sd_raw.cpp    ****     while(sd_raw_rec_byte() != 0xfe);
 1440              		.loc 1 789 0
 1441 00ac 0000A0E1 		mov	r0, r0	@ nop
 1442              	.L94:
ARM GAS  /tmp/ccX0J2UF.s 			page 41


 1443              		.loc 1 789 0 is_stmt 0 discriminator 1
 1444 00b0 FEFFFFEB 		bl	_ZL15sd_raw_rec_bytev	@
 1445 00b4 0030A0E1 		mov	r3, r0	@ tmp221,
 1446 00b8 FE0053E3 		cmp	r3, #254	@ D.10518,
 1447 00bc 0030A003 		moveq	r3, #0	@, tmp223
 1448 00c0 0130A013 		movne	r3, #1	@, tmp223
 1449 00c4 FF3003E2 		and	r3, r3, #255	@ retval.3, tmp222,
 1450 00c8 000053E3 		cmp	r3, #0	@ retval.3,
 1451 00cc F7FFFF1A 		bne	.L94	@,
 1452              	.LBB12:
 790:sd_raw.cpp    ****     unsigned char i;
 791:sd_raw.cpp    ****     for(i = 0; i < 18; ++i)
 1453              		.loc 1 791 0 is_stmt 1
 1454 00d0 0030A0E3 		mov	r3, #0	@ tmp224,
 1455 00d4 0F30CDE5 		strb	r3, [sp, #15]	@ tmp225, i
 1456 00d8 540000EA 		b	.L95	@
 1457              	.L105:
 1458              	.LBB13:
 792:sd_raw.cpp    ****     {
 793:sd_raw.cpp    ****         unsigned char b = sd_raw_rec_byte();
 1459              		.loc 1 793 0
 1460 00dc FEFFFFEB 		bl	_ZL15sd_raw_rec_bytev	@
 1461 00e0 0030A0E1 		mov	r3, r0	@ tmp226,
 1462 00e4 0930CDE5 		strb	r3, [sp, #9]	@ tmp227, b
 794:sd_raw.cpp    **** 
 795:sd_raw.cpp    ****         switch(i)
 1463              		.loc 1 795 0
 1464 00e8 0F30DDE5 		ldrb	r3, [sp, #15]	@ zero_extendqisi2	@ D.10525, i
 1465 00ec 0E0053E3 		cmp	r3, #14	@ D.10525,
 1466 00f0 03F19F97 		ldrls	pc, [pc, r3, asl #2]	@ D.10525
 1467 00f4 4A0000EA 		b	.L96	@
 1468              	.L104:
 1469 00f8 34010000 		.word	.L97
 1470 00fc 44010000 		.word	.L98
 1471 0100 44010000 		.word	.L98
 1472 0104 68010000 		.word	.L99
 1473 0108 68010000 		.word	.L99
 1474 010c 68010000 		.word	.L99
 1475 0110 68010000 		.word	.L99
 1476 0114 68010000 		.word	.L99
 1477 0118 8C010000 		.word	.L100
 1478 011c 9C010000 		.word	.L101
 1479 0120 9C010000 		.word	.L101
 1480 0124 9C010000 		.word	.L101
 1481 0128 9C010000 		.word	.L101
 1482 012c C8010000 		.word	.L102
 1483 0130 E0010000 		.word	.L103
 1484              	.L97:
 796:sd_raw.cpp    ****         {
 797:sd_raw.cpp    ****             case 0:
 798:sd_raw.cpp    ****                 info->manufacturer = b;
 1485              		.loc 1 798 0
 1486 0134 04309DE5 		ldr	r3, [sp, #4]	@ tmp228, info
 1487 0138 0920DDE5 		ldrb	r2, [sp, #9]	@ tmp229, b
 1488 013c 0020C3E5 		strb	r2, [r3, #0]	@ tmp229, info_11(D)->manufacturer
 799:sd_raw.cpp    ****                 break;
 1489              		.loc 1 799 0
ARM GAS  /tmp/ccX0J2UF.s 			page 42


 1490 0140 370000EA 		b	.L96	@
 1491              	.L98:
 800:sd_raw.cpp    ****             case 1:
 801:sd_raw.cpp    ****             case 2:
 802:sd_raw.cpp    ****                 info->oem[i - 1] = b;
 1492              		.loc 1 802 0
 1493 0144 0F30DDE5 		ldrb	r3, [sp, #15]	@ zero_extendqisi2	@ D.10526, i
 1494 0148 012043E2 		sub	r2, r3, #1	@ D.10527, D.10526,
 1495 014c 04109DE5 		ldr	r1, [sp, #4]	@ tmp230, info
 1496 0150 0130A0E3 		mov	r3, #1	@ tmp231,
 1497 0154 022081E0 		add	r2, r1, r2	@ tmp232, tmp230, D.10527
 1498 0158 033082E0 		add	r3, r2, r3	@ tmp233, tmp232, tmp231
 1499 015c 0920DDE5 		ldrb	r2, [sp, #9]	@ tmp234, b
 1500 0160 0020C3E5 		strb	r2, [r3, #0]	@ tmp234, info_11(D)->oem
 803:sd_raw.cpp    ****                 break;
 1501              		.loc 1 803 0
 1502 0164 2E0000EA 		b	.L96	@
 1503              	.L99:
 804:sd_raw.cpp    ****             case 3:
 805:sd_raw.cpp    ****             case 4:
 806:sd_raw.cpp    ****             case 5:
 807:sd_raw.cpp    ****             case 6:
 808:sd_raw.cpp    ****             case 7:
 809:sd_raw.cpp    ****                 info->product[i - 3] = b;
 1504              		.loc 1 809 0
 1505 0168 0F30DDE5 		ldrb	r3, [sp, #15]	@ zero_extendqisi2	@ D.10528, i
 1506 016c 032043E2 		sub	r2, r3, #3	@ D.10529, D.10528,
 1507 0170 04109DE5 		ldr	r1, [sp, #4]	@ tmp235, info
 1508 0174 0430A0E3 		mov	r3, #4	@ tmp236,
 1509 0178 022081E0 		add	r2, r1, r2	@ tmp237, tmp235, D.10529
 1510 017c 033082E0 		add	r3, r2, r3	@ tmp238, tmp237, tmp236
 1511 0180 0920DDE5 		ldrb	r2, [sp, #9]	@ tmp239, b
 1512 0184 0020C3E5 		strb	r2, [r3, #0]	@ tmp239, info_11(D)->product
 810:sd_raw.cpp    ****                 break;
 1513              		.loc 1 810 0
 1514 0188 250000EA 		b	.L96	@
 1515              	.L100:
 811:sd_raw.cpp    ****             case 8:
 812:sd_raw.cpp    ****                 info->revision = b;
 1516              		.loc 1 812 0
 1517 018c 04309DE5 		ldr	r3, [sp, #4]	@ tmp240, info
 1518 0190 0920DDE5 		ldrb	r2, [sp, #9]	@ tmp241, b
 1519 0194 0A20C3E5 		strb	r2, [r3, #10]	@ tmp241, info_11(D)->revision
 813:sd_raw.cpp    ****                 break;
 1520              		.loc 1 813 0
 1521 0198 210000EA 		b	.L96	@
 1522              	.L101:
 814:sd_raw.cpp    ****             case 9:
 815:sd_raw.cpp    ****             case 10:
 816:sd_raw.cpp    ****             case 11:
 817:sd_raw.cpp    ****             case 12:
 818:sd_raw.cpp    ****                 info->serial |= (unsigned int) b << ((12 - i) * 8);
 1523              		.loc 1 818 0
 1524 019c 04309DE5 		ldr	r3, [sp, #4]	@ tmp242, info
 1525 01a0 0C2093E5 		ldr	r2, [r3, #12]	@ D.10530, info_11(D)->serial
 1526 01a4 0910DDE5 		ldrb	r1, [sp, #9]	@ zero_extendqisi2	@ D.10531, b
 1527 01a8 0F30DDE5 		ldrb	r3, [sp, #15]	@ zero_extendqisi2	@ D.10532, i
ARM GAS  /tmp/ccX0J2UF.s 			page 43


 1528 01ac 0C3063E2 		rsb	r3, r3, #12	@ D.10533, D.10532,
 1529 01b0 8331A0E1 		mov	r3, r3, asl #3	@ D.10534, D.10533,
 1530 01b4 1133A0E1 		mov	r3, r1, asl r3	@ D.10535, D.10531,
 1531 01b8 032082E1 		orr	r2, r2, r3	@ D.10536, D.10530, D.10535
 1532 01bc 04309DE5 		ldr	r3, [sp, #4]	@ tmp243, info
 1533 01c0 0C2083E5 		str	r2, [r3, #12]	@ D.10536, info_11(D)->serial
 819:sd_raw.cpp    ****                 break;
 1534              		.loc 1 819 0
 1535 01c4 160000EA 		b	.L96	@
 1536              	.L102:
 820:sd_raw.cpp    ****             case 13:
 821:sd_raw.cpp    ****                 info->manufacturing_year = b << 4;
 1537              		.loc 1 821 0
 1538 01c8 0930DDE5 		ldrb	r3, [sp, #9]	@ tmp244, b
 1539 01cc 0332A0E1 		mov	r3, r3, asl #4	@ tmp245, tmp244,
 1540 01d0 FF2003E2 		and	r2, r3, #255	@ D.10537, tmp245,
 1541 01d4 04309DE5 		ldr	r3, [sp, #4]	@ tmp246, info
 1542 01d8 1020C3E5 		strb	r2, [r3, #16]	@ tmp247, info_11(D)->manufacturing_year
 822:sd_raw.cpp    ****                 break;
 1543              		.loc 1 822 0
 1544 01dc 100000EA 		b	.L96	@
 1545              	.L103:
 823:sd_raw.cpp    ****             case 14:
 824:sd_raw.cpp    ****                 info->manufacturing_year |= b >> 4;
 1546              		.loc 1 824 0
 1547 01e0 04309DE5 		ldr	r3, [sp, #4]	@ tmp248, info
 1548 01e4 1030D3E5 		ldrb	r3, [r3, #16]	@ zero_extendqisi2	@ D.10538, info_11(D)->manufacturing_year
 1549 01e8 FF2003E2 		and	r2, r3, #255	@ D.10539, D.10538,
 1550 01ec 0930DDE5 		ldrb	r3, [sp, #9]	@ zero_extendqisi2	@ D.10540, b
 1551 01f0 4332A0E1 		mov	r3, r3, asr #4	@ D.10541, D.10540,
 1552 01f4 FF3003E2 		and	r3, r3, #255	@ D.10542, D.10541,
 1553 01f8 033082E1 		orr	r3, r2, r3	@ tmp251, tmp249, tmp250
 1554 01fc FF3003E2 		and	r3, r3, #255	@ D.10543, tmp251,
 1555 0200 FF2003E2 		and	r2, r3, #255	@ D.10544, D.10543,
 1556 0204 04309DE5 		ldr	r3, [sp, #4]	@ tmp252, info
 1557 0208 1020C3E5 		strb	r2, [r3, #16]	@ tmp253, info_11(D)->manufacturing_year
 825:sd_raw.cpp    ****                 info->manufacturing_month = b & 0x0f;
 1558              		.loc 1 825 0
 1559 020c 0930DDE5 		ldrb	r3, [sp, #9]	@ tmp254, b
 1560 0210 0F3003E2 		and	r3, r3, #15	@ tmp255, tmp254,
 1561 0214 FF2003E2 		and	r2, r3, #255	@ D.10545, tmp255,
 1562 0218 04309DE5 		ldr	r3, [sp, #4]	@ tmp256, info
 1563 021c 1120C3E5 		strb	r2, [r3, #17]	@ tmp257, info_11(D)->manufacturing_month
 826:sd_raw.cpp    ****                 break;
 1564              		.loc 1 826 0
 1565 0220 0000A0E1 		mov	r0, r0	@ nop
 1566              	.L96:
 1567              	.LBE13:
 791:sd_raw.cpp    ****     for(i = 0; i < 18; ++i)
 1568              		.loc 1 791 0
 1569 0224 0F30DDE5 		ldrb	r3, [sp, #15]	@ tmp258, i
 1570 0228 013083E2 		add	r3, r3, #1	@ tmp259, tmp258,
 1571 022c 0F30CDE5 		strb	r3, [sp, #15]	@ tmp260, i
 1572              	.L95:
 791:sd_raw.cpp    ****     for(i = 0; i < 18; ++i)
 1573              		.loc 1 791 0 is_stmt 0 discriminator 1
 1574 0230 0F30DDE5 		ldrb	r3, [sp, #15]	@ zero_extendqisi2	@ tmp262, i
ARM GAS  /tmp/ccX0J2UF.s 			page 44


 1575 0234 110053E3 		cmp	r3, #17	@ tmp262,
 1576 0238 0030A083 		movhi	r3, #0	@, tmp263
 1577 023c 0130A093 		movls	r3, #1	@, tmp263
 1578 0240 FF3003E2 		and	r3, r3, #255	@ D.10522, tmp261,
 1579 0244 000053E3 		cmp	r3, #0	@ D.10522,
 1580 0248 A3FFFF1A 		bne	.L105	@,
 1581              	.LBE12:
 827:sd_raw.cpp    ****         }
 828:sd_raw.cpp    ****     }
 829:sd_raw.cpp    **** 
 830:sd_raw.cpp    ****     /* read csd register */
 831:sd_raw.cpp    ****     unsigned char csd_read_bl_len = 0;
 1582              		.loc 1 831 0 is_stmt 1
 1583 024c 0030A0E3 		mov	r3, #0	@ tmp264,
 1584 0250 0E30CDE5 		strb	r3, [sp, #14]	@ tmp265, csd_read_bl_len
 832:sd_raw.cpp    ****     unsigned char csd_c_size_mult = 0;
 1585              		.loc 1 832 0
 1586 0254 0030A0E3 		mov	r3, #0	@ tmp266,
 1587 0258 0D30CDE5 		strb	r3, [sp, #13]	@ tmp267, csd_c_size_mult
 833:sd_raw.cpp    ****     unsigned short csd_c_size = 0;
 1588              		.loc 1 833 0
 1589 025c 0030A0E3 		mov	r3, #0	@ tmp269,
 1590 0260 BA30CDE1 		strh	r3, [sp, #10]	@ movhi	@ tmp268, csd_c_size
 834:sd_raw.cpp    ****     if(sd_raw_send_command_r1(CMD_SEND_CSD, 0))
 1591              		.loc 1 834 0
 1592 0264 0900A0E3 		mov	r0, #9	@,
 1593 0268 0010A0E3 		mov	r1, #0	@,
 1594 026c FEFFFFEB 		bl	_ZL22sd_raw_send_command_r1hj	@
 1595 0270 0030A0E1 		mov	r3, r0	@ tmp270,
 1596 0274 000053E3 		cmp	r3, #0	@ D.10548,
 1597 0278 0030A003 		moveq	r3, #0	@, tmp272
 1598 027c 0130A013 		movne	r3, #1	@, tmp272
 1599 0280 FF3003E2 		and	r3, r3, #255	@ retval.4, tmp271,
 1600 0284 000053E3 		cmp	r3, #0	@ retval.4,
 1601 0288 0600000A 		beq	.L123	@,
 835:sd_raw.cpp    ****     {
 836:sd_raw.cpp    ****         unselect_card();
 1602              		.loc 1 836 0
 1603 028c 38329FE5 		ldr	r3, .L124+4	@ D.10551,
 1604 0290 34229FE5 		ldr	r2, .L124+4	@ D.10552,
 1605 0294 002092E5 		ldr	r2, [r2, #0]	@ D.10553,* D.10552
 1606 0298 012682E3 		orr	r2, r2, #1048576	@ D.10554, D.10553,
 1607 029c 002083E5 		str	r2, [r3, #0]	@ D.10554,* D.10551
 837:sd_raw.cpp    ****         return 0;
 1608              		.loc 1 837 0
 1609 02a0 0030A0E3 		mov	r3, #0	@ D.10501,
 1610 02a4 830000EA 		b	.L92	@
 1611              	.L123:
 838:sd_raw.cpp    ****     }
 839:sd_raw.cpp    ****     while(sd_raw_rec_byte() != 0xfe);
 1612              		.loc 1 839 0
 1613 02a8 0000A0E1 		mov	r0, r0	@ nop
 1614              	.L107:
 1615              		.loc 1 839 0 is_stmt 0 discriminator 1
 1616 02ac FEFFFFEB 		bl	_ZL15sd_raw_rec_bytev	@
 1617 02b0 0030A0E1 		mov	r3, r0	@ tmp273,
 1618 02b4 FE0053E3 		cmp	r3, #254	@ D.10559,
ARM GAS  /tmp/ccX0J2UF.s 			page 45


 1619 02b8 0030A003 		moveq	r3, #0	@, tmp275
 1620 02bc 0130A013 		movne	r3, #1	@, tmp275
 1621 02c0 FF3003E2 		and	r3, r3, #255	@ retval.5, tmp274,
 1622 02c4 000053E3 		cmp	r3, #0	@ retval.5,
 1623 02c8 F7FFFF1A 		bne	.L107	@,
 1624              	.LBB14:
 840:sd_raw.cpp    ****     for(i = 0; i < 18; ++i)
 1625              		.loc 1 840 0 is_stmt 1
 1626 02cc 0030A0E3 		mov	r3, #0	@ tmp276,
 1627 02d0 0F30CDE5 		strb	r3, [sp, #15]	@ tmp277, i
 1628 02d4 6A0000EA 		b	.L108	@
 1629              	.L121:
 1630              	.LBB15:
 841:sd_raw.cpp    ****     {
 842:sd_raw.cpp    ****         unsigned char b = sd_raw_rec_byte();
 1631              		.loc 1 842 0
 1632 02d8 FEFFFFEB 		bl	_ZL15sd_raw_rec_bytev	@
 1633 02dc 0030A0E1 		mov	r3, r0	@ tmp278,
 1634 02e0 0830CDE5 		strb	r3, [sp, #8]	@ tmp279, b
 843:sd_raw.cpp    **** 
 844:sd_raw.cpp    ****         switch(i)
 1635              		.loc 1 844 0
 1636 02e4 0F30DDE5 		ldrb	r3, [sp, #15]	@ zero_extendqisi2	@ D.10566, i
 1637 02e8 053043E2 		sub	r3, r3, #5	@ tmp280, D.10566,
 1638 02ec 090053E3 		cmp	r3, #9	@ tmp280,
 1639 02f0 03F19F97 		ldrls	pc, [pc, r3, asl #2]	@ tmp280
 1640 02f4 5F0000EA 		b	.L109	@
 1641              	.L117:
 1642 02f8 20030000 		.word	.L110
 1643 02fc 30030000 		.word	.L111
 1644 0300 54030000 		.word	.L112
 1645 0304 7C030000 		.word	.L113
 1646 0308 B0030000 		.word	.L114
 1647 030c C8030000 		.word	.L115
 1648 0310 78040000 		.word	.L109
 1649 0314 78040000 		.word	.L109
 1650 0318 78040000 		.word	.L109
 1651 031c 08040000 		.word	.L116
 1652              	.L110:
 845:sd_raw.cpp    ****         {
 846:sd_raw.cpp    ****             case 5:
 847:sd_raw.cpp    ****                 csd_read_bl_len = b & 0x0f;
 1653              		.loc 1 847 0
 1654 0320 0830DDE5 		ldrb	r3, [sp, #8]	@ tmp281, b
 1655 0324 0F3003E2 		and	r3, r3, #15	@ tmp282, tmp281,
 1656 0328 0E30CDE5 		strb	r3, [sp, #14]	@ tmp283, csd_read_bl_len
 848:sd_raw.cpp    ****                 break;
 1657              		.loc 1 848 0
 1658 032c 510000EA 		b	.L109	@
 1659              	.L111:
 849:sd_raw.cpp    ****             case 6:
 850:sd_raw.cpp    ****                 csd_c_size = (unsigned short) (b & 0x03) << 8;
 1660              		.loc 1 850 0
 1661 0330 0830DDE5 		ldrb	r3, [sp, #8]	@ zero_extendqisi2	@ tmp285, b
 1662 0334 0338A0E1 		mov	r3, r3, asl #16	@ tmp286, tmp284,
 1663 0338 2338A0E1 		mov	r3, r3, lsr #16	@ D.10567, tmp286,
 1664 033c 033003E2 		and	r3, r3, #3	@ tmp287, D.10567,
ARM GAS  /tmp/ccX0J2UF.s 			page 46


 1665 0340 0338A0E1 		mov	r3, r3, asl #16	@ tmp288, tmp287,
 1666 0344 2338A0E1 		mov	r3, r3, lsr #16	@ D.10568, tmp288,
 1667 0348 0334A0E1 		mov	r3, r3, asl #8	@ tmp289, D.10568,
 1668 034c BA30CDE1 		strh	r3, [sp, #10]	@ movhi	@ tmp289, csd_c_size
 851:sd_raw.cpp    ****                 break;
 1669              		.loc 1 851 0
 1670 0350 480000EA 		b	.L109	@
 1671              	.L112:
 852:sd_raw.cpp    ****             case 7:
 853:sd_raw.cpp    ****                 csd_c_size |= b;
 1672              		.loc 1 853 0
 1673 0354 0830DDE5 		ldrb	r3, [sp, #8]	@ zero_extendqisi2	@ tmp291, b
 1674 0358 0338A0E1 		mov	r3, r3, asl #16	@ tmp292, tmp290,
 1675 035c 2328A0E1 		mov	r2, r3, lsr #16	@ D.10569, tmp292,
 1676 0360 BA30DDE1 		ldrh	r3, [sp, #10]	@ movhi	@ tmp293, csd_c_size
 1677 0364 033082E1 		orr	r3, r2, r3	@ tmp294, D.10569, tmp293
 1678 0368 BA30CDE1 		strh	r3, [sp, #10]	@ movhi	@ tmp294, csd_c_size
 854:sd_raw.cpp    ****                 csd_c_size <<= 2;
 1679              		.loc 1 854 0
 1680 036c BA30DDE1 		ldrh	r3, [sp, #10]	@ movhi	@ tmp295, csd_c_size
 1681 0370 0331A0E1 		mov	r3, r3, asl #2	@ tmp296, tmp295,
 1682 0374 BA30CDE1 		strh	r3, [sp, #10]	@ movhi	@ tmp296, csd_c_size
 855:sd_raw.cpp    ****                 break;
 1683              		.loc 1 855 0
 1684 0378 3E0000EA 		b	.L109	@
 1685              	.L113:
 856:sd_raw.cpp    ****             case 8:
 857:sd_raw.cpp    ****                 csd_c_size |= b >> 6;
 1686              		.loc 1 857 0
 1687 037c 0830DDE5 		ldrb	r3, [sp, #8]	@ zero_extendqisi2	@ D.10570, b
 1688 0380 4333A0E1 		mov	r3, r3, asr #6	@ D.10571, D.10570,
 1689 0384 0338A0E1 		mov	r3, r3, asl #16	@ tmp297, D.10571,
 1690 0388 2328A0E1 		mov	r2, r3, lsr #16	@ D.10572, tmp297,
 1691 038c BA30DDE1 		ldrh	r3, [sp, #10]	@ csd_c_size.6, csd_c_size
 1692 0390 033082E1 		orr	r3, r2, r3	@ tmp300, tmp298, tmp299
 1693 0394 0338A0E1 		mov	r3, r3, asl #16	@ tmp301, tmp300,
 1694 0398 2338A0E1 		mov	r3, r3, lsr #16	@ D.10574, tmp301,
 1695 039c BA30CDE1 		strh	r3, [sp, #10]	@ movhi	@ D.10574, csd_c_size
 858:sd_raw.cpp    ****                 ++csd_c_size;
 1696              		.loc 1 858 0
 1697 03a0 BA30DDE1 		ldrh	r3, [sp, #10]	@ movhi	@ tmp302, csd_c_size
 1698 03a4 013083E2 		add	r3, r3, #1	@ tmp303, tmp302,
 1699 03a8 BA30CDE1 		strh	r3, [sp, #10]	@ movhi	@ tmp303, csd_c_size
 859:sd_raw.cpp    ****                 break;
 1700              		.loc 1 859 0
 1701 03ac 310000EA 		b	.L109	@
 1702              	.L114:
 860:sd_raw.cpp    ****             case 9:
 861:sd_raw.cpp    ****                 csd_c_size_mult = (b & 0x03) << 1;
 1703              		.loc 1 861 0
 1704 03b0 0830DDE5 		ldrb	r3, [sp, #8]	@ tmp304, b
 1705 03b4 033003E2 		and	r3, r3, #3	@ tmp305, tmp304,
 1706 03b8 FF3003E2 		and	r3, r3, #255	@ D.10575, tmp305,
 1707 03bc 8330A0E1 		mov	r3, r3, asl #1	@ tmp306, D.10575,
 1708 03c0 0D30CDE5 		strb	r3, [sp, #13]	@ tmp307, csd_c_size_mult
 862:sd_raw.cpp    ****                 break;
 1709              		.loc 1 862 0
ARM GAS  /tmp/ccX0J2UF.s 			page 47


 1710 03c4 2B0000EA 		b	.L109	@
 1711              	.L115:
 863:sd_raw.cpp    ****             case 10:
 864:sd_raw.cpp    ****                 csd_c_size_mult |= b >> 7;
 1712              		.loc 1 864 0
 1713 03c8 0830DDE5 		ldrb	r3, [sp, #8]	@ zero_extendqisi2	@ D.10576, b
 1714 03cc C333A0E1 		mov	r3, r3, asr #7	@ D.10577, D.10576,
 1715 03d0 FF2003E2 		and	r2, r3, #255	@ D.10578, D.10577,
 1716 03d4 0D30DDE5 		ldrb	r3, [sp, #13]	@ zero_extendqisi2	@ csd_c_size_mult.7, csd_c_size_mult
 1717 03d8 033082E1 		orr	r3, r2, r3	@ tmp310, tmp308, tmp309
 1718 03dc FF3003E2 		and	r3, r3, #255	@ D.10580, tmp310,
 1719 03e0 0D30CDE5 		strb	r3, [sp, #13]	@ tmp311, csd_c_size_mult
 865:sd_raw.cpp    **** 
 866:sd_raw.cpp    ****                 info->capacity = (unsigned int) csd_c_size << (csd_c_size_mult + csd_read_bl_len + 
 1720              		.loc 1 866 0
 1721 03e4 BA20DDE1 		ldrh	r2, [sp, #10]	@ D.10581, csd_c_size
 1722 03e8 0D10DDE5 		ldrb	r1, [sp, #13]	@ zero_extendqisi2	@ D.10582, csd_c_size_mult
 1723 03ec 0E30DDE5 		ldrb	r3, [sp, #14]	@ zero_extendqisi2	@ D.10583, csd_read_bl_len
 1724 03f0 033081E0 		add	r3, r1, r3	@ D.10584, D.10582, D.10583
 1725 03f4 023083E2 		add	r3, r3, #2	@ D.10585, D.10584,
 1726 03f8 1223A0E1 		mov	r2, r2, asl r3	@ D.10586, D.10581,
 1727 03fc 04309DE5 		ldr	r3, [sp, #4]	@ tmp312, info
 1728 0400 142083E5 		str	r2, [r3, #20]	@ D.10586, info_11(D)->capacity
 867:sd_raw.cpp    **** 
 868:sd_raw.cpp    ****                 break;
 1729              		.loc 1 868 0
 1730 0404 1B0000EA 		b	.L109	@
 1731              	.L116:
 869:sd_raw.cpp    ****             case 14:
 870:sd_raw.cpp    ****                 if(b & 0x40)
 1732              		.loc 1 870 0
 1733 0408 0830DDE5 		ldrb	r3, [sp, #8]	@ zero_extendqisi2	@ D.10587, b
 1734 040c 403003E2 		and	r3, r3, #64	@ D.10588, D.10587,
 1735 0410 000053E3 		cmp	r3, #0	@ D.10588,
 1736 0414 0200000A 		beq	.L118	@,
 871:sd_raw.cpp    ****                     info->flag_copy = 1;
 1737              		.loc 1 871 0
 1738 0418 04309DE5 		ldr	r3, [sp, #4]	@ tmp313, info
 1739 041c 0120A0E3 		mov	r2, #1	@ tmp314,
 1740 0420 1820C3E5 		strb	r2, [r3, #24]	@ tmp315, info_11(D)->flag_copy
 1741              	.L118:
 872:sd_raw.cpp    ****                 if(b & 0x20)
 1742              		.loc 1 872 0
 1743 0424 0830DDE5 		ldrb	r3, [sp, #8]	@ zero_extendqisi2	@ D.10592, b
 1744 0428 203003E2 		and	r3, r3, #32	@ D.10593, D.10592,
 1745 042c 000053E3 		cmp	r3, #0	@ D.10593,
 1746 0430 0200000A 		beq	.L119	@,
 873:sd_raw.cpp    ****                     info->flag_write_protect = 1;
 1747              		.loc 1 873 0
 1748 0434 04309DE5 		ldr	r3, [sp, #4]	@ tmp316, info
 1749 0438 0120A0E3 		mov	r2, #1	@ tmp317,
 1750 043c 1920C3E5 		strb	r2, [r3, #25]	@ tmp318, info_11(D)->flag_write_protect
 1751              	.L119:
 874:sd_raw.cpp    ****                 if(b & 0x10)
 1752              		.loc 1 874 0
 1753 0440 0830DDE5 		ldrb	r3, [sp, #8]	@ zero_extendqisi2	@ D.10597, b
 1754 0444 103003E2 		and	r3, r3, #16	@ D.10598, D.10597,
ARM GAS  /tmp/ccX0J2UF.s 			page 48


 1755 0448 000053E3 		cmp	r3, #0	@ D.10598,
 1756 044c 0200000A 		beq	.L120	@,
 875:sd_raw.cpp    ****                     info->flag_write_protect_temp = 1;
 1757              		.loc 1 875 0
 1758 0450 04309DE5 		ldr	r3, [sp, #4]	@ tmp319, info
 1759 0454 0120A0E3 		mov	r2, #1	@ tmp320,
 1760 0458 1A20C3E5 		strb	r2, [r3, #26]	@ tmp321, info_11(D)->flag_write_protect_temp
 1761              	.L120:
 876:sd_raw.cpp    ****                 info->format = (b & 0x0c) >> 2;
 1762              		.loc 1 876 0
 1763 045c 0830DDE5 		ldrb	r3, [sp, #8]	@ zero_extendqisi2	@ D.10602, b
 1764 0460 0C3003E2 		and	r3, r3, #12	@ D.10603, D.10602,
 1765 0464 4331A0E1 		mov	r3, r3, asr #2	@ D.10604, D.10603,
 1766 0468 FF2003E2 		and	r2, r3, #255	@ D.10605, D.10604,
 1767 046c 04309DE5 		ldr	r3, [sp, #4]	@ tmp322, info
 1768 0470 1B20C3E5 		strb	r2, [r3, #27]	@ tmp323, info_11(D)->format
 877:sd_raw.cpp    ****                 break;
 1769              		.loc 1 877 0
 1770 0474 0000A0E1 		mov	r0, r0	@ nop
 1771              	.L109:
 1772              	.LBE15:
 840:sd_raw.cpp    ****     for(i = 0; i < 18; ++i)
 1773              		.loc 1 840 0
 1774 0478 0F30DDE5 		ldrb	r3, [sp, #15]	@ tmp324, i
 1775 047c 013083E2 		add	r3, r3, #1	@ tmp325, tmp324,
 1776 0480 0F30CDE5 		strb	r3, [sp, #15]	@ tmp326, i
 1777              	.L108:
 840:sd_raw.cpp    ****     for(i = 0; i < 18; ++i)
 1778              		.loc 1 840 0 is_stmt 0 discriminator 1
 1779 0484 0F30DDE5 		ldrb	r3, [sp, #15]	@ zero_extendqisi2	@ tmp328, i
 1780 0488 110053E3 		cmp	r3, #17	@ tmp328,
 1781 048c 0030A083 		movhi	r3, #0	@, tmp329
 1782 0490 0130A093 		movls	r3, #1	@, tmp329
 1783 0494 FF3003E2 		and	r3, r3, #255	@ D.10563, tmp327,
 1784 0498 000053E3 		cmp	r3, #0	@ D.10563,
 1785 049c 8DFFFF1A 		bne	.L121	@,
 1786              	.LBE14:
 878:sd_raw.cpp    ****         }
 879:sd_raw.cpp    ****     }
 880:sd_raw.cpp    **** 
 881:sd_raw.cpp    ****     unselect_card();
 1787              		.loc 1 881 0 is_stmt 1
 1788 04a0 24309FE5 		ldr	r3, .L124+4	@ D.10607,
 1789 04a4 20209FE5 		ldr	r2, .L124+4	@ D.10608,
 1790 04a8 002092E5 		ldr	r2, [r2, #0]	@ D.10609,* D.10608
 1791 04ac 012682E3 		orr	r2, r2, #1048576	@ D.10610, D.10609,
 1792 04b0 002083E5 		str	r2, [r3, #0]	@ D.10610,* D.10607
 882:sd_raw.cpp    **** 
 883:sd_raw.cpp    ****     return 1;
 1793              		.loc 1 883 0
 1794 04b4 0130A0E3 		mov	r3, #1	@ D.10501,
 1795              	.L92:
 1796              	.LBE11:
 884:sd_raw.cpp    **** }
 1797              		.loc 1 884 0
 1798 04b8 0300A0E1 		mov	r0, r3	@, <retval>
 1799 04bc 14D08DE2 		add	sp, sp, #20	@,,
ARM GAS  /tmp/ccX0J2UF.s 			page 49


 1800 04c0 04E09DE4 		ldr	lr, [sp], #4
 1801 04c4 1EFF2FE1 		bx	lr
 1802              	.L125:
 1803              		.align	2
 1804              	.L124:
 1805 04c8 1CC0FF3F 		.word	1073725468
 1806 04cc 18C0FF3F 		.word	1073725464
 1807              		.cfi_endproc
 1808              	.LFE119:
 1809              		.size	_Z15sd_raw_get_infoP11sd_raw_info, .-_Z15sd_raw_get_infoP11sd_raw_info
 1810              		.section	.text._Z5SDoffv,"ax",%progbits
 1811              		.align	2
 1812              		.global	_Z5SDoffv
 1813              		.type	_Z5SDoffv, %function
 1814              	_Z5SDoffv:
 1815              	.LFB120:
 885:sd_raw.cpp    **** 
 886:sd_raw.cpp    **** void SDoff(void)
 887:sd_raw.cpp    **** {
 1816              		.loc 1 887 0
 1817              		.cfi_startproc
 1818              		@ Function supports interworking.
 1819              		@ args = 0, pretend = 0, frame = 0
 1820              		@ frame_needed = 0, uses_anonymous_args = 0
 1821              		@ link register save eliminated.
 888:sd_raw.cpp    ****     SPI_SS_IODIR &= ~(1<<SPI_SS_PIN);
 1822              		.loc 1 888 0
 1823 0000 24309FE5 		ldr	r3, .L127	@ D.10484,
 1824 0004 20209FE5 		ldr	r2, .L127	@ D.10485,
 1825 0008 002092E5 		ldr	r2, [r2, #0]	@ D.10486,* D.10485
 1826 000c 0126C2E3 		bic	r2, r2, #1048576	@ D.10487, D.10486,
 1827 0010 002083E5 		str	r2, [r3, #0]	@ D.10487,* D.10484
 889:sd_raw.cpp    ****     PINSEL0 &= ~(0x1500);
 1828              		.loc 1 889 0
 1829 0014 14309FE5 		ldr	r3, .L127+4	@ D.10488,
 1830 0018 10209FE5 		ldr	r2, .L127+4	@ D.10489,
 1831 001c 002092E5 		ldr	r2, [r2, #0]	@ D.10490,* D.10489
 1832 0020 152CC2E3 		bic	r2, r2, #5376	@ D.10491, D.10490,
 1833 0024 002083E5 		str	r2, [r3, #0]	@ D.10491,* D.10488
 890:sd_raw.cpp    **** }
 1834              		.loc 1 890 0
 1835 0028 1EFF2FE1 		bx	lr	@
 1836              	.L128:
 1837              		.align	2
 1838              	.L127:
 1839 002c 00C0FF3F 		.word	1073725440
 1840 0030 00C002E0 		.word	-536690688
 1841              		.cfi_endproc
 1842              	.LFE120:
 1843              		.size	_Z5SDoffv, .-_Z5SDoffv
 1844              		.section	.text._Z11format_cardc,"ax",%progbits
 1845              		.align	2
 1846              		.global	_Z11format_cardc
 1847              		.type	_Z11format_cardc, %function
 1848              	_Z11format_cardc:
 1849              	.LFB121:
 891:sd_raw.cpp    **** 
ARM GAS  /tmp/ccX0J2UF.s 			page 50


 892:sd_raw.cpp    **** //NES : 10-28-7 
 893:sd_raw.cpp    **** //Low-level formats a 512MB card
 894:sd_raw.cpp    **** //Assumes *many* things
 895:sd_raw.cpp    **** //You must pass this fuction 0xAA to get it to work (safety check)
 896:sd_raw.cpp    **** char format_card(char make_sure)
 897:sd_raw.cpp    **** {
 1850              		.loc 1 897 0
 1851              		.cfi_startproc
 1852              		@ Function supports interworking.
 1853              		@ args = 0, pretend = 0, frame = 528
 1854              		@ frame_needed = 0, uses_anonymous_args = 0
 1855 0000 04E02DE5 		str	lr, [sp, #-4]!	@,
 1856              	.LCFI15:
 1857              		.cfi_def_cfa_offset 4
 1858 0004 85DF4DE2 		sub	sp, sp, #532	@,,
 1859              	.LCFI16:
 1860              		.cfi_def_cfa_offset 536
 1861 0008 0030A0E1 		mov	r3, r0	@ tmp140, make_sure
 1862 000c 0730CDE5 		strb	r3, [sp, #7]	@ tmp141, make_sure
 1863              	.LBB16:
 898:sd_raw.cpp    **** 	#define MBR_LOCATION	0x00
 899:sd_raw.cpp    **** 	#define BR_LOCATION		(MBR_LOCATION+0x80000)
 900:sd_raw.cpp    **** 	#define FAT_TABLE		(BR_LOCATION + (0x200 * 512))
 901:sd_raw.cpp    **** 	#define ROOT_DIR		(BR_LOCATION + (0x0200 * 512) + (0x00F5 * 2 * 512))
 902:sd_raw.cpp    **** 
 903:sd_raw.cpp    **** 	//Safety check
 904:sd_raw.cpp    **** 	if (make_sure != 0xAA) return 0;
 1864              		.loc 1 904 0
 1865 0010 0730DDE5 		ldrb	r3, [sp, #7]	@ zero_extendqisi2	@ tmp142, make_sure
 1866 0014 AA0053E3 		cmp	r3, #170	@ tmp142,
 1867 0018 0100000A 		beq	.L130	@,
 1868              		.cfi_offset 14, -4
 1869              		.loc 1 904 0 is_stmt 0 discriminator 1
 1870 001c 0030A0E3 		mov	r3, #0	@ D.10469,
 1871 0020 9D0000EA 		b	.L131	@
 1872              	.L130:
 905:sd_raw.cpp    **** 	
 906:sd_raw.cpp    **** 	int i;
 907:sd_raw.cpp    **** 	unsigned char my_buff[512];
 908:sd_raw.cpp    **** 	for(i = 0 ; i < 512 ; i++) my_buff[i] = 0x00;
 1873              		.loc 1 908 0 is_stmt 1
 1874 0024 0030A0E3 		mov	r3, #0	@ tmp143,
 1875 0028 0C328DE5 		str	r3, [sp, #524]	@ tmp143, i
 1876 002c 090000EA 		b	.L132	@
 1877              	.L133:
 1878              		.loc 1 908 0 is_stmt 0 discriminator 2
 1879 0030 74329FE5 		ldr	r3, .L136	@ tmp144,
 1880 0034 0C229DE5 		ldr	r2, [sp, #524]	@ tmp146, i
 1881 0038 211E8DE2 		add	r1, sp, #528	@,,
 1882 003c 022081E0 		add	r2, r1, r2	@ tmp145,, tmp146
 1883 0040 033082E0 		add	r3, r2, r3	@ tmp147, tmp145, tmp144
 1884 0044 0020A0E3 		mov	r2, #0	@ tmp148,
 1885 0048 0020C3E5 		strb	r2, [r3, #0]	@ tmp149, my_buff
 1886 004c 0C329DE5 		ldr	r3, [sp, #524]	@ tmp150, i
 1887 0050 013083E2 		add	r3, r3, #1	@ tmp151, tmp150,
 1888 0054 0C328DE5 		str	r3, [sp, #524]	@ tmp151, i
 1889              	.L132:
ARM GAS  /tmp/ccX0J2UF.s 			page 51


 1890              		.loc 1 908 0 discriminator 1
 1891 0058 0C229DE5 		ldr	r2, [sp, #524]	@ tmp153, i
 1892 005c 4C329FE5 		ldr	r3, .L136+4	@ tmp155,
 1893 0060 030052E1 		cmp	r2, r3	@ tmp153, tmp155
 1894 0064 0030A0C3 		movgt	r3, #0	@, tmp154
 1895 0068 0130A0D3 		movle	r3, #1	@, tmp154
 1896 006c FF3003E2 		and	r3, r3, #255	@ D.10473, tmp152,
 1897 0070 000053E3 		cmp	r3, #0	@ D.10473,
 1898 0074 EDFFFF1A 		bne	.L133	@,
 909:sd_raw.cpp    **** 	
 910:sd_raw.cpp    **** 	//Init SD card interface
 911:sd_raw.cpp    **** 	sd_raw_init();
 1899              		.loc 1 911 0 is_stmt 1
 1900 0078 FEFFFFEB 		bl	_Z11sd_raw_initv	@
 912:sd_raw.cpp    **** 
 913:sd_raw.cpp    **** 	//Erase Master Boot record
 914:sd_raw.cpp    **** 	sd_raw_sync();
 1901              		.loc 1 914 0
 1902 007c FEFFFFEB 		bl	_Z11sd_raw_syncv	@
 915:sd_raw.cpp    **** 	sd_raw_write(MBR_LOCATION, my_buff, 512);
 1903              		.loc 1 915 0
 1904 0080 0C308DE2 		add	r3, sp, #12	@ tmp156,,
 1905 0084 0000A0E3 		mov	r0, #0	@,
 1906 0088 0310A0E1 		mov	r1, r3	@, tmp156
 1907 008c 022CA0E3 		mov	r2, #512	@,
 1908 0090 FEFFFFEB 		bl	_Z12sd_raw_writejPKht	@
 916:sd_raw.cpp    **** 
 917:sd_raw.cpp    **** 	//Erase Boot record
 918:sd_raw.cpp    **** 	sd_raw_sync();
 1909              		.loc 1 918 0
 1910 0094 FEFFFFEB 		bl	_Z11sd_raw_syncv	@
 919:sd_raw.cpp    **** 	sd_raw_write(BR_LOCATION, my_buff, 512);
 1911              		.loc 1 919 0
 1912 0098 0C308DE2 		add	r3, sp, #12	@ tmp157,,
 1913 009c 0207A0E3 		mov	r0, #524288	@,
 1914 00a0 0310A0E1 		mov	r1, r3	@, tmp157
 1915 00a4 022CA0E3 		mov	r2, #512	@,
 1916 00a8 FEFFFFEB 		bl	_Z12sd_raw_writejPKht	@
 920:sd_raw.cpp    **** 
 921:sd_raw.cpp    **** 	//Erase FAT tables
 922:sd_raw.cpp    **** 	for(i = 0 ; i < 0x00F5 ; i++) //0x00F5 = 245 bytes : comes from byte 0x16 from Boot Record
 1917              		.loc 1 922 0
 1918 00ac 0030A0E3 		mov	r3, #0	@ tmp158,
 1919 00b0 0C328DE5 		str	r3, [sp, #524]	@ tmp158, i
 1920 00b4 0C0000EA 		b	.L134	@
 1921              	.L135:
 923:sd_raw.cpp    **** 	{
 924:sd_raw.cpp    **** 		sd_raw_sync();
 1922              		.loc 1 924 0 discriminator 2
 1923 00b8 FEFFFFEB 		bl	_Z11sd_raw_syncv	@
 925:sd_raw.cpp    **** 		sd_raw_write( (FAT_TABLE + (i*512)), my_buff, 512);
 1924              		.loc 1 925 0 discriminator 2
 1925 00bc 0C329DE5 		ldr	r3, [sp, #524]	@ tmp159, i
 1926 00c0 063C83E2 		add	r3, r3, #1536	@ D.10480, tmp159,
 1927 00c4 8334A0E1 		mov	r3, r3, asl #9	@ D.10481, D.10480,
 1928 00c8 0320A0E1 		mov	r2, r3	@ D.10482, D.10481
 1929 00cc 0C308DE2 		add	r3, sp, #12	@ tmp160,,
ARM GAS  /tmp/ccX0J2UF.s 			page 52


 1930 00d0 0200A0E1 		mov	r0, r2	@, D.10482
 1931 00d4 0310A0E1 		mov	r1, r3	@, tmp160
 1932 00d8 022CA0E3 		mov	r2, #512	@,
 1933 00dc FEFFFFEB 		bl	_Z12sd_raw_writejPKht	@
 922:sd_raw.cpp    **** 	for(i = 0 ; i < 0x00F5 ; i++) //0x00F5 = 245 bytes : comes from byte 0x16 from Boot Record
 1934              		.loc 1 922 0 discriminator 2
 1935 00e0 0C329DE5 		ldr	r3, [sp, #524]	@ tmp161, i
 1936 00e4 013083E2 		add	r3, r3, #1	@ tmp162, tmp161,
 1937 00e8 0C328DE5 		str	r3, [sp, #524]	@ tmp162, i
 1938              	.L134:
 922:sd_raw.cpp    **** 	for(i = 0 ; i < 0x00F5 ; i++) //0x00F5 = 245 bytes : comes from byte 0x16 from Boot Record
 1939              		.loc 1 922 0 is_stmt 0 discriminator 1
 1940 00ec 0C329DE5 		ldr	r3, [sp, #524]	@ tmp164, i
 1941 00f0 F40053E3 		cmp	r3, #244	@ tmp164,
 1942 00f4 0030A0C3 		movgt	r3, #0	@, tmp165
 1943 00f8 0130A0D3 		movle	r3, #1	@, tmp165
 1944 00fc FF3003E2 		and	r3, r3, #255	@ D.10478, tmp163,
 1945 0100 000053E3 		cmp	r3, #0	@ D.10478,
 1946 0104 EBFFFF1A 		bne	.L135	@,
 926:sd_raw.cpp    **** 	}
 927:sd_raw.cpp    **** 	
 928:sd_raw.cpp    **** 	//Write Master Boot Record
 929:sd_raw.cpp    **** 	#define PART1	0x01BE
 930:sd_raw.cpp    **** 	my_buff[PART1 + 0] = 0x00;
 1947              		.loc 1 930 0 is_stmt 1
 1948 0108 0030A0E3 		mov	r3, #0	@ tmp166,
 1949 010c CA31CDE5 		strb	r3, [sp, #458]	@ tmp167, my_buff
 931:sd_raw.cpp    **** 	my_buff[PART1 + 1] = 0x00;
 1950              		.loc 1 931 0
 1951 0110 0030A0E3 		mov	r3, #0	@ tmp168,
 1952 0114 CB31CDE5 		strb	r3, [sp, #459]	@ tmp169, my_buff
 932:sd_raw.cpp    **** 	my_buff[PART1 + 2] = 0x01;
 1953              		.loc 1 932 0
 1954 0118 0130A0E3 		mov	r3, #1	@ tmp170,
 1955 011c CC31CDE5 		strb	r3, [sp, #460]	@ tmp171, my_buff
 933:sd_raw.cpp    **** 	my_buff[PART1 + 3] = 0x01;
 1956              		.loc 1 933 0
 1957 0120 0130A0E3 		mov	r3, #1	@ tmp172,
 1958 0124 CD31CDE5 		strb	r3, [sp, #461]	@ tmp173, my_buff
 934:sd_raw.cpp    **** 	my_buff[PART1 + 4] = 0x06;
 1959              		.loc 1 934 0
 1960 0128 0630A0E3 		mov	r3, #6	@ tmp174,
 1961 012c CE31CDE5 		strb	r3, [sp, #462]	@ tmp175, my_buff
 935:sd_raw.cpp    **** 	my_buff[PART1 + 5] = 0x1F;
 1962              		.loc 1 935 0
 1963 0130 1F30A0E3 		mov	r3, #31	@ tmp176,
 1964 0134 CF31CDE5 		strb	r3, [sp, #463]	@ tmp177, my_buff
 936:sd_raw.cpp    **** 	my_buff[PART1 + 6] = 0xE0;
 1965              		.loc 1 936 0
 1966 0138 1F30E0E3 		mvn	r3, #31	@ tmp178,
 1967 013c D031CDE5 		strb	r3, [sp, #464]	@ tmp179, my_buff
 937:sd_raw.cpp    **** 	my_buff[PART1 + 7] = 0xD3;
 1968              		.loc 1 937 0
 1969 0140 2C30E0E3 		mvn	r3, #44	@ tmp180,
 1970 0144 D131CDE5 		strb	r3, [sp, #465]	@ tmp181, my_buff
 938:sd_raw.cpp    **** 	my_buff[PART1 + 8] = 0x00;
 1971              		.loc 1 938 0
ARM GAS  /tmp/ccX0J2UF.s 			page 53


 1972 0148 0030A0E3 		mov	r3, #0	@ tmp182,
 1973 014c D231CDE5 		strb	r3, [sp, #466]	@ tmp183, my_buff
 939:sd_raw.cpp    **** 	my_buff[PART1 + 9] = 0x04;
 1974              		.loc 1 939 0
 1975 0150 0430A0E3 		mov	r3, #4	@ tmp184,
 1976 0154 D331CDE5 		strb	r3, [sp, #467]	@ tmp185, my_buff
 940:sd_raw.cpp    **** 	my_buff[PART1 + 10] = 0x00;
 1977              		.loc 1 940 0
 1978 0158 0030A0E3 		mov	r3, #0	@ tmp186,
 1979 015c D431CDE5 		strb	r3, [sp, #468]	@ tmp187, my_buff
 941:sd_raw.cpp    **** 	my_buff[PART1 + 11] = 0x00;
 1980              		.loc 1 941 0
 1981 0160 0030A0E3 		mov	r3, #0	@ tmp188,
 1982 0164 D531CDE5 		strb	r3, [sp, #469]	@ tmp189, my_buff
 942:sd_raw.cpp    **** 	my_buff[PART1 + 12] = 0x00;
 1983              		.loc 1 942 0
 1984 0168 0030A0E3 		mov	r3, #0	@ tmp190,
 1985 016c D631CDE5 		strb	r3, [sp, #470]	@ tmp191, my_buff
 943:sd_raw.cpp    **** 	my_buff[PART1 + 13] = 0x4C;
 1986              		.loc 1 943 0
 1987 0170 4C30A0E3 		mov	r3, #76	@ tmp192,
 1988 0174 D731CDE5 		strb	r3, [sp, #471]	@ tmp193, my_buff
 944:sd_raw.cpp    **** 	my_buff[PART1 + 14] = 0x0F;
 1989              		.loc 1 944 0
 1990 0178 0F30A0E3 		mov	r3, #15	@ tmp194,
 1991 017c D831CDE5 		strb	r3, [sp, #472]	@ tmp195, my_buff
 945:sd_raw.cpp    **** 	my_buff[510] = 0x55;
 1992              		.loc 1 945 0
 1993 0180 5530A0E3 		mov	r3, #85	@ tmp196,
 1994 0184 0A32CDE5 		strb	r3, [sp, #522]	@ tmp197, my_buff
 946:sd_raw.cpp    **** 	my_buff[511] = 0xAA;
 1995              		.loc 1 946 0
 1996 0188 5530E0E3 		mvn	r3, #85	@ tmp198,
 1997 018c 0B32CDE5 		strb	r3, [sp, #523]	@ tmp199, my_buff
 947:sd_raw.cpp    **** 
 948:sd_raw.cpp    **** 	sd_raw_sync();
 1998              		.loc 1 948 0
 1999 0190 FEFFFFEB 		bl	_Z11sd_raw_syncv	@
 949:sd_raw.cpp    **** 	sd_raw_write(MBR_LOCATION, my_buff, 512);
 2000              		.loc 1 949 0
 2001 0194 0C308DE2 		add	r3, sp, #12	@ tmp200,,
 2002 0198 0000A0E3 		mov	r0, #0	@,
 2003 019c 0310A0E1 		mov	r1, r3	@, tmp200
 2004 01a0 022CA0E3 		mov	r2, #512	@,
 2005 01a4 FEFFFFEB 		bl	_Z12sd_raw_writejPKht	@
 950:sd_raw.cpp    **** 	sd_raw_sync();
 2006              		.loc 1 950 0
 2007 01a8 FEFFFFEB 		bl	_Z11sd_raw_syncv	@
 951:sd_raw.cpp    **** 
 952:sd_raw.cpp    **** 	//Write Boot Record
 953:sd_raw.cpp    **** 	#define BOOTRECORD1	0x80000
 954:sd_raw.cpp    **** 	my_buff[0] = 0xEB;
 2008              		.loc 1 954 0
 2009 01ac 1430E0E3 		mvn	r3, #20	@ tmp201,
 2010 01b0 0C30CDE5 		strb	r3, [sp, #12]	@ tmp202, my_buff
 955:sd_raw.cpp    **** 	my_buff[1] = 0xFE;
 2011              		.loc 1 955 0
ARM GAS  /tmp/ccX0J2UF.s 			page 54


 2012 01b4 0130E0E3 		mvn	r3, #1	@ tmp203,
 2013 01b8 0D30CDE5 		strb	r3, [sp, #13]	@ tmp204, my_buff
 956:sd_raw.cpp    **** 	my_buff[2] = 0x90;
 2014              		.loc 1 956 0
 2015 01bc 6F30E0E3 		mvn	r3, #111	@ tmp205,
 2016 01c0 0E30CDE5 		strb	r3, [sp, #14]	@ tmp206, my_buff
 957:sd_raw.cpp    **** 	my_buff[12] = 0x02;
 2017              		.loc 1 957 0
 2018 01c4 0230A0E3 		mov	r3, #2	@ tmp207,
 2019 01c8 1830CDE5 		strb	r3, [sp, #24]	@ tmp208, my_buff
 958:sd_raw.cpp    **** 	my_buff[13] = 0x10;
 2020              		.loc 1 958 0
 2021 01cc 1030A0E3 		mov	r3, #16	@ tmp209,
 2022 01d0 1930CDE5 		strb	r3, [sp, #25]	@ tmp210, my_buff
 959:sd_raw.cpp    **** 	my_buff[14] = 0x16;
 2023              		.loc 1 959 0
 2024 01d4 1630A0E3 		mov	r3, #22	@ tmp211,
 2025 01d8 1A30CDE5 		strb	r3, [sp, #26]	@ tmp212, my_buff
 960:sd_raw.cpp    **** 	my_buff[16] = 0x02;
 2026              		.loc 1 960 0
 2027 01dc 0230A0E3 		mov	r3, #2	@ tmp213,
 2028 01e0 1C30CDE5 		strb	r3, [sp, #28]	@ tmp214, my_buff
 961:sd_raw.cpp    **** 	my_buff[18] = 0x02;
 2029              		.loc 1 961 0
 2030 01e4 0230A0E3 		mov	r3, #2	@ tmp215,
 2031 01e8 1E30CDE5 		strb	r3, [sp, #30]	@ tmp216, my_buff
 962:sd_raw.cpp    **** 	my_buff[21] = 0xF8;
 2032              		.loc 1 962 0
 2033 01ec 0730E0E3 		mvn	r3, #7	@ tmp217,
 2034 01f0 2130CDE5 		strb	r3, [sp, #33]	@ tmp218, my_buff
 963:sd_raw.cpp    **** 	my_buff[22] = 0xF5;
 2035              		.loc 1 963 0
 2036 01f4 0A30E0E3 		mvn	r3, #10	@ tmp219,
 2037 01f8 2230CDE5 		strb	r3, [sp, #34]	@ tmp220, my_buff
 964:sd_raw.cpp    **** 	my_buff[24] = 0x20;
 2038              		.loc 1 964 0
 2039 01fc 2030A0E3 		mov	r3, #32	@ tmp221,
 2040 0200 2430CDE5 		strb	r3, [sp, #36]	@ tmp222, my_buff
 965:sd_raw.cpp    **** 	my_buff[26] = 0x20;
 2041              		.loc 1 965 0
 2042 0204 2030A0E3 		mov	r3, #32	@ tmp223,
 2043 0208 2630CDE5 		strb	r3, [sp, #38]	@ tmp224, my_buff
 966:sd_raw.cpp    **** 	my_buff[29] = 0x04;
 2044              		.loc 1 966 0
 2045 020c 0430A0E3 		mov	r3, #4	@ tmp225,
 2046 0210 2930CDE5 		strb	r3, [sp, #41]	@ tmp226, my_buff
 967:sd_raw.cpp    **** 	my_buff[33] = 0x4C;
 2047              		.loc 1 967 0
 2048 0214 4C30A0E3 		mov	r3, #76	@ tmp227,
 2049 0218 2D30CDE5 		strb	r3, [sp, #45]	@ tmp228, my_buff
 968:sd_raw.cpp    **** 	my_buff[34] = 0x0F;
 2050              		.loc 1 968 0
 2051 021c 0F30A0E3 		mov	r3, #15	@ tmp229,
 2052 0220 2E30CDE5 		strb	r3, [sp, #46]	@ tmp230, my_buff
 969:sd_raw.cpp    **** 	my_buff[38] = 0x29;
 2053              		.loc 1 969 0
 2054 0224 2930A0E3 		mov	r3, #41	@ tmp231,
ARM GAS  /tmp/ccX0J2UF.s 			page 55


 2055 0228 3230CDE5 		strb	r3, [sp, #50]	@ tmp232, my_buff
 970:sd_raw.cpp    **** 	my_buff[54] = 0x46;
 2056              		.loc 1 970 0
 2057 022c 4630A0E3 		mov	r3, #70	@ tmp233,
 2058 0230 4230CDE5 		strb	r3, [sp, #66]	@ tmp234, my_buff
 971:sd_raw.cpp    **** 	my_buff[55] = 0x41;
 2059              		.loc 1 971 0
 2060 0234 4130A0E3 		mov	r3, #65	@ tmp235,
 2061 0238 4330CDE5 		strb	r3, [sp, #67]	@ tmp236, my_buff
 972:sd_raw.cpp    **** 	my_buff[56] = 0x54;
 2062              		.loc 1 972 0
 2063 023c 5430A0E3 		mov	r3, #84	@ tmp237,
 2064 0240 4430CDE5 		strb	r3, [sp, #68]	@ tmp238, my_buff
 973:sd_raw.cpp    **** 	my_buff[57] = 0x31;
 2065              		.loc 1 973 0
 2066 0244 3130A0E3 		mov	r3, #49	@ tmp239,
 2067 0248 4530CDE5 		strb	r3, [sp, #69]	@ tmp240, my_buff
 974:sd_raw.cpp    **** 	my_buff[58] = 0x36;
 2068              		.loc 1 974 0
 2069 024c 3630A0E3 		mov	r3, #54	@ tmp241,
 2070 0250 4630CDE5 		strb	r3, [sp, #70]	@ tmp242, my_buff
 975:sd_raw.cpp    **** 	my_buff[59] = 0x20;
 2071              		.loc 1 975 0
 2072 0254 2030A0E3 		mov	r3, #32	@ tmp243,
 2073 0258 4730CDE5 		strb	r3, [sp, #71]	@ tmp244, my_buff
 976:sd_raw.cpp    **** 	my_buff[60] = 0x20;
 2074              		.loc 1 976 0
 2075 025c 2030A0E3 		mov	r3, #32	@ tmp245,
 2076 0260 4830CDE5 		strb	r3, [sp, #72]	@ tmp246, my_buff
 977:sd_raw.cpp    **** 	my_buff[61] = 0x20;
 2077              		.loc 1 977 0
 2078 0264 2030A0E3 		mov	r3, #32	@ tmp247,
 2079 0268 4930CDE5 		strb	r3, [sp, #73]	@ tmp248, my_buff
 978:sd_raw.cpp    **** 	my_buff[510] = 0x55;
 2080              		.loc 1 978 0
 2081 026c 5530A0E3 		mov	r3, #85	@ tmp249,
 2082 0270 0A32CDE5 		strb	r3, [sp, #522]	@ tmp250, my_buff
 979:sd_raw.cpp    **** 	my_buff[511] = 0xAA;
 2083              		.loc 1 979 0
 2084 0274 5530E0E3 		mvn	r3, #85	@ tmp251,
 2085 0278 0B32CDE5 		strb	r3, [sp, #523]	@ tmp252, my_buff
 980:sd_raw.cpp    **** 	
 981:sd_raw.cpp    **** 	sd_raw_sync();
 2086              		.loc 1 981 0
 2087 027c FEFFFFEB 		bl	_Z11sd_raw_syncv	@
 982:sd_raw.cpp    **** 	sd_raw_write(BR_LOCATION, my_buff, 512);
 2088              		.loc 1 982 0
 2089 0280 0C308DE2 		add	r3, sp, #12	@ tmp253,,
 2090 0284 0207A0E3 		mov	r0, #524288	@,
 2091 0288 0310A0E1 		mov	r1, r3	@, tmp253
 2092 028c 022CA0E3 		mov	r2, #512	@,
 2093 0290 FEFFFFEB 		bl	_Z12sd_raw_writejPKht	@
 983:sd_raw.cpp    **** 	sd_raw_sync();
 2094              		.loc 1 983 0
 2095 0294 FEFFFFEB 		bl	_Z11sd_raw_syncv	@
 984:sd_raw.cpp    **** 	
 985:sd_raw.cpp    **** 	return(0x55); //Successful format
ARM GAS  /tmp/ccX0J2UF.s 			page 56


 2096              		.loc 1 985 0
 2097 0298 5530A0E3 		mov	r3, #85	@ D.10469,
 2098              	.L131:
 2099              	.LBE16:
 986:sd_raw.cpp    **** }
 2100              		.loc 1 986 0
 2101 029c 0300A0E1 		mov	r0, r3	@, <retval>
 2102 02a0 85DF8DE2 		add	sp, sp, #532	@,,
 2103 02a4 04E09DE4 		ldr	lr, [sp], #4
 2104 02a8 1EFF2FE1 		bx	lr
 2105              	.L137:
 2106              		.align	2
 2107              	.L136:
 2108 02ac FCFDFFFF 		.word	-516
 2109 02b0 FF010000 		.word	511
 2110              		.cfi_endproc
 2111              	.LFE121:
 2112              		.size	_Z11format_cardc, .-_Z11format_cardc
 2113              		.section	.rodata
 2114              		.align	2
 2115              		.type	_ZL12VIC_USB_Intr, %object
 2116              		.size	_ZL12VIC_USB_Intr, 4
 2117              	_ZL12VIC_USB_Intr:
 2118 0068 00004000 		.word	4194304
 2119              		.align	2
 2120              		.type	_ZL9CCR_CLKEN, %object
 2121              		.size	_ZL9CCR_CLKEN, 4
 2122              	_ZL9CCR_CLKEN:
 2123 006c 01000000 		.word	1
 2124              		.align	2
 2125              		.type	_ZL10CCR_CTCRST, %object
 2126              		.size	_ZL10CCR_CTCRST, 4
 2127              	_ZL10CCR_CTCRST:
 2128 0070 02000000 		.word	2
 2129              		.align	2
 2130              		.type	_ZL16CCR_CLKSRC_32KHZ, %object
 2131              		.size	_ZL16CCR_CLKSRC_32KHZ, 4
 2132              	_ZL16CCR_CLKSRC_32KHZ:
 2133 0074 10000000 		.word	16
 2134              		.align	2
 2135              		.type	_ZL18VIC_Channel_Timer0, %object
 2136              		.size	_ZL18VIC_Channel_Timer0, 4
 2137              	_ZL18VIC_Channel_Timer0:
 2138 0078 04000000 		.word	4
 2139              		.align	2
 2140              		.type	_ZL18VIC_Channel_Timer1, %object
 2141              		.size	_ZL18VIC_Channel_Timer1, 4
 2142              	_ZL18VIC_Channel_Timer1:
 2143 007c 05000000 		.word	5
 2144              		.align	2
 2145              		.type	_ZL17VIC_Channel_UART0, %object
 2146              		.size	_ZL17VIC_Channel_UART0, 4
 2147              	_ZL17VIC_Channel_UART0:
 2148 0080 06000000 		.word	6
 2149              		.align	2
 2150              		.type	_ZL17VIC_Channel_UART1, %object
 2151              		.size	_ZL17VIC_Channel_UART1, 4
ARM GAS  /tmp/ccX0J2UF.s 			page 57


 2152              	_ZL17VIC_Channel_UART1:
 2153 0084 07000000 		.word	7
 2154              		.align	2
 2155              		.type	_ZL15VIC_Channel_USB, %object
 2156              		.size	_ZL15VIC_Channel_USB, 4
 2157              	_ZL15VIC_Channel_USB:
 2158 0088 16000000 		.word	22
 2159              		.align	2
 2160              		.type	_ZL18VICVectCntl_ENABLE, %object
 2161              		.size	_ZL18VICVectCntl_ENABLE, 4
 2162              	_ZL18VICVectCntl_ENABLE:
 2163 008c 20000000 		.word	32
 2164              		.align	2
 2165              		.type	_ZL10UIER_ERBFI, %object
 2166              		.size	_ZL10UIER_ERBFI, 4
 2167              	_ZL10UIER_ERBFI:
 2168 0090 01000000 		.word	1
 2169              		.align	2
 2170              		.type	_ZL12UIIR_ID_MASK, %object
 2171              		.size	_ZL12UIIR_ID_MASK, 4
 2172              	_ZL12UIIR_ID_MASK:
 2173 0094 0E000000 		.word	14
 2174              		.align	2
 2175              		.type	_ZL12UIIR_RDA_INT, %object
 2176              		.size	_ZL12UIIR_RDA_INT, 4
 2177              	_ZL12UIIR_RDA_INT:
 2178 0098 04000000 		.word	4
 2179              		.align	2
 2180              		.type	_ZL8ULSR_RDR, %object
 2181              		.size	_ZL8ULSR_RDR, 4
 2182              	_ZL8ULSR_RDR:
 2183 009c 01000000 		.word	1
 2184              		.align	2
 2185              		.type	_ZL5SSEL1, %object
 2186              		.size	_ZL5SSEL1, 4
 2187              	_ZL5SSEL1:
 2188 00a0 00001000 		.word	1048576
 2189              		.align	2
 2190              		.type	_ZL9SSPSR_TFE, %object
 2191              		.size	_ZL9SSPSR_TFE, 4
 2192              	_ZL9SSPSR_TFE:
 2193 00a4 01000000 		.word	1
 2194              		.align	2
 2195              		.type	_ZL9SSPSR_TNF, %object
 2196              		.size	_ZL9SSPSR_TNF, 4
 2197              	_ZL9SSPSR_TNF:
 2198 00a8 02000000 		.word	2
 2199              		.align	2
 2200              		.type	_ZL9SSPSR_RNE, %object
 2201              		.size	_ZL9SSPSR_RNE, 4
 2202              	_ZL9SSPSR_RNE:
 2203 00ac 04000000 		.word	4
 2204              		.align	2
 2205              		.type	_ZL9SSPSR_BSY, %object
 2206              		.size	_ZL9SSPSR_BSY, 4
 2207              	_ZL9SSPSR_BSY:
 2208 00b0 10000000 		.word	16
ARM GAS  /tmp/ccX0J2UF.s 			page 58


 2209              		.align	2
 2210              		.type	_ZL11SSPCR0_CPOL, %object
 2211              		.size	_ZL11SSPCR0_CPOL, 4
 2212              	_ZL11SSPCR0_CPOL:
 2213 00b4 40000000 		.word	64
 2214              		.align	2
 2215              		.type	_ZL11SSPCR0_CPHA, %object
 2216              		.size	_ZL11SSPCR0_CPHA, 4
 2217              	_ZL11SSPCR0_CPHA:
 2218 00b8 80000000 		.word	128
 2219              		.align	2
 2220              		.type	_ZL13I2CxCONCLR_AA, %object
 2221              		.size	_ZL13I2CxCONCLR_AA, 4
 2222              	_ZL13I2CxCONCLR_AA:
 2223 00bc 04000000 		.word	4
 2224              		.align	2
 2225              		.type	_ZL13I2CxCONCLR_SI, %object
 2226              		.size	_ZL13I2CxCONCLR_SI, 4
 2227              	_ZL13I2CxCONCLR_SI:
 2228 00c0 08000000 		.word	8
 2229              		.align	2
 2230              		.type	_ZL15I2CxCONCLR_STAC, %object
 2231              		.size	_ZL15I2CxCONCLR_STAC, 4
 2232              	_ZL15I2CxCONCLR_STAC:
 2233 00c4 20000000 		.word	32
 2234              		.align	2
 2235              		.type	_ZL16I2CxCONCLR_I2ENC, %object
 2236              		.size	_ZL16I2CxCONCLR_I2ENC, 4
 2237              	_ZL16I2CxCONCLR_I2ENC:
 2238 00c8 40000000 		.word	64
 2239              		.align	2
 2240              		.type	_ZL13I2CxCONSET_AA, %object
 2241              		.size	_ZL13I2CxCONSET_AA, 4
 2242              	_ZL13I2CxCONSET_AA:
 2243 00cc 04000000 		.word	4
 2244              		.align	2
 2245              		.type	_ZL13I2CxCONSET_SI, %object
 2246              		.size	_ZL13I2CxCONSET_SI, 4
 2247              	_ZL13I2CxCONSET_SI:
 2248 00d0 08000000 		.word	8
 2249              		.align	2
 2250              		.type	_ZL14I2CxCONSET_STO, %object
 2251              		.size	_ZL14I2CxCONSET_STO, 4
 2252              	_ZL14I2CxCONSET_STO:
 2253 00d4 10000000 		.word	16
 2254              		.align	2
 2255              		.type	_ZL14I2CxCONSET_STA, %object
 2256              		.size	_ZL14I2CxCONSET_STA, 4
 2257              	_ZL14I2CxCONSET_STA:
 2258 00d8 20000000 		.word	32
 2259              		.align	2
 2260              		.type	_ZL15I2CxCONSET_I2EN, %object
 2261              		.size	_ZL15I2CxCONSET_I2EN, 4
 2262              	_ZL15I2CxCONSET_I2EN:
 2263 00dc 40000000 		.word	64
 2264              		.align	2
 2265              		.type	_ZL20TxTCR_COUNTER_ENABLE, %object
ARM GAS  /tmp/ccX0J2UF.s 			page 59


 2266              		.size	_ZL20TxTCR_COUNTER_ENABLE, 4
 2267              	_ZL20TxTCR_COUNTER_ENABLE:
 2268 00e0 01000000 		.word	1
 2269              		.align	2
 2270              		.type	_ZL19TxTCR_COUNTER_RESET, %object
 2271              		.size	_ZL19TxTCR_COUNTER_RESET, 4
 2272              	_ZL19TxTCR_COUNTER_RESET:
 2273 00e4 02000000 		.word	2
 2274              		.align	2
 2275              		.type	_ZL16TxMCR_INT_ON_MR0, %object
 2276              		.size	_ZL16TxMCR_INT_ON_MR0, 4
 2277              	_ZL16TxMCR_INT_ON_MR0:
 2278 00e8 01000000 		.word	1
 2279              		.align	2
 2280              		.type	_ZL18TxMCR_RESET_ON_MR0, %object
 2281              		.size	_ZL18TxMCR_RESET_ON_MR0, 4
 2282              	_ZL18TxMCR_RESET_ON_MR0:
 2283 00ec 02000000 		.word	2
 2284              		.align	2
 2285              		.type	_ZL13TxIR_MR0_FLAG, %object
 2286              		.size	_ZL13TxIR_MR0_FLAG, 4
 2287              	_ZL13TxIR_MR0_FLAG:
 2288 00f0 01000000 		.word	1
 2289              		.align	2
 2290              		.type	_ZL13TxIR_MR1_FLAG, %object
 2291              		.size	_ZL13TxIR_MR1_FLAG, 4
 2292              	_ZL13TxIR_MR1_FLAG:
 2293 00f4 02000000 		.word	2
 2294              		.align	2
 2295              		.type	_ZL13TxIR_MR2_FLAG, %object
 2296              		.size	_ZL13TxIR_MR2_FLAG, 4
 2297              	_ZL13TxIR_MR2_FLAG:
 2298 00f8 04000000 		.word	4
 2299              		.align	2
 2300              		.type	_ZL13TxIR_MR3_FLAG, %object
 2301              		.size	_ZL13TxIR_MR3_FLAG, 4
 2302              	_ZL13TxIR_MR3_FLAG:
 2303 00fc 08000000 		.word	8
 2304              		.align	2
 2305              		.type	_ZL13TxIR_CR0_FLAG, %object
 2306              		.size	_ZL13TxIR_CR0_FLAG, 4
 2307              	_ZL13TxIR_CR0_FLAG:
 2308 0100 10000000 		.word	16
 2309              		.align	2
 2310              		.type	_ZL13TxIR_CR1_FLAG, %object
 2311              		.size	_ZL13TxIR_CR1_FLAG, 4
 2312              	_ZL13TxIR_CR1_FLAG:
 2313 0104 20000000 		.word	32
 2314              		.align	2
 2315              		.type	_ZL13TxIR_CR2_FLAG, %object
 2316              		.size	_ZL13TxIR_CR2_FLAG, 4
 2317              	_ZL13TxIR_CR2_FLAG:
 2318 0108 40000000 		.word	64
 2319              		.align	2
 2320              		.type	_ZL13TxIR_CR3_FLAG, %object
 2321              		.size	_ZL13TxIR_CR3_FLAG, 4
 2322              	_ZL13TxIR_CR3_FLAG:
ARM GAS  /tmp/ccX0J2UF.s 			page 60


 2323 010c 80000000 		.word	128
 2324              		.align	2
 2325              		.type	_ZL12TxCCR_CAP0RE, %object
 2326              		.size	_ZL12TxCCR_CAP0RE, 4
 2327              	_ZL12TxCCR_CAP0RE:
 2328 0110 01000000 		.word	1
 2329              		.align	2
 2330              		.type	_ZL12TxCCR_CAP0FE, %object
 2331              		.size	_ZL12TxCCR_CAP0FE, 4
 2332              	_ZL12TxCCR_CAP0FE:
 2333 0114 02000000 		.word	2
 2334              		.align	2
 2335              		.type	_ZL11TxCCR_CAP0I, %object
 2336              		.size	_ZL11TxCCR_CAP0I, 4
 2337              	_ZL11TxCCR_CAP0I:
 2338 0118 04000000 		.word	4
 2339              		.align	2
 2340              		.type	_ZL12TxCCR_CAP1RE, %object
 2341              		.size	_ZL12TxCCR_CAP1RE, 4
 2342              	_ZL12TxCCR_CAP1RE:
 2343 011c 08000000 		.word	8
 2344              		.align	2
 2345              		.type	_ZL12TxCCR_CAP1FE, %object
 2346              		.size	_ZL12TxCCR_CAP1FE, 4
 2347              	_ZL12TxCCR_CAP1FE:
 2348 0120 10000000 		.word	16
 2349              		.align	2
 2350              		.type	_ZL11TxCCR_CAP1I, %object
 2351              		.size	_ZL11TxCCR_CAP1I, 4
 2352              	_ZL11TxCCR_CAP1I:
 2353 0124 20000000 		.word	32
 2354              		.align	2
 2355              		.type	_ZL12TxCCR_CAP2RE, %object
 2356              		.size	_ZL12TxCCR_CAP2RE, 4
 2357              	_ZL12TxCCR_CAP2RE:
 2358 0128 40000000 		.word	64
 2359              		.align	2
 2360              		.type	_ZL12TxCCR_CAP2FE, %object
 2361              		.size	_ZL12TxCCR_CAP2FE, 4
 2362              	_ZL12TxCCR_CAP2FE:
 2363 012c 80000000 		.word	128
 2364              		.align	2
 2365              		.type	_ZL11TxCCR_CAP2I, %object
 2366              		.size	_ZL11TxCCR_CAP2I, 4
 2367              	_ZL11TxCCR_CAP2I:
 2368 0130 00010000 		.word	256
 2369              		.align	2
 2370              		.type	_ZL12TxCCR_CAP3RE, %object
 2371              		.size	_ZL12TxCCR_CAP3RE, 4
 2372              	_ZL12TxCCR_CAP3RE:
 2373 0134 00020000 		.word	512
 2374              		.align	2
 2375              		.type	_ZL12TxCCR_CAP3FE, %object
 2376              		.size	_ZL12TxCCR_CAP3FE, 4
 2377              	_ZL12TxCCR_CAP3FE:
 2378 0138 00040000 		.word	1024
 2379              		.align	2
ARM GAS  /tmp/ccX0J2UF.s 			page 61


 2380              		.type	_ZL11TxCCR_CAP3I, %object
 2381              		.size	_ZL11TxCCR_CAP3I, 4
 2382              	_ZL11TxCCR_CAP3I:
 2383 013c 00080000 		.word	2048
 2384              		.align	2
 2385              		.type	_ZL9ADxCR_PDN, %object
 2386              		.size	_ZL9ADxCR_PDN, 4
 2387              	_ZL9ADxCR_PDN:
 2388 0140 00002000 		.word	2097152
 2389              		.align	2
 2390              		.type	_ZL15ADxCR_START_NOW, %object
 2391              		.size	_ZL15ADxCR_START_NOW, 4
 2392              	_ZL15ADxCR_START_NOW:
 2393 0144 00000001 		.word	16777216
 2394              		.align	2
 2395              		.type	_ZL11ADxGDR_DONE, %object
 2396              		.size	_ZL11ADxGDR_DONE, 4
 2397              	_ZL11ADxGDR_DONE:
 2398 0148 00000080 		.word	-2147483648
 2399              		.align	2
 2400              		.type	_ZL7PWMMR0R, %object
 2401              		.size	_ZL7PWMMR0R, 4
 2402              	_ZL7PWMMR0R:
 2403 014c 02000000 		.word	2
 2404              		.align	2
 2405              		.type	_ZL7LER0_EN, %object
 2406              		.size	_ZL7LER0_EN, 4
 2407              	_ZL7LER0_EN:
 2408 0150 01000000 		.word	1
 2409              		.align	2
 2410              		.type	_ZL7LER1_EN, %object
 2411              		.size	_ZL7LER1_EN, 4
 2412              	_ZL7LER1_EN:
 2413 0154 02000000 		.word	2
 2414              		.align	2
 2415              		.type	_ZL7LER2_EN, %object
 2416              		.size	_ZL7LER2_EN, 4
 2417              	_ZL7LER2_EN:
 2418 0158 04000000 		.word	4
 2419              		.align	2
 2420              		.type	_ZL7LER3_EN, %object
 2421              		.size	_ZL7LER3_EN, 4
 2422              	_ZL7LER3_EN:
 2423 015c 08000000 		.word	8
 2424              		.align	2
 2425              		.type	_ZL7LER4_EN, %object
 2426              		.size	_ZL7LER4_EN, 4
 2427              	_ZL7LER4_EN:
 2428 0160 10000000 		.word	16
 2429              		.align	2
 2430              		.type	_ZL7LER5_EN, %object
 2431              		.size	_ZL7LER5_EN, 4
 2432              	_ZL7LER5_EN:
 2433 0164 20000000 		.word	32
 2434              		.align	2
 2435              		.type	_ZL7LER6_EN, %object
 2436              		.size	_ZL7LER6_EN, 4
ARM GAS  /tmp/ccX0J2UF.s 			page 62


 2437              	_ZL7LER6_EN:
 2438 0168 40000000 		.word	64
 2439              		.align	2
 2440              		.type	_ZL7PWMENA1, %object
 2441              		.size	_ZL7PWMENA1, 4
 2442              	_ZL7PWMENA1:
 2443 016c 00020000 		.word	512
 2444              		.align	2
 2445              		.type	_ZL7PWMENA2, %object
 2446              		.size	_ZL7PWMENA2, 4
 2447              	_ZL7PWMENA2:
 2448 0170 00040000 		.word	1024
 2449              		.align	2
 2450              		.type	_ZL7PWMENA3, %object
 2451              		.size	_ZL7PWMENA3, 4
 2452              	_ZL7PWMENA3:
 2453 0174 00080000 		.word	2048
 2454              		.align	2
 2455              		.type	_ZL7PWMENA4, %object
 2456              		.size	_ZL7PWMENA4, 4
 2457              	_ZL7PWMENA4:
 2458 0178 00100000 		.word	4096
 2459              		.align	2
 2460              		.type	_ZL7PWMENA5, %object
 2461              		.size	_ZL7PWMENA5, 4
 2462              	_ZL7PWMENA5:
 2463 017c 00200000 		.word	8192
 2464              		.align	2
 2465              		.type	_ZL7PWMENA6, %object
 2466              		.size	_ZL7PWMENA6, 4
 2467              	_ZL7PWMENA6:
 2468 0180 00400000 		.word	16384
 2469              		.align	2
 2470              		.type	_ZL21PWMTCR_COUNTER_ENABLE, %object
 2471              		.size	_ZL21PWMTCR_COUNTER_ENABLE, 4
 2472              	_ZL21PWMTCR_COUNTER_ENABLE:
 2473 0184 01000000 		.word	1
 2474              		.align	2
 2475              		.type	_ZL12PWMTCR_RESET, %object
 2476              		.size	_ZL12PWMTCR_RESET, 4
 2477              	_ZL12PWMTCR_RESET:
 2478 0188 02000000 		.word	2
 2479              		.align	2
 2480              		.type	_ZL17PWMTCR_PWM_ENABLE, %object
 2481              		.size	_ZL17PWMTCR_PWM_ENABLE, 4
 2482              	_ZL17PWMTCR_PWM_ENABLE:
 2483 018c 08000000 		.word	8
 2484              		.align	2
 2485              		.type	_ZL10WDMOD_WDEN, %object
 2486              		.size	_ZL10WDMOD_WDEN, 4
 2487              	_ZL10WDMOD_WDEN:
 2488 0190 01000000 		.word	1
 2489              		.align	2
 2490              		.type	_ZL13WDMOD_WDRESET, %object
 2491              		.size	_ZL13WDMOD_WDRESET, 4
 2492              	_ZL13WDMOD_WDRESET:
 2493 0194 02000000 		.word	2
ARM GAS  /tmp/ccX0J2UF.s 			page 63


 2494              		.align	2
 2495              		.type	_ZL27HID_MESSAGE_ID_SYSTEM_DEBUG, %object
 2496              		.size	_ZL27HID_MESSAGE_ID_SYSTEM_DEBUG, 4
 2497              	_ZL27HID_MESSAGE_ID_SYSTEM_DEBUG:
 2498 0198 C0000000 		.word	192
 2499              		.text
 2500              	.Letext0:
 2501              		.section	.debug_loc,"",%progbits
 2502              	.Ldebug_loc0:
 2503              	.LLST0:
 2504 0000 00000000 		.4byte	.LFB109
 2505 0004 04000000 		.4byte	.LCFI0
 2506 0008 0200     		.2byte	0x2
 2507 000a 7D       		.byte	0x7d
 2508 000b 00       		.sleb128 0
 2509 000c 04000000 		.4byte	.LCFI0
 2510 0010 08000000 		.4byte	.LCFI1
 2511 0014 0200     		.2byte	0x2
 2512 0016 7D       		.byte	0x7d
 2513 0017 04       		.sleb128 4
 2514 0018 08000000 		.4byte	.LCFI1
 2515 001c 68030000 		.4byte	.LFE109
 2516 0020 0200     		.2byte	0x2
 2517 0022 7D       		.byte	0x7d
 2518 0023 18       		.sleb128 24
 2519 0024 00000000 		.4byte	0x0
 2520 0028 00000000 		.4byte	0x0
 2521              	.LLST1:
 2522 002c 00000000 		.4byte	.LFB110
 2523 0030 04000000 		.4byte	.LCFI2
 2524 0034 0200     		.2byte	0x2
 2525 0036 7D       		.byte	0x7d
 2526 0037 00       		.sleb128 0
 2527 0038 04000000 		.4byte	.LCFI2
 2528 003c B0000000 		.4byte	.LFE110
 2529 0040 0200     		.2byte	0x2
 2530 0042 7D       		.byte	0x7d
 2531 0043 08       		.sleb128 8
 2532 0044 00000000 		.4byte	0x0
 2533 0048 00000000 		.4byte	0x0
 2534              	.LLST2:
 2535 004c 00000000 		.4byte	.LFB112
 2536 0050 04000000 		.4byte	.LCFI3
 2537 0054 0200     		.2byte	0x2
 2538 0056 7D       		.byte	0x7d
 2539 0057 00       		.sleb128 0
 2540 0058 04000000 		.4byte	.LCFI3
 2541 005c 58000000 		.4byte	.LFE112
 2542 0060 0200     		.2byte	0x2
 2543 0062 7D       		.byte	0x7d
 2544 0063 08       		.sleb128 8
 2545 0064 00000000 		.4byte	0x0
 2546 0068 00000000 		.4byte	0x0
 2547              	.LLST3:
 2548 006c 00000000 		.4byte	.LFB114
 2549 0070 04000000 		.4byte	.LCFI4
 2550 0074 0200     		.2byte	0x2
ARM GAS  /tmp/ccX0J2UF.s 			page 64


 2551 0076 7D       		.byte	0x7d
 2552 0077 00       		.sleb128 0
 2553 0078 04000000 		.4byte	.LCFI4
 2554 007c 08000000 		.4byte	.LCFI5
 2555 0080 0200     		.2byte	0x2
 2556 0082 7D       		.byte	0x7d
 2557 0083 04       		.sleb128 4
 2558 0084 08000000 		.4byte	.LCFI5
 2559 0088 00010000 		.4byte	.LFE114
 2560 008c 0200     		.2byte	0x2
 2561 008e 7D       		.byte	0x7d
 2562 008f 18       		.sleb128 24
 2563 0090 00000000 		.4byte	0x0
 2564 0094 00000000 		.4byte	0x0
 2565              	.LLST4:
 2566 0098 00000000 		.4byte	.LFB115
 2567 009c 04000000 		.4byte	.LCFI6
 2568 00a0 0200     		.2byte	0x2
 2569 00a2 7D       		.byte	0x7d
 2570 00a3 00       		.sleb128 0
 2571 00a4 04000000 		.4byte	.LCFI6
 2572 00a8 08000000 		.4byte	.LCFI7
 2573 00ac 0200     		.2byte	0x2
 2574 00ae 7D       		.byte	0x7d
 2575 00af 04       		.sleb128 4
 2576 00b0 08000000 		.4byte	.LCFI7
 2577 00b4 8C020000 		.4byte	.LFE115
 2578 00b8 0200     		.2byte	0x2
 2579 00ba 7D       		.byte	0x7d
 2580 00bb 30       		.sleb128 48
 2581 00bc 00000000 		.4byte	0x0
 2582 00c0 00000000 		.4byte	0x0
 2583              	.LLST5:
 2584 00c4 00000000 		.4byte	.LFB116
 2585 00c8 04000000 		.4byte	.LCFI8
 2586 00cc 0200     		.2byte	0x2
 2587 00ce 7D       		.byte	0x7d
 2588 00cf 00       		.sleb128 0
 2589 00d0 04000000 		.4byte	.LCFI8
 2590 00d4 08000000 		.4byte	.LCFI9
 2591 00d8 0200     		.2byte	0x2
 2592 00da 7D       		.byte	0x7d
 2593 00db 04       		.sleb128 4
 2594 00dc 08000000 		.4byte	.LCFI9
 2595 00e0 1C010000 		.4byte	.LFE116
 2596 00e4 0200     		.2byte	0x2
 2597 00e6 7D       		.byte	0x7d
 2598 00e7 18       		.sleb128 24
 2599 00e8 00000000 		.4byte	0x0
 2600 00ec 00000000 		.4byte	0x0
 2601              	.LLST6:
 2602 00f0 00000000 		.4byte	.LFB117
 2603 00f4 04000000 		.4byte	.LCFI10
 2604 00f8 0200     		.2byte	0x2
 2605 00fa 7D       		.byte	0x7d
 2606 00fb 00       		.sleb128 0
 2607 00fc 04000000 		.4byte	.LCFI10
ARM GAS  /tmp/ccX0J2UF.s 			page 65


 2608 0100 08000000 		.4byte	.LCFI11
 2609 0104 0200     		.2byte	0x2
 2610 0106 7D       		.byte	0x7d
 2611 0107 04       		.sleb128 4
 2612 0108 08000000 		.4byte	.LCFI11
 2613 010c 04030000 		.4byte	.LFE117
 2614 0110 0200     		.2byte	0x2
 2615 0112 7D       		.byte	0x7d
 2616 0113 30       		.sleb128 48
 2617 0114 00000000 		.4byte	0x0
 2618 0118 00000000 		.4byte	0x0
 2619              	.LLST7:
 2620 011c 00000000 		.4byte	.LFB118
 2621 0120 04000000 		.4byte	.LCFI12
 2622 0124 0200     		.2byte	0x2
 2623 0126 7D       		.byte	0x7d
 2624 0127 00       		.sleb128 0
 2625 0128 04000000 		.4byte	.LCFI12
 2626 012c 74000000 		.4byte	.LFE118
 2627 0130 0200     		.2byte	0x2
 2628 0132 7D       		.byte	0x7d
 2629 0133 08       		.sleb128 8
 2630 0134 00000000 		.4byte	0x0
 2631 0138 00000000 		.4byte	0x0
 2632              	.LLST8:
 2633 013c 00000000 		.4byte	.LFB119
 2634 0140 04000000 		.4byte	.LCFI13
 2635 0144 0200     		.2byte	0x2
 2636 0146 7D       		.byte	0x7d
 2637 0147 00       		.sleb128 0
 2638 0148 04000000 		.4byte	.LCFI13
 2639 014c 08000000 		.4byte	.LCFI14
 2640 0150 0200     		.2byte	0x2
 2641 0152 7D       		.byte	0x7d
 2642 0153 04       		.sleb128 4
 2643 0154 08000000 		.4byte	.LCFI14
 2644 0158 D0040000 		.4byte	.LFE119
 2645 015c 0200     		.2byte	0x2
 2646 015e 7D       		.byte	0x7d
 2647 015f 18       		.sleb128 24
 2648 0160 00000000 		.4byte	0x0
 2649 0164 00000000 		.4byte	0x0
 2650              	.LLST9:
 2651 0168 00000000 		.4byte	.LFB121
 2652 016c 04000000 		.4byte	.LCFI15
 2653 0170 0200     		.2byte	0x2
 2654 0172 7D       		.byte	0x7d
 2655 0173 00       		.sleb128 0
 2656 0174 04000000 		.4byte	.LCFI15
 2657 0178 08000000 		.4byte	.LCFI16
 2658 017c 0200     		.2byte	0x2
 2659 017e 7D       		.byte	0x7d
 2660 017f 04       		.sleb128 4
 2661 0180 08000000 		.4byte	.LCFI16
 2662 0184 B4020000 		.4byte	.LFE121
 2663 0188 0300     		.2byte	0x3
 2664 018a 7D       		.byte	0x7d
ARM GAS  /tmp/ccX0J2UF.s 			page 66


 2665 018b 9804     		.sleb128 536
 2666 018d 00000000 		.4byte	0x0
 2667 0191 00000000 		.4byte	0x0
 2668              		.file 2 "../arm/arm7lib/armlib.h"
 2669              		.file 3 "/home/elijah/CodeSourcery/Sourcery_G++_Lite/bin/../lib/gcc/arm-none-eabi/4.5.2/../../../.
 2670              		.file 4 "/home/elijah/CodeSourcery/Sourcery_G++_Lite/bin/../lib/gcc/arm-none-eabi/4.5.2/../../../.
 2671              		.file 5 "/home/elijah/CodeSourcery/Sourcery_G++_Lite/bin/../lib/gcc/arm-none-eabi/4.5.2/../../../.
 2672              		.file 6 "/home/elijah/CodeSourcery/Sourcery_G++_Lite/bin/../lib/gcc/arm-none-eabi/4.5.2/../../../.
 2673              		.file 7 "/home/elijah/CodeSourcery/Sourcery_G++_Lite/bin/../lib/gcc/arm-none-eabi/4.5.2/../../../.
 2674              		.file 8 "/home/elijah/CodeSourcery/Sourcery_G++_Lite/bin/../lib/gcc/arm-none-eabi/4.5.2/../../../.
 2675              		.file 9 "/home/elijah/CodeSourcery/Sourcery_G++_Lite/bin/../lib/gcc/arm-none-eabi/4.5.2/../../../.
 2676              		.file 10 "/home/elijah/CodeSourcery/Sourcery_G++_Lite/bin/../lib/gcc/arm-none-eabi/4.5.2/../../../
 2677              		.file 11 "/home/elijah/CodeSourcery/Sourcery_G++_Lite/bin/../lib/gcc/arm-none-eabi/4.5.2/include/s
 2678              		.file 12 "/home/elijah/CodeSourcery/Sourcery_G++_Lite/bin/../lib/gcc/arm-none-eabi/4.5.2/../../../
 2679              		.file 13 "/home/elijah/CodeSourcery/Sourcery_G++_Lite/bin/../lib/gcc/arm-none-eabi/4.5.2/include/s
 2680              		.file 14 "<built-in>"
 2681              		.file 15 "/home/elijah/CodeSourcery/Sourcery_G++_Lite/bin/../lib/gcc/arm-none-eabi/4.5.2/../../../
 2682              		.file 16 "/home/elijah/CodeSourcery/Sourcery_G++_Lite/bin/../lib/gcc/arm-none-eabi/4.5.2/../../../
 2683              		.file 17 "/home/elijah/CodeSourcery/Sourcery_G++_Lite/bin/../lib/gcc/arm-none-eabi/4.5.2/../../../
 2684              		.file 18 "/home/elijah/CodeSourcery/Sourcery_G++_Lite/bin/../lib/gcc/arm-none-eabi/4.5.2/../../../
 2685              		.file 19 "/home/elijah/CodeSourcery/Sourcery_G++_Lite/bin/../lib/gcc/arm-none-eabi/4.5.2/../../../
 2686              		.file 20 "../arm/arm7lib/FIFO.h"
 2687              		.file 21 "../arm/arm7lib/UARTBase.h"
 2688              		.file 22 "../arm/arm7lib/UART0.h"
 2689              		.file 23 "sd_raw.h"
 2690              		.file 24 "../arm/arm7lib/lpc214x.h"
 2691              		.file 25 "../arm/arm7lib/HIDReport.h"
 2692              		.file 26 "/home/elijah/CodeSourcery/Sourcery_G++_Lite/bin/../lib/gcc/arm-none-eabi/4.5.2/../../../
 2693              		.section	.debug_info
 2694 0000 D0200000 		.4byte	0x20d0
 2695 0004 0200     		.2byte	0x2
 2696 0006 00000000 		.4byte	.Ldebug_abbrev0
 2697 000a 04       		.byte	0x4
 2698 000b 01       		.uleb128 0x1
 2699 000c AE080000 		.4byte	.LASF374
 2700 0010 04       		.byte	0x4
 2701 0011 6C0D0000 		.4byte	.LASF375
 2702 0015 6F030000 		.4byte	.LASF376
 2703 0019 00000000 		.4byte	0x0
 2704 001d 00000000 		.4byte	0x0
 2705 0021 00000000 		.4byte	.Ldebug_ranges0+0x0
 2706 0025 00000000 		.4byte	.Ldebug_line0
 2707 0029 02       		.uleb128 0x2
 2708 002a 4E050000 		.4byte	.LASF2
 2709 002e 02       		.byte	0x2
 2710 002f 42       		.byte	0x42
 2711 0030 34000000 		.4byte	0x34
 2712 0034 03       		.uleb128 0x3
 2713 0035 01       		.byte	0x1
 2714 0036 02       		.byte	0x2
 2715 0037 A4080000 		.4byte	.LASF0
 2716 003b 03       		.uleb128 0x3
 2717 003c 01       		.byte	0x1
 2718 003d 06       		.byte	0x6
 2719 003e 230F0000 		.4byte	.LASF1
 2720 0042 02       		.uleb128 0x2
 2721 0043 AA070000 		.4byte	.LASF3
ARM GAS  /tmp/ccX0J2UF.s 			page 67


 2722 0047 02       		.byte	0x2
 2723 0048 48       		.byte	0x48
 2724 0049 4D000000 		.4byte	0x4d
 2725 004d 03       		.uleb128 0x3
 2726 004e 01       		.byte	0x1
 2727 004f 08       		.byte	0x8
 2728 0050 EF0D0000 		.4byte	.LASF4
 2729 0054 03       		.uleb128 0x3
 2730 0055 02       		.byte	0x2
 2731 0056 05       		.byte	0x5
 2732 0057 350B0000 		.4byte	.LASF5
 2733 005b 03       		.uleb128 0x3
 2734 005c 02       		.byte	0x2
 2735 005d 07       		.byte	0x7
 2736 005e 350F0000 		.4byte	.LASF6
 2737 0062 03       		.uleb128 0x3
 2738 0063 04       		.byte	0x4
 2739 0064 05       		.byte	0x5
 2740 0065 07000000 		.4byte	.LASF7
 2741 0069 02       		.uleb128 0x2
 2742 006a B6020000 		.4byte	.LASF8
 2743 006e 02       		.byte	0x2
 2744 006f 54       		.byte	0x54
 2745 0070 74000000 		.4byte	0x74
 2746 0074 03       		.uleb128 0x3
 2747 0075 04       		.byte	0x4
 2748 0076 07       		.byte	0x7
 2749 0077 3B0D0000 		.4byte	.LASF9
 2750 007b 03       		.uleb128 0x3
 2751 007c 08       		.byte	0x8
 2752 007d 05       		.byte	0x5
 2753 007e 7B070000 		.4byte	.LASF10
 2754 0082 03       		.uleb128 0x3
 2755 0083 08       		.byte	0x8
 2756 0084 07       		.byte	0x7
 2757 0085 AE030000 		.4byte	.LASF11
 2758 0089 03       		.uleb128 0x3
 2759 008a 04       		.byte	0x4
 2760 008b 04       		.byte	0x4
 2761 008c 13030000 		.4byte	.LASF12
 2762 0090 03       		.uleb128 0x3
 2763 0091 08       		.byte	0x8
 2764 0092 04       		.byte	0x4
 2765 0093 AE0F0000 		.4byte	.LASF13
 2766 0097 04       		.uleb128 0x4
 2767 0098 73746400 		.ascii	"std\000"
 2768 009c 0E       		.byte	0xe
 2769 009d 00       		.byte	0x0
 2770 009e 86020000 		.4byte	0x286
 2771 00a2 05       		.uleb128 0x5
 2772 00a3 03       		.byte	0x3
 2773 00a4 33       		.byte	0x33
 2774 00a5 640B0000 		.4byte	0xb64
 2775 00a9 05       		.uleb128 0x5
 2776 00aa 03       		.byte	0x3
 2777 00ab 34       		.byte	0x34
 2778 00ac 6F0B0000 		.4byte	0xb6f
ARM GAS  /tmp/ccX0J2UF.s 			page 68


 2779 00b0 05       		.uleb128 0x5
 2780 00b1 04       		.byte	0x4
 2781 00b2 5F       		.byte	0x5f
 2782 00b3 B50B0000 		.4byte	0xbb5
 2783 00b7 05       		.uleb128 0x5
 2784 00b8 04       		.byte	0x4
 2785 00b9 60       		.byte	0x60
 2786 00ba C00B0000 		.4byte	0xbc0
 2787 00be 05       		.uleb128 0x5
 2788 00bf 04       		.byte	0x4
 2789 00c0 62       		.byte	0x62
 2790 00c1 CB0B0000 		.4byte	0xbcb
 2791 00c5 05       		.uleb128 0x5
 2792 00c6 04       		.byte	0x4
 2793 00c7 63       		.byte	0x63
 2794 00c8 E50B0000 		.4byte	0xbe5
 2795 00cc 05       		.uleb128 0x5
 2796 00cd 04       		.byte	0x4
 2797 00ce 64       		.byte	0x64
 2798 00cf FC0B0000 		.4byte	0xbfc
 2799 00d3 05       		.uleb128 0x5
 2800 00d4 04       		.byte	0x4
 2801 00d5 65       		.byte	0x65
 2802 00d6 140C0000 		.4byte	0xc14
 2803 00da 05       		.uleb128 0x5
 2804 00db 04       		.byte	0x4
 2805 00dc 66       		.byte	0x66
 2806 00dd 2C0C0000 		.4byte	0xc2c
 2807 00e1 05       		.uleb128 0x5
 2808 00e2 04       		.byte	0x4
 2809 00e3 67       		.byte	0x67
 2810 00e4 430C0000 		.4byte	0xc43
 2811 00e8 05       		.uleb128 0x5
 2812 00e9 04       		.byte	0x4
 2813 00ea 68       		.byte	0x68
 2814 00eb 5A0C0000 		.4byte	0xc5a
 2815 00ef 05       		.uleb128 0x5
 2816 00f0 04       		.byte	0x4
 2817 00f1 69       		.byte	0x69
 2818 00f2 7C0C0000 		.4byte	0xc7c
 2819 00f6 05       		.uleb128 0x5
 2820 00f7 04       		.byte	0x4
 2821 00f8 6A       		.byte	0x6a
 2822 00f9 9D0C0000 		.4byte	0xc9d
 2823 00fd 05       		.uleb128 0x5
 2824 00fe 04       		.byte	0x4
 2825 00ff 6E       		.byte	0x6e
 2826 0100 BA0C0000 		.4byte	0xcba
 2827 0104 05       		.uleb128 0x5
 2828 0105 04       		.byte	0x4
 2829 0106 6F       		.byte	0x6f
 2830 0107 E00C0000 		.4byte	0xce0
 2831 010b 05       		.uleb128 0x5
 2832 010c 04       		.byte	0x4
 2833 010d 71       		.byte	0x71
 2834 010e 010D0000 		.4byte	0xd01
 2835 0112 05       		.uleb128 0x5
ARM GAS  /tmp/ccX0J2UF.s 			page 69


 2836 0113 04       		.byte	0x4
 2837 0114 72       		.byte	0x72
 2838 0115 220D0000 		.4byte	0xd22
 2839 0119 05       		.uleb128 0x5
 2840 011a 04       		.byte	0x4
 2841 011b 73       		.byte	0x73
 2842 011c 490D0000 		.4byte	0xd49
 2843 0120 05       		.uleb128 0x5
 2844 0121 04       		.byte	0x4
 2845 0122 75       		.byte	0x75
 2846 0123 600D0000 		.4byte	0xd60
 2847 0127 05       		.uleb128 0x5
 2848 0128 04       		.byte	0x4
 2849 0129 76       		.byte	0x76
 2850 012a 770D0000 		.4byte	0xd77
 2851 012e 05       		.uleb128 0x5
 2852 012f 04       		.byte	0x4
 2853 0130 77       		.byte	0x77
 2854 0131 840D0000 		.4byte	0xd84
 2855 0135 05       		.uleb128 0x5
 2856 0136 04       		.byte	0x4
 2857 0137 78       		.byte	0x78
 2858 0138 9B0D0000 		.4byte	0xd9b
 2859 013c 05       		.uleb128 0x5
 2860 013d 04       		.byte	0x4
 2861 013e 7D       		.byte	0x7d
 2862 013f AF0D0000 		.4byte	0xdaf
 2863 0143 05       		.uleb128 0x5
 2864 0144 04       		.byte	0x4
 2865 0145 7E       		.byte	0x7e
 2866 0146 C70D0000 		.4byte	0xdc7
 2867 014a 05       		.uleb128 0x5
 2868 014b 04       		.byte	0x4
 2869 014c 7F       		.byte	0x7f
 2870 014d E40D0000 		.4byte	0xde4
 2871 0151 05       		.uleb128 0x5
 2872 0152 04       		.byte	0x4
 2873 0153 81       		.byte	0x81
 2874 0154 F70D0000 		.4byte	0xdf7
 2875 0158 05       		.uleb128 0x5
 2876 0159 04       		.byte	0x4
 2877 015a 82       		.byte	0x82
 2878 015b 0F0E0000 		.4byte	0xe0f
 2879 015f 05       		.uleb128 0x5
 2880 0160 04       		.byte	0x4
 2881 0161 85       		.byte	0x85
 2882 0162 350E0000 		.4byte	0xe35
 2883 0166 05       		.uleb128 0x5
 2884 0167 04       		.byte	0x4
 2885 0168 86       		.byte	0x86
 2886 0169 420E0000 		.4byte	0xe42
 2887 016d 05       		.uleb128 0x5
 2888 016e 04       		.byte	0x4
 2889 016f 87       		.byte	0x87
 2890 0170 590E0000 		.4byte	0xe59
 2891 0174 05       		.uleb128 0x5
 2892 0175 05       		.byte	0x5
ARM GAS  /tmp/ccX0J2UF.s 			page 70


 2893 0176 53       		.byte	0x53
 2894 0177 750E0000 		.4byte	0xe75
 2895 017b 05       		.uleb128 0x5
 2896 017c 05       		.byte	0x5
 2897 017d 56       		.byte	0x56
 2898 017e 910E0000 		.4byte	0xe91
 2899 0182 05       		.uleb128 0x5
 2900 0183 05       		.byte	0x5
 2901 0184 5C       		.byte	0x5c
 2902 0185 A80E0000 		.4byte	0xea8
 2903 0189 05       		.uleb128 0x5
 2904 018a 05       		.byte	0x5
 2905 018b 5D       		.byte	0x5d
 2906 018c C40E0000 		.4byte	0xec4
 2907 0190 05       		.uleb128 0x5
 2908 0191 06       		.byte	0x6
 2909 0192 66       		.byte	0x66
 2910 0193 E50E0000 		.4byte	0xee5
 2911 0197 05       		.uleb128 0x5
 2912 0198 06       		.byte	0x6
 2913 0199 67       		.byte	0x67
 2914 019a 0E0F0000 		.4byte	0xf0e
 2915 019e 05       		.uleb128 0x5
 2916 019f 06       		.byte	0x6
 2917 01a0 6B       		.byte	0x6b
 2918 01a1 370F0000 		.4byte	0xf37
 2919 01a5 05       		.uleb128 0x5
 2920 01a6 06       		.byte	0x6
 2921 01a7 6C       		.byte	0x6c
 2922 01a8 4E0F0000 		.4byte	0xf4e
 2923 01ac 05       		.uleb128 0x5
 2924 01ad 06       		.byte	0x6
 2925 01ae 6D       		.byte	0x6d
 2926 01af 650F0000 		.4byte	0xf65
 2927 01b3 05       		.uleb128 0x5
 2928 01b4 06       		.byte	0x6
 2929 01b5 6E       		.byte	0x6e
 2930 01b6 7C0F0000 		.4byte	0xf7c
 2931 01ba 05       		.uleb128 0x5
 2932 01bb 06       		.byte	0x6
 2933 01bc 6F       		.byte	0x6f
 2934 01bd 930F0000 		.4byte	0xf93
 2935 01c1 05       		.uleb128 0x5
 2936 01c2 06       		.byte	0x6
 2937 01c3 71       		.byte	0x71
 2938 01c4 DF0F0000 		.4byte	0xfdf
 2939 01c8 05       		.uleb128 0x5
 2940 01c9 06       		.byte	0x6
 2941 01ca 74       		.byte	0x74
 2942 01cb FB0F0000 		.4byte	0xffb
 2943 01cf 05       		.uleb128 0x5
 2944 01d0 06       		.byte	0x6
 2945 01d1 76       		.byte	0x76
 2946 01d2 12100000 		.4byte	0x1012
 2947 01d6 05       		.uleb128 0x5
 2948 01d7 06       		.byte	0x6
 2949 01d8 79       		.byte	0x79
ARM GAS  /tmp/ccX0J2UF.s 			page 71


 2950 01d9 2E100000 		.4byte	0x102e
 2951 01dd 05       		.uleb128 0x5
 2952 01de 06       		.byte	0x6
 2953 01df 7A       		.byte	0x7a
 2954 01e0 4A100000 		.4byte	0x104a
 2955 01e4 05       		.uleb128 0x5
 2956 01e5 06       		.byte	0x6
 2957 01e6 7B       		.byte	0x7b
 2958 01e7 78100000 		.4byte	0x1078
 2959 01eb 05       		.uleb128 0x5
 2960 01ec 06       		.byte	0x6
 2961 01ed 7D       		.byte	0x7d
 2962 01ee 99100000 		.4byte	0x1099
 2963 01f2 05       		.uleb128 0x5
 2964 01f3 06       		.byte	0x6
 2965 01f4 7E       		.byte	0x7e
 2966 01f5 BB100000 		.4byte	0x10bb
 2967 01f9 05       		.uleb128 0x5
 2968 01fa 06       		.byte	0x6
 2969 01fb 80       		.byte	0x80
 2970 01fc C8100000 		.4byte	0x10c8
 2971 0200 05       		.uleb128 0x5
 2972 0201 06       		.byte	0x6
 2973 0202 81       		.byte	0x81
 2974 0203 DB100000 		.4byte	0x10db
 2975 0207 05       		.uleb128 0x5
 2976 0208 06       		.byte	0x6
 2977 0209 82       		.byte	0x82
 2978 020a FD100000 		.4byte	0x10fd
 2979 020e 05       		.uleb128 0x5
 2980 020f 06       		.byte	0x6
 2981 0210 83       		.byte	0x83
 2982 0211 1E110000 		.4byte	0x111e
 2983 0215 05       		.uleb128 0x5
 2984 0216 06       		.byte	0x6
 2985 0217 84       		.byte	0x84
 2986 0218 3F110000 		.4byte	0x113f
 2987 021c 05       		.uleb128 0x5
 2988 021d 06       		.byte	0x6
 2989 021e 86       		.byte	0x86
 2990 021f 56110000 		.4byte	0x1156
 2991 0223 05       		.uleb128 0x5
 2992 0224 06       		.byte	0x6
 2993 0225 87       		.byte	0x87
 2994 0226 82110000 		.4byte	0x1182
 2995 022a 05       		.uleb128 0x5
 2996 022b 07       		.byte	0x7
 2997 022c 3E       		.byte	0x3e
 2998 022d 9F0B0000 		.4byte	0xb9f
 2999 0231 05       		.uleb128 0x5
 3000 0232 07       		.byte	0x7
 3001 0233 3F       		.byte	0x3f
 3002 0234 AA0B0000 		.4byte	0xbaa
 3003 0238 05       		.uleb128 0x5
 3004 0239 07       		.byte	0x7
 3005 023a 40       		.byte	0x40
 3006 023b 9E110000 		.4byte	0x119e
ARM GAS  /tmp/ccX0J2UF.s 			page 72


 3007 023f 05       		.uleb128 0x5
 3008 0240 07       		.byte	0x7
 3009 0241 42       		.byte	0x42
 3010 0242 44120000 		.4byte	0x1244
 3011 0246 05       		.uleb128 0x5
 3012 0247 07       		.byte	0x7
 3013 0248 43       		.byte	0x43
 3014 0249 51120000 		.4byte	0x1251
 3015 024d 05       		.uleb128 0x5
 3016 024e 07       		.byte	0x7
 3017 024f 44       		.byte	0x44
 3018 0250 6D120000 		.4byte	0x126d
 3019 0254 05       		.uleb128 0x5
 3020 0255 07       		.byte	0x7
 3021 0256 45       		.byte	0x45
 3022 0257 8A120000 		.4byte	0x128a
 3023 025b 05       		.uleb128 0x5
 3024 025c 07       		.byte	0x7
 3025 025d 46       		.byte	0x46
 3026 025e A7120000 		.4byte	0x12a7
 3027 0262 05       		.uleb128 0x5
 3028 0263 07       		.byte	0x7
 3029 0264 47       		.byte	0x47
 3030 0265 C9120000 		.4byte	0x12c9
 3031 0269 05       		.uleb128 0x5
 3032 026a 07       		.byte	0x7
 3033 026b 48       		.byte	0x48
 3034 026c EB120000 		.4byte	0x12eb
 3035 0270 05       		.uleb128 0x5
 3036 0271 07       		.byte	0x7
 3037 0272 49       		.byte	0x49
 3038 0273 02130000 		.4byte	0x1302
 3039 0277 05       		.uleb128 0x5
 3040 0278 07       		.byte	0x7
 3041 0279 4A       		.byte	0x4a
 3042 027a 19130000 		.4byte	0x1319
 3043 027e 05       		.uleb128 0x5
 3044 027f 08       		.byte	0x8
 3045 0280 38       		.byte	0x38
 3046 0281 3F130000 		.4byte	0x133f
 3047 0285 00       		.byte	0x0
 3048 0286 06       		.uleb128 0x6
 3049 0287 46010000 		.4byte	.LASF377
 3050 028b 1A       		.byte	0x1a
 3051 028c 45       		.byte	0x45
 3052 028d 03       		.uleb128 0x3
 3053 028e 04       		.byte	0x4
 3054 028f 07       		.byte	0x7
 3055 0290 24010000 		.4byte	.LASF14
 3056 0294 07       		.uleb128 0x7
 3057 0295 04       		.byte	0x4
 3058 0296 05       		.byte	0x5
 3059 0297 696E7400 		.ascii	"int\000"
 3060 029b 02       		.uleb128 0x2
 3061 029c 370E0000 		.4byte	.LASF15
 3062 02a0 09       		.byte	0x9
 3063 02a1 07       		.byte	0x7
ARM GAS  /tmp/ccX0J2UF.s 			page 73


 3064 02a2 94020000 		.4byte	0x294
 3065 02a6 02       		.uleb128 0x2
 3066 02a7 1B020000 		.4byte	.LASF16
 3067 02ab 0A       		.byte	0xa
 3068 02ac 2C       		.byte	0x2c
 3069 02ad 62000000 		.4byte	0x62
 3070 02b1 08       		.uleb128 0x8
 3071 02b2 540D0000 		.4byte	.LASF17
 3072 02b6 0B       		.byte	0xb
 3073 02b7 6001     		.2byte	0x160
 3074 02b9 8D020000 		.4byte	0x28d
 3075 02bd 09       		.uleb128 0x9
 3076 02be 08       		.byte	0x8
 3077 02bf 0A       		.byte	0xa
 3078 02c0 44       		.byte	0x44
 3079 02c1 F1080000 		.4byte	.LASF160
 3080 02c5 05030000 		.4byte	0x305
 3081 02c9 0A       		.uleb128 0xa
 3082 02ca 04       		.byte	0x4
 3083 02cb 0A       		.byte	0xa
 3084 02cc 47       		.byte	0x47
 3085 02cd E8020000 		.4byte	0x2e8
 3086 02d1 0B       		.uleb128 0xb
 3087 02d2 96070000 		.4byte	.LASF18
 3088 02d6 0A       		.byte	0xa
 3089 02d7 48       		.byte	0x48
 3090 02d8 B1020000 		.4byte	0x2b1
 3091 02dc 0B       		.uleb128 0xb
 3092 02dd E40B0000 		.4byte	.LASF19
 3093 02e1 0A       		.byte	0xa
 3094 02e2 49       		.byte	0x49
 3095 02e3 05030000 		.4byte	0x305
 3096 02e7 00       		.byte	0x0
 3097 02e8 0C       		.uleb128 0xc
 3098 02e9 F8020000 		.4byte	.LASF20
 3099 02ed 0A       		.byte	0xa
 3100 02ee 45       		.byte	0x45
 3101 02ef 94020000 		.4byte	0x294
 3102 02f3 02       		.byte	0x2
 3103 02f4 23       		.byte	0x23
 3104 02f5 00       		.uleb128 0x0
 3105 02f6 0C       		.uleb128 0xc
 3106 02f7 6E050000 		.4byte	.LASF21
 3107 02fb 0A       		.byte	0xa
 3108 02fc 4A       		.byte	0x4a
 3109 02fd C9020000 		.4byte	0x2c9
 3110 0301 02       		.byte	0x2
 3111 0302 23       		.byte	0x23
 3112 0303 04       		.uleb128 0x4
 3113 0304 00       		.byte	0x0
 3114 0305 0D       		.uleb128 0xd
 3115 0306 4D000000 		.4byte	0x4d
 3116 030a 15030000 		.4byte	0x315
 3117 030e 0E       		.uleb128 0xe
 3118 030f 8D020000 		.4byte	0x28d
 3119 0313 03       		.byte	0x3
 3120 0314 00       		.byte	0x0
ARM GAS  /tmp/ccX0J2UF.s 			page 74


 3121 0315 02       		.uleb128 0x2
 3122 0316 4C090000 		.4byte	.LASF22
 3123 031a 0A       		.byte	0xa
 3124 031b 4F       		.byte	0x4f
 3125 031c 9B020000 		.4byte	0x29b
 3126 0320 0F       		.uleb128 0xf
 3127 0321 04       		.byte	0x4
 3128 0322 02       		.uleb128 0x2
 3129 0323 F6010000 		.4byte	.LASF23
 3130 0327 0C       		.byte	0xc
 3131 0328 15       		.byte	0x15
 3132 0329 74000000 		.4byte	0x74
 3133 032d 10       		.uleb128 0x10
 3134 032e 470B0000 		.4byte	.LASF28
 3135 0332 18       		.byte	0x18
 3136 0333 0C       		.byte	0xc
 3137 0334 2D       		.byte	0x2d
 3138 0335 8C030000 		.4byte	0x38c
 3139 0339 0C       		.uleb128 0xc
 3140 033a D8050000 		.4byte	.LASF24
 3141 033e 0C       		.byte	0xc
 3142 033f 2E       		.byte	0x2e
 3143 0340 8C030000 		.4byte	0x38c
 3144 0344 02       		.byte	0x2
 3145 0345 23       		.byte	0x23
 3146 0346 00       		.uleb128 0x0
 3147 0347 11       		.uleb128 0x11
 3148 0348 5F6B00   		.ascii	"_k\000"
 3149 034b 0C       		.byte	0xc
 3150 034c 2F       		.byte	0x2f
 3151 034d 94020000 		.4byte	0x294
 3152 0351 02       		.byte	0x2
 3153 0352 23       		.byte	0x23
 3154 0353 04       		.uleb128 0x4
 3155 0354 0C       		.uleb128 0xc
 3156 0355 A60C0000 		.4byte	.LASF25
 3157 0359 0C       		.byte	0xc
 3158 035a 2F       		.byte	0x2f
 3159 035b 94020000 		.4byte	0x294
 3160 035f 02       		.byte	0x2
 3161 0360 23       		.byte	0x23
 3162 0361 08       		.uleb128 0x8
 3163 0362 0C       		.uleb128 0xc
 3164 0363 AC010000 		.4byte	.LASF26
 3165 0367 0C       		.byte	0xc
 3166 0368 2F       		.byte	0x2f
 3167 0369 94020000 		.4byte	0x294
 3168 036d 02       		.byte	0x2
 3169 036e 23       		.byte	0x23
 3170 036f 0C       		.uleb128 0xc
 3171 0370 0C       		.uleb128 0xc
 3172 0371 E8030000 		.4byte	.LASF27
 3173 0375 0C       		.byte	0xc
 3174 0376 2F       		.byte	0x2f
 3175 0377 94020000 		.4byte	0x294
 3176 037b 02       		.byte	0x2
 3177 037c 23       		.byte	0x23
ARM GAS  /tmp/ccX0J2UF.s 			page 75


 3178 037d 10       		.uleb128 0x10
 3179 037e 11       		.uleb128 0x11
 3180 037f 5F7800   		.ascii	"_x\000"
 3181 0382 0C       		.byte	0xc
 3182 0383 30       		.byte	0x30
 3183 0384 92030000 		.4byte	0x392
 3184 0388 02       		.byte	0x2
 3185 0389 23       		.byte	0x23
 3186 038a 14       		.uleb128 0x14
 3187 038b 00       		.byte	0x0
 3188 038c 12       		.uleb128 0x12
 3189 038d 04       		.byte	0x4
 3190 038e 2D030000 		.4byte	0x32d
 3191 0392 0D       		.uleb128 0xd
 3192 0393 74000000 		.4byte	0x74
 3193 0397 A2030000 		.4byte	0x3a2
 3194 039b 0E       		.uleb128 0xe
 3195 039c 8D020000 		.4byte	0x28d
 3196 03a0 00       		.byte	0x0
 3197 03a1 00       		.byte	0x0
 3198 03a2 10       		.uleb128 0x10
 3199 03a3 100D0000 		.4byte	.LASF29
 3200 03a7 24       		.byte	0x24
 3201 03a8 0C       		.byte	0xc
 3202 03a9 35       		.byte	0x35
 3203 03aa 2D040000 		.4byte	0x42d
 3204 03ae 0C       		.uleb128 0xc
 3205 03af 36050000 		.4byte	.LASF30
 3206 03b3 0C       		.byte	0xc
 3207 03b4 36       		.byte	0x36
 3208 03b5 94020000 		.4byte	0x294
 3209 03b9 02       		.byte	0x2
 3210 03ba 23       		.byte	0x23
 3211 03bb 00       		.uleb128 0x0
 3212 03bc 0C       		.uleb128 0xc
 3213 03bd 2F030000 		.4byte	.LASF31
 3214 03c1 0C       		.byte	0xc
 3215 03c2 37       		.byte	0x37
 3216 03c3 94020000 		.4byte	0x294
 3217 03c7 02       		.byte	0x2
 3218 03c8 23       		.byte	0x23
 3219 03c9 04       		.uleb128 0x4
 3220 03ca 0C       		.uleb128 0xc
 3221 03cb BF020000 		.4byte	.LASF32
 3222 03cf 0C       		.byte	0xc
 3223 03d0 38       		.byte	0x38
 3224 03d1 94020000 		.4byte	0x294
 3225 03d5 02       		.byte	0x2
 3226 03d6 23       		.byte	0x23
 3227 03d7 08       		.uleb128 0x8
 3228 03d8 0C       		.uleb128 0xc
 3229 03d9 02070000 		.4byte	.LASF33
 3230 03dd 0C       		.byte	0xc
 3231 03de 39       		.byte	0x39
 3232 03df 94020000 		.4byte	0x294
 3233 03e3 02       		.byte	0x2
 3234 03e4 23       		.byte	0x23
ARM GAS  /tmp/ccX0J2UF.s 			page 76


 3235 03e5 0C       		.uleb128 0xc
 3236 03e6 0C       		.uleb128 0xc
 3237 03e7 230A0000 		.4byte	.LASF34
 3238 03eb 0C       		.byte	0xc
 3239 03ec 3A       		.byte	0x3a
 3240 03ed 94020000 		.4byte	0x294
 3241 03f1 02       		.byte	0x2
 3242 03f2 23       		.byte	0x23
 3243 03f3 10       		.uleb128 0x10
 3244 03f4 0C       		.uleb128 0xc
 3245 03f5 150C0000 		.4byte	.LASF35
 3246 03f9 0C       		.byte	0xc
 3247 03fa 3B       		.byte	0x3b
 3248 03fb 94020000 		.4byte	0x294
 3249 03ff 02       		.byte	0x2
 3250 0400 23       		.byte	0x23
 3251 0401 14       		.uleb128 0x14
 3252 0402 0C       		.uleb128 0xc
 3253 0403 8D020000 		.4byte	.LASF36
 3254 0407 0C       		.byte	0xc
 3255 0408 3C       		.byte	0x3c
 3256 0409 94020000 		.4byte	0x294
 3257 040d 02       		.byte	0x2
 3258 040e 23       		.byte	0x23
 3259 040f 18       		.uleb128 0x18
 3260 0410 0C       		.uleb128 0xc
 3261 0411 64050000 		.4byte	.LASF37
 3262 0415 0C       		.byte	0xc
 3263 0416 3D       		.byte	0x3d
 3264 0417 94020000 		.4byte	0x294
 3265 041b 02       		.byte	0x2
 3266 041c 23       		.byte	0x23
 3267 041d 1C       		.uleb128 0x1c
 3268 041e 0C       		.uleb128 0xc
 3269 041f 65090000 		.4byte	.LASF38
 3270 0423 0C       		.byte	0xc
 3271 0424 3E       		.byte	0x3e
 3272 0425 94020000 		.4byte	0x294
 3273 0429 02       		.byte	0x2
 3274 042a 23       		.byte	0x23
 3275 042b 20       		.uleb128 0x20
 3276 042c 00       		.byte	0x0
 3277 042d 13       		.uleb128 0x13
 3278 042e 9D000000 		.4byte	.LASF39
 3279 0432 0801     		.2byte	0x108
 3280 0434 0C       		.byte	0xc
 3281 0435 47       		.byte	0x47
 3282 0436 76040000 		.4byte	0x476
 3283 043a 0C       		.uleb128 0xc
 3284 043b 140F0000 		.4byte	.LASF40
 3285 043f 0C       		.byte	0xc
 3286 0440 48       		.byte	0x48
 3287 0441 76040000 		.4byte	0x476
 3288 0445 02       		.byte	0x2
 3289 0446 23       		.byte	0x23
 3290 0447 00       		.uleb128 0x0
 3291 0448 0C       		.uleb128 0xc
ARM GAS  /tmp/ccX0J2UF.s 			page 77


 3292 0449 900D0000 		.4byte	.LASF41
 3293 044d 0C       		.byte	0xc
 3294 044e 49       		.byte	0x49
 3295 044f 76040000 		.4byte	0x476
 3296 0453 03       		.byte	0x3
 3297 0454 23       		.byte	0x23
 3298 0455 8001     		.uleb128 0x80
 3299 0457 0C       		.uleb128 0xc
 3300 0458 860F0000 		.4byte	.LASF42
 3301 045c 0C       		.byte	0xc
 3302 045d 4B       		.byte	0x4b
 3303 045e 22030000 		.4byte	0x322
 3304 0462 03       		.byte	0x3
 3305 0463 23       		.byte	0x23
 3306 0464 8002     		.uleb128 0x100
 3307 0466 0C       		.uleb128 0xc
 3308 0467 57100000 		.4byte	.LASF43
 3309 046b 0C       		.byte	0xc
 3310 046c 4E       		.byte	0x4e
 3311 046d 22030000 		.4byte	0x322
 3312 0471 03       		.byte	0x3
 3313 0472 23       		.byte	0x23
 3314 0473 8402     		.uleb128 0x104
 3315 0475 00       		.byte	0x0
 3316 0476 0D       		.uleb128 0xd
 3317 0477 20030000 		.4byte	0x320
 3318 047b 86040000 		.4byte	0x486
 3319 047f 0E       		.uleb128 0xe
 3320 0480 8D020000 		.4byte	0x28d
 3321 0484 1F       		.byte	0x1f
 3322 0485 00       		.byte	0x0
 3323 0486 13       		.uleb128 0x13
 3324 0487 DE0A0000 		.4byte	.LASF44
 3325 048b 9001     		.2byte	0x190
 3326 048d 0C       		.byte	0xc
 3327 048e 59       		.byte	0x59
 3328 048f CD040000 		.4byte	0x4cd
 3329 0493 0C       		.uleb128 0xc
 3330 0494 D8050000 		.4byte	.LASF24
 3331 0498 0C       		.byte	0xc
 3332 0499 5A       		.byte	0x5a
 3333 049a CD040000 		.4byte	0x4cd
 3334 049e 02       		.byte	0x2
 3335 049f 23       		.byte	0x23
 3336 04a0 00       		.uleb128 0x0
 3337 04a1 0C       		.uleb128 0xc
 3338 04a2 7B050000 		.4byte	.LASF45
 3339 04a6 0C       		.byte	0xc
 3340 04a7 5B       		.byte	0x5b
 3341 04a8 94020000 		.4byte	0x294
 3342 04ac 02       		.byte	0x2
 3343 04ad 23       		.byte	0x23
 3344 04ae 04       		.uleb128 0x4
 3345 04af 0C       		.uleb128 0xc
 3346 04b0 31020000 		.4byte	.LASF46
 3347 04b4 0C       		.byte	0xc
 3348 04b5 5D       		.byte	0x5d
ARM GAS  /tmp/ccX0J2UF.s 			page 78


 3349 04b6 D3040000 		.4byte	0x4d3
 3350 04ba 02       		.byte	0x2
 3351 04bb 23       		.byte	0x23
 3352 04bc 08       		.uleb128 0x8
 3353 04bd 0C       		.uleb128 0xc
 3354 04be 9D000000 		.4byte	.LASF39
 3355 04c2 0C       		.byte	0xc
 3356 04c3 5E       		.byte	0x5e
 3357 04c4 2D040000 		.4byte	0x42d
 3358 04c8 03       		.byte	0x3
 3359 04c9 23       		.byte	0x23
 3360 04ca 8801     		.uleb128 0x88
 3361 04cc 00       		.byte	0x0
 3362 04cd 12       		.uleb128 0x12
 3363 04ce 04       		.byte	0x4
 3364 04cf 86040000 		.4byte	0x486
 3365 04d3 0D       		.uleb128 0xd
 3366 04d4 E4040000 		.4byte	0x4e4
 3367 04d8 E3040000 		.4byte	0x4e3
 3368 04dc 0E       		.uleb128 0xe
 3369 04dd 8D020000 		.4byte	0x28d
 3370 04e1 1F       		.byte	0x1f
 3371 04e2 00       		.byte	0x0
 3372 04e3 14       		.uleb128 0x14
 3373 04e4 12       		.uleb128 0x12
 3374 04e5 04       		.byte	0x4
 3375 04e6 E3040000 		.4byte	0x4e3
 3376 04ea 10       		.uleb128 0x10
 3377 04eb 820E0000 		.4byte	.LASF47
 3378 04ef 08       		.byte	0x8
 3379 04f0 0C       		.byte	0xc
 3380 04f1 69       		.byte	0x69
 3381 04f2 13050000 		.4byte	0x513
 3382 04f6 0C       		.uleb128 0xc
 3383 04f7 6E080000 		.4byte	.LASF48
 3384 04fb 0C       		.byte	0xc
 3385 04fc 6A       		.byte	0x6a
 3386 04fd 13050000 		.4byte	0x513
 3387 0501 02       		.byte	0x2
 3388 0502 23       		.byte	0x23
 3389 0503 00       		.uleb128 0x0
 3390 0504 0C       		.uleb128 0xc
 3391 0505 A80F0000 		.4byte	.LASF49
 3392 0509 0C       		.byte	0xc
 3393 050a 6B       		.byte	0x6b
 3394 050b 94020000 		.4byte	0x294
 3395 050f 02       		.byte	0x2
 3396 0510 23       		.byte	0x23
 3397 0511 04       		.uleb128 0x4
 3398 0512 00       		.byte	0x0
 3399 0513 12       		.uleb128 0x12
 3400 0514 04       		.byte	0x4
 3401 0515 4D000000 		.4byte	0x4d
 3402 0519 10       		.uleb128 0x10
 3403 051a E0030000 		.4byte	.LASF50
 3404 051e 68       		.byte	0x68
 3405 051f 0C       		.byte	0xc
ARM GAS  /tmp/ccX0J2UF.s 			page 79


 3406 0520 B3       		.byte	0xb3
 3407 0521 73060000 		.4byte	0x673
 3408 0525 11       		.uleb128 0x11
 3409 0526 5F7000   		.ascii	"_p\000"
 3410 0529 0C       		.byte	0xc
 3411 052a B4       		.byte	0xb4
 3412 052b 13050000 		.4byte	0x513
 3413 052f 02       		.byte	0x2
 3414 0530 23       		.byte	0x23
 3415 0531 00       		.uleb128 0x0
 3416 0532 11       		.uleb128 0x11
 3417 0533 5F7200   		.ascii	"_r\000"
 3418 0536 0C       		.byte	0xc
 3419 0537 B5       		.byte	0xb5
 3420 0538 94020000 		.4byte	0x294
 3421 053c 02       		.byte	0x2
 3422 053d 23       		.byte	0x23
 3423 053e 04       		.uleb128 0x4
 3424 053f 11       		.uleb128 0x11
 3425 0540 5F7700   		.ascii	"_w\000"
 3426 0543 0C       		.byte	0xc
 3427 0544 B6       		.byte	0xb6
 3428 0545 94020000 		.4byte	0x294
 3429 0549 02       		.byte	0x2
 3430 054a 23       		.byte	0x23
 3431 054b 08       		.uleb128 0x8
 3432 054c 0C       		.uleb128 0xc
 3433 054d 59010000 		.4byte	.LASF51
 3434 0551 0C       		.byte	0xc
 3435 0552 B7       		.byte	0xb7
 3436 0553 54000000 		.4byte	0x54
 3437 0557 02       		.byte	0x2
 3438 0558 23       		.byte	0x23
 3439 0559 0C       		.uleb128 0xc
 3440 055a 0C       		.uleb128 0xc
 3441 055b 2C0C0000 		.4byte	.LASF52
 3442 055f 0C       		.byte	0xc
 3443 0560 B8       		.byte	0xb8
 3444 0561 54000000 		.4byte	0x54
 3445 0565 02       		.byte	0x2
 3446 0566 23       		.byte	0x23
 3447 0567 0E       		.uleb128 0xe
 3448 0568 11       		.uleb128 0x11
 3449 0569 5F626600 		.ascii	"_bf\000"
 3450 056d 0C       		.byte	0xc
 3451 056e B9       		.byte	0xb9
 3452 056f EA040000 		.4byte	0x4ea
 3453 0573 02       		.byte	0x2
 3454 0574 23       		.byte	0x23
 3455 0575 10       		.uleb128 0x10
 3456 0576 0C       		.uleb128 0xc
 3457 0577 50010000 		.4byte	.LASF53
 3458 057b 0C       		.byte	0xc
 3459 057c BA       		.byte	0xba
 3460 057d 94020000 		.4byte	0x294
 3461 0581 02       		.byte	0x2
 3462 0582 23       		.byte	0x23
ARM GAS  /tmp/ccX0J2UF.s 			page 80


 3463 0583 18       		.uleb128 0x18
 3464 0584 0C       		.uleb128 0xc
 3465 0585 4F020000 		.4byte	.LASF54
 3466 0589 0C       		.byte	0xc
 3467 058a C1       		.byte	0xc1
 3468 058b 20030000 		.4byte	0x320
 3469 058f 02       		.byte	0x2
 3470 0590 23       		.byte	0x23
 3471 0591 1C       		.uleb128 0x1c
 3472 0592 0C       		.uleb128 0xc
 3473 0593 EB010000 		.4byte	.LASF55
 3474 0597 0C       		.byte	0xc
 3475 0598 C3       		.byte	0xc3
 3476 0599 7C090000 		.4byte	0x97c
 3477 059d 02       		.byte	0x2
 3478 059e 23       		.byte	0x23
 3479 059f 20       		.uleb128 0x20
 3480 05a0 0C       		.uleb128 0xc
 3481 05a1 7B0A0000 		.4byte	.LASF56
 3482 05a5 0C       		.byte	0xc
 3483 05a6 C5       		.byte	0xc5
 3484 05a7 AB090000 		.4byte	0x9ab
 3485 05ab 02       		.byte	0x2
 3486 05ac 23       		.byte	0x23
 3487 05ad 24       		.uleb128 0x24
 3488 05ae 0C       		.uleb128 0xc
 3489 05af 83100000 		.4byte	.LASF57
 3490 05b3 0C       		.byte	0xc
 3491 05b4 C7       		.byte	0xc7
 3492 05b5 CF090000 		.4byte	0x9cf
 3493 05b9 02       		.byte	0x2
 3494 05ba 23       		.byte	0x23
 3495 05bb 28       		.uleb128 0x28
 3496 05bc 0C       		.uleb128 0xc
 3497 05bd E80D0000 		.4byte	.LASF58
 3498 05c1 0C       		.byte	0xc
 3499 05c2 C8       		.byte	0xc8
 3500 05c3 E9090000 		.4byte	0x9e9
 3501 05c7 02       		.byte	0x2
 3502 05c8 23       		.byte	0x23
 3503 05c9 2C       		.uleb128 0x2c
 3504 05ca 11       		.uleb128 0x11
 3505 05cb 5F756200 		.ascii	"_ub\000"
 3506 05cf 0C       		.byte	0xc
 3507 05d0 CB       		.byte	0xcb
 3508 05d1 EA040000 		.4byte	0x4ea
 3509 05d5 02       		.byte	0x2
 3510 05d6 23       		.byte	0x23
 3511 05d7 30       		.uleb128 0x30
 3512 05d8 11       		.uleb128 0x11
 3513 05d9 5F757000 		.ascii	"_up\000"
 3514 05dd 0C       		.byte	0xc
 3515 05de CC       		.byte	0xcc
 3516 05df 13050000 		.4byte	0x513
 3517 05e3 02       		.byte	0x2
 3518 05e4 23       		.byte	0x23
 3519 05e5 38       		.uleb128 0x38
ARM GAS  /tmp/ccX0J2UF.s 			page 81


 3520 05e6 11       		.uleb128 0x11
 3521 05e7 5F757200 		.ascii	"_ur\000"
 3522 05eb 0C       		.byte	0xc
 3523 05ec CD       		.byte	0xcd
 3524 05ed 94020000 		.4byte	0x294
 3525 05f1 02       		.byte	0x2
 3526 05f2 23       		.byte	0x23
 3527 05f3 3C       		.uleb128 0x3c
 3528 05f4 0C       		.uleb128 0xc
 3529 05f5 4D040000 		.4byte	.LASF59
 3530 05f9 0C       		.byte	0xc
 3531 05fa D0       		.byte	0xd0
 3532 05fb EF090000 		.4byte	0x9ef
 3533 05ff 02       		.byte	0x2
 3534 0600 23       		.byte	0x23
 3535 0601 40       		.uleb128 0x40
 3536 0602 0C       		.uleb128 0xc
 3537 0603 F80F0000 		.4byte	.LASF60
 3538 0607 0C       		.byte	0xc
 3539 0608 D1       		.byte	0xd1
 3540 0609 FF090000 		.4byte	0x9ff
 3541 060d 02       		.byte	0x2
 3542 060e 23       		.byte	0x23
 3543 060f 43       		.uleb128 0x43
 3544 0610 11       		.uleb128 0x11
 3545 0611 5F6C6200 		.ascii	"_lb\000"
 3546 0615 0C       		.byte	0xc
 3547 0616 D4       		.byte	0xd4
 3548 0617 EA040000 		.4byte	0x4ea
 3549 061b 02       		.byte	0x2
 3550 061c 23       		.byte	0x23
 3551 061d 44       		.uleb128 0x44
 3552 061e 0C       		.uleb128 0xc
 3553 061f 75010000 		.4byte	.LASF61
 3554 0623 0C       		.byte	0xc
 3555 0624 D7       		.byte	0xd7
 3556 0625 94020000 		.4byte	0x294
 3557 0629 02       		.byte	0x2
 3558 062a 23       		.byte	0x23
 3559 062b 4C       		.uleb128 0x4c
 3560 062c 0C       		.uleb128 0xc
 3561 062d 45040000 		.4byte	.LASF62
 3562 0631 0C       		.byte	0xc
 3563 0632 D8       		.byte	0xd8
 3564 0633 94020000 		.4byte	0x294
 3565 0637 02       		.byte	0x2
 3566 0638 23       		.byte	0x23
 3567 0639 50       		.uleb128 0x50
 3568 063a 0C       		.uleb128 0xc
 3569 063b DE0B0000 		.4byte	.LASF63
 3570 063f 0C       		.byte	0xc
 3571 0640 DB       		.byte	0xdb
 3572 0641 91060000 		.4byte	0x691
 3573 0645 02       		.byte	0x2
 3574 0646 23       		.byte	0x23
 3575 0647 54       		.uleb128 0x54
 3576 0648 0C       		.uleb128 0xc
ARM GAS  /tmp/ccX0J2UF.s 			page 82


 3577 0649 2D0D0000 		.4byte	.LASF64
 3578 064d 0C       		.byte	0xc
 3579 064e DF       		.byte	0xdf
 3580 064f 15030000 		.4byte	0x315
 3581 0653 02       		.byte	0x2
 3582 0654 23       		.byte	0x23
 3583 0655 58       		.uleb128 0x58
 3584 0656 0C       		.uleb128 0xc
 3585 0657 D5010000 		.4byte	.LASF65
 3586 065b 0C       		.byte	0xc
 3587 065c E1       		.byte	0xe1
 3588 065d BD020000 		.4byte	0x2bd
 3589 0661 02       		.byte	0x2
 3590 0662 23       		.byte	0x23
 3591 0663 5C       		.uleb128 0x5c
 3592 0664 0C       		.uleb128 0xc
 3593 0665 4F100000 		.4byte	.LASF66
 3594 0669 0C       		.byte	0xc
 3595 066a E2       		.byte	0xe2
 3596 066b 94020000 		.4byte	0x294
 3597 066f 02       		.byte	0x2
 3598 0670 23       		.byte	0x23
 3599 0671 64       		.uleb128 0x64
 3600 0672 00       		.byte	0x0
 3601 0673 15       		.uleb128 0x15
 3602 0674 94020000 		.4byte	0x294
 3603 0678 91060000 		.4byte	0x691
 3604 067c 16       		.uleb128 0x16
 3605 067d 91060000 		.4byte	0x691
 3606 0681 16       		.uleb128 0x16
 3607 0682 20030000 		.4byte	0x320
 3608 0686 16       		.uleb128 0x16
 3609 0687 6F090000 		.4byte	0x96f
 3610 068b 16       		.uleb128 0x16
 3611 068c 94020000 		.4byte	0x294
 3612 0690 00       		.byte	0x0
 3613 0691 12       		.uleb128 0x12
 3614 0692 04       		.byte	0x4
 3615 0693 97060000 		.4byte	0x697
 3616 0697 17       		.uleb128 0x17
 3617 0698 E60A0000 		.4byte	.LASF67
 3618 069c 2804     		.2byte	0x428
 3619 069e 0C       		.byte	0xc
 3620 069f 5A02     		.2byte	0x25a
 3621 06a1 6F090000 		.4byte	0x96f
 3622 06a5 18       		.uleb128 0x18
 3623 06a6 F0       		.byte	0xf0
 3624 06a7 0C       		.byte	0xc
 3625 06a8 7702     		.2byte	0x277
 3626 06aa 1F080000 		.4byte	0x81f
 3627 06ae 19       		.uleb128 0x19
 3628 06af D0       		.byte	0xd0
 3629 06b0 0C       		.byte	0xc
 3630 06b1 7902     		.2byte	0x279
 3631 06b3 DE070000 		.4byte	0x7de
 3632 06b7 1A       		.uleb128 0x1a
 3633 06b8 FE0F0000 		.4byte	.LASF68
ARM GAS  /tmp/ccX0J2UF.s 			page 83


 3634 06bc 0C       		.byte	0xc
 3635 06bd 7A02     		.2byte	0x27a
 3636 06bf 8D020000 		.4byte	0x28d
 3637 06c3 02       		.byte	0x2
 3638 06c4 23       		.byte	0x23
 3639 06c5 00       		.uleb128 0x0
 3640 06c6 1A       		.uleb128 0x1a
 3641 06c7 D20E0000 		.4byte	.LASF69
 3642 06cb 0C       		.byte	0xc
 3643 06cc 7B02     		.2byte	0x27b
 3644 06ce 6F090000 		.4byte	0x96f
 3645 06d2 02       		.byte	0x2
 3646 06d3 23       		.byte	0x23
 3647 06d4 04       		.uleb128 0x4
 3648 06d5 1A       		.uleb128 0x1a
 3649 06d6 C5030000 		.4byte	.LASF70
 3650 06da 0C       		.byte	0xc
 3651 06db 7C02     		.2byte	0x27c
 3652 06dd AD0A0000 		.4byte	0xaad
 3653 06e1 02       		.byte	0x2
 3654 06e2 23       		.byte	0x23
 3655 06e3 08       		.uleb128 0x8
 3656 06e4 1A       		.uleb128 0x1a
 3657 06e5 6E0C0000 		.4byte	.LASF71
 3658 06e9 0C       		.byte	0xc
 3659 06ea 7D02     		.2byte	0x27d
 3660 06ec A2030000 		.4byte	0x3a2
 3661 06f0 02       		.byte	0x2
 3662 06f1 23       		.byte	0x23
 3663 06f2 24       		.uleb128 0x24
 3664 06f3 1A       		.uleb128 0x1a
 3665 06f4 8C0A0000 		.4byte	.LASF72
 3666 06f8 0C       		.byte	0xc
 3667 06f9 7E02     		.2byte	0x27e
 3668 06fb 94020000 		.4byte	0x294
 3669 06ff 02       		.byte	0x2
 3670 0700 23       		.byte	0x23
 3671 0701 48       		.uleb128 0x48
 3672 0702 1A       		.uleb128 0x1a
 3673 0703 B30A0000 		.4byte	.LASF73
 3674 0707 0C       		.byte	0xc
 3675 0708 7F02     		.2byte	0x27f
 3676 070a 82000000 		.4byte	0x82
 3677 070e 02       		.byte	0x2
 3678 070f 23       		.byte	0x23
 3679 0710 50       		.uleb128 0x50
 3680 0711 1A       		.uleb128 0x1a
 3681 0712 F1010000 		.4byte	.LASF74
 3682 0716 0C       		.byte	0xc
 3683 0717 8002     		.2byte	0x280
 3684 0719 620A0000 		.4byte	0xa62
 3685 071d 02       		.byte	0x2
 3686 071e 23       		.byte	0x23
 3687 071f 58       		.uleb128 0x58
 3688 0720 1A       		.uleb128 0x1a
 3689 0721 A9060000 		.4byte	.LASF75
 3690 0725 0C       		.byte	0xc
ARM GAS  /tmp/ccX0J2UF.s 			page 84


 3691 0726 8102     		.2byte	0x281
 3692 0728 BD020000 		.4byte	0x2bd
 3693 072c 02       		.byte	0x2
 3694 072d 23       		.byte	0x23
 3695 072e 68       		.uleb128 0x68
 3696 072f 1A       		.uleb128 0x1a
 3697 0730 DF0E0000 		.4byte	.LASF76
 3698 0734 0C       		.byte	0xc
 3699 0735 8202     		.2byte	0x282
 3700 0737 BD020000 		.4byte	0x2bd
 3701 073b 02       		.byte	0x2
 3702 073c 23       		.byte	0x23
 3703 073d 70       		.uleb128 0x70
 3704 073e 1A       		.uleb128 0x1a
 3705 073f BC000000 		.4byte	.LASF77
 3706 0743 0C       		.byte	0xc
 3707 0744 8302     		.2byte	0x283
 3708 0746 BD020000 		.4byte	0x2bd
 3709 074a 02       		.byte	0x2
 3710 074b 23       		.byte	0x23
 3711 074c 78       		.uleb128 0x78
 3712 074d 1A       		.uleb128 0x1a
 3713 074e AE0C0000 		.4byte	.LASF78
 3714 0752 0C       		.byte	0xc
 3715 0753 8402     		.2byte	0x284
 3716 0755 BD0A0000 		.4byte	0xabd
 3717 0759 03       		.byte	0x3
 3718 075a 23       		.byte	0x23
 3719 075b 8001     		.uleb128 0x80
 3720 075d 1A       		.uleb128 0x1a
 3721 075e 12010000 		.4byte	.LASF79
 3722 0762 0C       		.byte	0xc
 3723 0763 8502     		.2byte	0x285
 3724 0765 CD0A0000 		.4byte	0xacd
 3725 0769 03       		.byte	0x3
 3726 076a 23       		.byte	0x23
 3727 076b 8801     		.uleb128 0x88
 3728 076d 1A       		.uleb128 0x1a
 3729 076e C50E0000 		.4byte	.LASF80
 3730 0772 0C       		.byte	0xc
 3731 0773 8602     		.2byte	0x286
 3732 0775 94020000 		.4byte	0x294
 3733 0779 03       		.byte	0x3
 3734 077a 23       		.byte	0x23
 3735 077b A001     		.uleb128 0xa0
 3736 077d 1A       		.uleb128 0x1a
 3737 077e FE010000 		.4byte	.LASF81
 3738 0782 0C       		.byte	0xc
 3739 0783 8702     		.2byte	0x287
 3740 0785 BD020000 		.4byte	0x2bd
 3741 0789 03       		.byte	0x3
 3742 078a 23       		.byte	0x23
 3743 078b A401     		.uleb128 0xa4
 3744 078d 1A       		.uleb128 0x1a
 3745 078e 1E070000 		.4byte	.LASF82
 3746 0792 0C       		.byte	0xc
 3747 0793 8802     		.2byte	0x288
ARM GAS  /tmp/ccX0J2UF.s 			page 85


 3748 0795 BD020000 		.4byte	0x2bd
 3749 0799 03       		.byte	0x3
 3750 079a 23       		.byte	0x23
 3751 079b AC01     		.uleb128 0xac
 3752 079d 1A       		.uleb128 0x1a
 3753 079e 51030000 		.4byte	.LASF83
 3754 07a2 0C       		.byte	0xc
 3755 07a3 8902     		.2byte	0x289
 3756 07a5 BD020000 		.4byte	0x2bd
 3757 07a9 03       		.byte	0x3
 3758 07aa 23       		.byte	0x23
 3759 07ab B401     		.uleb128 0xb4
 3760 07ad 1A       		.uleb128 0x1a
 3761 07ae 95080000 		.4byte	.LASF84
 3762 07b2 0C       		.byte	0xc
 3763 07b3 8A02     		.2byte	0x28a
 3764 07b5 BD020000 		.4byte	0x2bd
 3765 07b9 03       		.byte	0x3
 3766 07ba 23       		.byte	0x23
 3767 07bb BC01     		.uleb128 0xbc
 3768 07bd 1A       		.uleb128 0x1a
 3769 07be 98060000 		.4byte	.LASF85
 3770 07c2 0C       		.byte	0xc
 3771 07c3 8B02     		.2byte	0x28b
 3772 07c5 BD020000 		.4byte	0x2bd
 3773 07c9 03       		.byte	0x3
 3774 07ca 23       		.byte	0x23
 3775 07cb C401     		.uleb128 0xc4
 3776 07cd 1A       		.uleb128 0x1a
 3777 07ce B8090000 		.4byte	.LASF86
 3778 07d2 0C       		.byte	0xc
 3779 07d3 8C02     		.2byte	0x28c
 3780 07d5 94020000 		.4byte	0x294
 3781 07d9 03       		.byte	0x3
 3782 07da 23       		.byte	0x23
 3783 07db CC01     		.uleb128 0xcc
 3784 07dd 00       		.byte	0x0
 3785 07de 19       		.uleb128 0x19
 3786 07df F0       		.byte	0xf0
 3787 07e0 0C       		.byte	0xc
 3788 07e1 9202     		.2byte	0x292
 3789 07e3 06080000 		.4byte	0x806
 3790 07e7 1A       		.uleb128 0x1a
 3791 07e8 38030000 		.4byte	.LASF87
 3792 07ec 0C       		.byte	0xc
 3793 07ed 9402     		.2byte	0x294
 3794 07ef DD0A0000 		.4byte	0xadd
 3795 07f3 02       		.byte	0x2
 3796 07f4 23       		.byte	0x23
 3797 07f5 00       		.uleb128 0x0
 3798 07f6 1A       		.uleb128 0x1a
 3799 07f7 91100000 		.4byte	.LASF88
 3800 07fb 0C       		.byte	0xc
 3801 07fc 9502     		.2byte	0x295
 3802 07fe ED0A0000 		.4byte	0xaed
 3803 0802 02       		.byte	0x2
 3804 0803 23       		.byte	0x23
ARM GAS  /tmp/ccX0J2UF.s 			page 86


 3805 0804 78       		.uleb128 0x78
 3806 0805 00       		.byte	0x0
 3807 0806 1B       		.uleb128 0x1b
 3808 0807 E60A0000 		.4byte	.LASF67
 3809 080b 0C       		.byte	0xc
 3810 080c 8D02     		.2byte	0x28d
 3811 080e AE060000 		.4byte	0x6ae
 3812 0812 1B       		.uleb128 0x1b
 3813 0813 910C0000 		.4byte	.LASF89
 3814 0817 0C       		.byte	0xc
 3815 0818 9602     		.2byte	0x296
 3816 081a DE070000 		.4byte	0x7de
 3817 081e 00       		.byte	0x0
 3818 081f 1A       		.uleb128 0x1a
 3819 0820 7E010000 		.4byte	.LASF90
 3820 0824 0C       		.byte	0xc
 3821 0825 5B02     		.2byte	0x25b
 3822 0827 94020000 		.4byte	0x294
 3823 082b 02       		.byte	0x2
 3824 082c 23       		.byte	0x23
 3825 082d 00       		.uleb128 0x0
 3826 082e 1A       		.uleb128 0x1a
 3827 082f 46080000 		.4byte	.LASF91
 3828 0833 0C       		.byte	0xc
 3829 0834 6002     		.2byte	0x260
 3830 0836 5C0A0000 		.4byte	0xa5c
 3831 083a 02       		.byte	0x2
 3832 083b 23       		.byte	0x23
 3833 083c 04       		.uleb128 0x4
 3834 083d 1A       		.uleb128 0x1a
 3835 083e 13020000 		.4byte	.LASF92
 3836 0842 0C       		.byte	0xc
 3837 0843 6002     		.2byte	0x260
 3838 0845 5C0A0000 		.4byte	0xa5c
 3839 0849 02       		.byte	0x2
 3840 084a 23       		.byte	0x23
 3841 084b 08       		.uleb128 0x8
 3842 084c 1A       		.uleb128 0x1a
 3843 084d 89100000 		.4byte	.LASF93
 3844 0851 0C       		.byte	0xc
 3845 0852 6002     		.2byte	0x260
 3846 0854 5C0A0000 		.4byte	0xa5c
 3847 0858 02       		.byte	0x2
 3848 0859 23       		.byte	0x23
 3849 085a 0C       		.uleb128 0xc
 3850 085b 1A       		.uleb128 0x1a
 3851 085c 76050000 		.4byte	.LASF94
 3852 0860 0C       		.byte	0xc
 3853 0861 6202     		.2byte	0x262
 3854 0863 94020000 		.4byte	0x294
 3855 0867 02       		.byte	0x2
 3856 0868 23       		.byte	0x23
 3857 0869 10       		.uleb128 0x10
 3858 086a 1A       		.uleb128 0x1a
 3859 086b 97040000 		.4byte	.LASF95
 3860 086f 0C       		.byte	0xc
 3861 0870 6302     		.2byte	0x263
ARM GAS  /tmp/ccX0J2UF.s 			page 87


 3862 0872 FD0A0000 		.4byte	0xafd
 3863 0876 02       		.byte	0x2
 3864 0877 23       		.byte	0x23
 3865 0878 14       		.uleb128 0x14
 3866 0879 1A       		.uleb128 0x1a
 3867 087a B80C0000 		.4byte	.LASF96
 3868 087e 0C       		.byte	0xc
 3869 087f 6502     		.2byte	0x265
 3870 0881 94020000 		.4byte	0x294
 3871 0885 02       		.byte	0x2
 3872 0886 23       		.byte	0x23
 3873 0887 30       		.uleb128 0x30
 3874 0888 1A       		.uleb128 0x1a
 3875 0889 B50B0000 		.4byte	.LASF97
 3876 088d 0C       		.byte	0xc
 3877 088e 6602     		.2byte	0x266
 3878 0890 A0090000 		.4byte	0x9a0
 3879 0894 02       		.byte	0x2
 3880 0895 23       		.byte	0x23
 3881 0896 34       		.uleb128 0x34
 3882 0897 1A       		.uleb128 0x1a
 3883 0898 04080000 		.4byte	.LASF98
 3884 089c 0C       		.byte	0xc
 3885 089d 6802     		.2byte	0x268
 3886 089f 94020000 		.4byte	0x294
 3887 08a3 02       		.byte	0x2
 3888 08a4 23       		.byte	0x23
 3889 08a5 38       		.uleb128 0x38
 3890 08a6 1A       		.uleb128 0x1a
 3891 08a7 E7080000 		.4byte	.LASF99
 3892 08ab 0C       		.byte	0xc
 3893 08ac 6A02     		.2byte	0x26a
 3894 08ae 1E0B0000 		.4byte	0xb1e
 3895 08b2 02       		.byte	0x2
 3896 08b3 23       		.byte	0x23
 3897 08b4 3C       		.uleb128 0x3c
 3898 08b5 1A       		.uleb128 0x1a
 3899 08b6 A5020000 		.4byte	.LASF100
 3900 08ba 0C       		.byte	0xc
 3901 08bb 6D02     		.2byte	0x26d
 3902 08bd 240B0000 		.4byte	0xb24
 3903 08c1 02       		.byte	0x2
 3904 08c2 23       		.byte	0x23
 3905 08c3 40       		.uleb128 0x40
 3906 08c4 1A       		.uleb128 0x1a
 3907 08c5 71070000 		.4byte	.LASF101
 3908 08c9 0C       		.byte	0xc
 3909 08ca 6E02     		.2byte	0x26e
 3910 08cc 94020000 		.4byte	0x294
 3911 08d0 02       		.byte	0x2
 3912 08d1 23       		.byte	0x23
 3913 08d2 44       		.uleb128 0x44
 3914 08d3 1A       		.uleb128 0x1a
 3915 08d4 59060000 		.4byte	.LASF102
 3916 08d8 0C       		.byte	0xc
 3917 08d9 6F02     		.2byte	0x26f
 3918 08db 240B0000 		.4byte	0xb24
ARM GAS  /tmp/ccX0J2UF.s 			page 88


 3919 08df 02       		.byte	0x2
 3920 08e0 23       		.byte	0x23
 3921 08e1 48       		.uleb128 0x48
 3922 08e2 1A       		.uleb128 0x1a
 3923 08e3 74080000 		.4byte	.LASF103
 3924 08e7 0C       		.byte	0xc
 3925 08e8 7002     		.2byte	0x270
 3926 08ea 2A0B0000 		.4byte	0xb2a
 3927 08ee 02       		.byte	0x2
 3928 08ef 23       		.byte	0x23
 3929 08f0 4C       		.uleb128 0x4c
 3930 08f1 1A       		.uleb128 0x1a
 3931 08f2 9E0C0000 		.4byte	.LASF104
 3932 08f6 0C       		.byte	0xc
 3933 08f7 7302     		.2byte	0x273
 3934 08f9 94020000 		.4byte	0x294
 3935 08fd 02       		.byte	0x2
 3936 08fe 23       		.byte	0x23
 3937 08ff 50       		.uleb128 0x50
 3938 0900 1A       		.uleb128 0x1a
 3939 0901 55050000 		.4byte	.LASF105
 3940 0905 0C       		.byte	0xc
 3941 0906 7402     		.2byte	0x274
 3942 0908 6F090000 		.4byte	0x96f
 3943 090c 02       		.byte	0x2
 3944 090d 23       		.byte	0x23
 3945 090e 54       		.uleb128 0x54
 3946 090f 1A       		.uleb128 0x1a
 3947 0910 990C0000 		.4byte	.LASF106
 3948 0914 0C       		.byte	0xc
 3949 0915 9702     		.2byte	0x297
 3950 0917 A5060000 		.4byte	0x6a5
 3951 091b 02       		.byte	0x2
 3952 091c 23       		.byte	0x23
 3953 091d 58       		.uleb128 0x58
 3954 091e 1A       		.uleb128 0x1a
 3955 091f DE0A0000 		.4byte	.LASF44
 3956 0923 0C       		.byte	0xc
 3957 0924 9A02     		.2byte	0x29a
 3958 0926 300B0000 		.4byte	0xb30
 3959 092a 03       		.byte	0x3
 3960 092b 23       		.byte	0x23
 3961 092c C802     		.uleb128 0x148
 3962 092e 1A       		.uleb128 0x1a
 3963 092f 2D070000 		.4byte	.LASF107
 3964 0933 0C       		.byte	0xc
 3965 0934 9B02     		.2byte	0x29b
 3966 0936 86040000 		.4byte	0x486
 3967 093a 03       		.byte	0x3
 3968 093b 23       		.byte	0x23
 3969 093c CC02     		.uleb128 0x14c
 3970 093e 1A       		.uleb128 0x1a
 3971 093f 14070000 		.4byte	.LASF108
 3972 0943 0C       		.byte	0xc
 3973 0944 9E02     		.2byte	0x29e
 3974 0946 410B0000 		.4byte	0xb41
 3975 094a 03       		.byte	0x3
ARM GAS  /tmp/ccX0J2UF.s 			page 89


 3976 094b 23       		.byte	0x23
 3977 094c DC05     		.uleb128 0x2dc
 3978 094e 1A       		.uleb128 0x1a
 3979 094f BD0E0000 		.4byte	.LASF109
 3980 0953 0C       		.byte	0xc
 3981 0954 A302     		.2byte	0x2a3
 3982 0956 1B0A0000 		.4byte	0xa1b
 3983 095a 03       		.byte	0x3
 3984 095b 23       		.byte	0x23
 3985 095c E005     		.uleb128 0x2e0
 3986 095e 1A       		.uleb128 0x1a
 3987 095f 710B0000 		.4byte	.LASF110
 3988 0963 0C       		.byte	0xc
 3989 0964 A402     		.2byte	0x2a4
 3990 0966 4D0B0000 		.4byte	0xb4d
 3991 096a 03       		.byte	0x3
 3992 096b 23       		.byte	0x23
 3993 096c EC05     		.uleb128 0x2ec
 3994 096e 00       		.byte	0x0
 3995 096f 12       		.uleb128 0x12
 3996 0970 04       		.byte	0x4
 3997 0971 75090000 		.4byte	0x975
 3998 0975 03       		.uleb128 0x3
 3999 0976 01       		.byte	0x1
 4000 0977 08       		.byte	0x8
 4001 0978 F1060000 		.4byte	.LASF111
 4002 097c 12       		.uleb128 0x12
 4003 097d 04       		.byte	0x4
 4004 097e 73060000 		.4byte	0x673
 4005 0982 15       		.uleb128 0x15
 4006 0983 94020000 		.4byte	0x294
 4007 0987 A0090000 		.4byte	0x9a0
 4008 098b 16       		.uleb128 0x16
 4009 098c 91060000 		.4byte	0x691
 4010 0990 16       		.uleb128 0x16
 4011 0991 20030000 		.4byte	0x320
 4012 0995 16       		.uleb128 0x16
 4013 0996 A0090000 		.4byte	0x9a0
 4014 099a 16       		.uleb128 0x16
 4015 099b 94020000 		.4byte	0x294
 4016 099f 00       		.byte	0x0
 4017 09a0 12       		.uleb128 0x12
 4018 09a1 04       		.byte	0x4
 4019 09a2 A6090000 		.4byte	0x9a6
 4020 09a6 1C       		.uleb128 0x1c
 4021 09a7 75090000 		.4byte	0x975
 4022 09ab 12       		.uleb128 0x12
 4023 09ac 04       		.byte	0x4
 4024 09ad 82090000 		.4byte	0x982
 4025 09b1 15       		.uleb128 0x15
 4026 09b2 A6020000 		.4byte	0x2a6
 4027 09b6 CF090000 		.4byte	0x9cf
 4028 09ba 16       		.uleb128 0x16
 4029 09bb 91060000 		.4byte	0x691
 4030 09bf 16       		.uleb128 0x16
 4031 09c0 20030000 		.4byte	0x320
 4032 09c4 16       		.uleb128 0x16
ARM GAS  /tmp/ccX0J2UF.s 			page 90


 4033 09c5 A6020000 		.4byte	0x2a6
 4034 09c9 16       		.uleb128 0x16
 4035 09ca 94020000 		.4byte	0x294
 4036 09ce 00       		.byte	0x0
 4037 09cf 12       		.uleb128 0x12
 4038 09d0 04       		.byte	0x4
 4039 09d1 B1090000 		.4byte	0x9b1
 4040 09d5 15       		.uleb128 0x15
 4041 09d6 94020000 		.4byte	0x294
 4042 09da E9090000 		.4byte	0x9e9
 4043 09de 16       		.uleb128 0x16
 4044 09df 91060000 		.4byte	0x691
 4045 09e3 16       		.uleb128 0x16
 4046 09e4 20030000 		.4byte	0x320
 4047 09e8 00       		.byte	0x0
 4048 09e9 12       		.uleb128 0x12
 4049 09ea 04       		.byte	0x4
 4050 09eb D5090000 		.4byte	0x9d5
 4051 09ef 0D       		.uleb128 0xd
 4052 09f0 4D000000 		.4byte	0x4d
 4053 09f4 FF090000 		.4byte	0x9ff
 4054 09f8 0E       		.uleb128 0xe
 4055 09f9 8D020000 		.4byte	0x28d
 4056 09fd 02       		.byte	0x2
 4057 09fe 00       		.byte	0x0
 4058 09ff 0D       		.uleb128 0xd
 4059 0a00 4D000000 		.4byte	0x4d
 4060 0a04 0F0A0000 		.4byte	0xa0f
 4061 0a08 0E       		.uleb128 0xe
 4062 0a09 8D020000 		.4byte	0x28d
 4063 0a0d 00       		.byte	0x0
 4064 0a0e 00       		.byte	0x0
 4065 0a0f 08       		.uleb128 0x8
 4066 0a10 29040000 		.4byte	.LASF112
 4067 0a14 0C       		.byte	0xc
 4068 0a15 1E01     		.2byte	0x11e
 4069 0a17 19050000 		.4byte	0x519
 4070 0a1b 1D       		.uleb128 0x1d
 4071 0a1c 980E0000 		.4byte	.LASF113
 4072 0a20 0C       		.byte	0xc
 4073 0a21 0C       		.byte	0xc
 4074 0a22 2301     		.2byte	0x123
 4075 0a24 560A0000 		.4byte	0xa56
 4076 0a28 1A       		.uleb128 0x1a
 4077 0a29 D8050000 		.4byte	.LASF24
 4078 0a2d 0C       		.byte	0xc
 4079 0a2e 2401     		.2byte	0x124
 4080 0a30 560A0000 		.4byte	0xa56
 4081 0a34 02       		.byte	0x2
 4082 0a35 23       		.byte	0x23
 4083 0a36 00       		.uleb128 0x0
 4084 0a37 1A       		.uleb128 0x1a
 4085 0a38 4D0D0000 		.4byte	.LASF114
 4086 0a3c 0C       		.byte	0xc
 4087 0a3d 2501     		.2byte	0x125
 4088 0a3f 94020000 		.4byte	0x294
 4089 0a43 02       		.byte	0x2
ARM GAS  /tmp/ccX0J2UF.s 			page 91


 4090 0a44 23       		.byte	0x23
 4091 0a45 04       		.uleb128 0x4
 4092 0a46 1A       		.uleb128 0x1a
 4093 0a47 9A100000 		.4byte	.LASF115
 4094 0a4b 0C       		.byte	0xc
 4095 0a4c 2601     		.2byte	0x126
 4096 0a4e 5C0A0000 		.4byte	0xa5c
 4097 0a52 02       		.byte	0x2
 4098 0a53 23       		.byte	0x23
 4099 0a54 08       		.uleb128 0x8
 4100 0a55 00       		.byte	0x0
 4101 0a56 12       		.uleb128 0x12
 4102 0a57 04       		.byte	0x4
 4103 0a58 1B0A0000 		.4byte	0xa1b
 4104 0a5c 12       		.uleb128 0x12
 4105 0a5d 04       		.byte	0x4
 4106 0a5e 0F0A0000 		.4byte	0xa0f
 4107 0a62 1D       		.uleb128 0x1d
 4108 0a63 F2030000 		.4byte	.LASF116
 4109 0a67 0E       		.byte	0xe
 4110 0a68 0C       		.byte	0xc
 4111 0a69 3E01     		.2byte	0x13e
 4112 0a6b 9D0A0000 		.4byte	0xa9d
 4113 0a6f 1A       		.uleb128 0x1a
 4114 0a70 6D100000 		.4byte	.LASF117
 4115 0a74 0C       		.byte	0xc
 4116 0a75 3F01     		.2byte	0x13f
 4117 0a77 9D0A0000 		.4byte	0xa9d
 4118 0a7b 02       		.byte	0x2
 4119 0a7c 23       		.byte	0x23
 4120 0a7d 00       		.uleb128 0x0
 4121 0a7e 1A       		.uleb128 0x1a
 4122 0a7f 7E080000 		.4byte	.LASF118
 4123 0a83 0C       		.byte	0xc
 4124 0a84 4001     		.2byte	0x140
 4125 0a86 9D0A0000 		.4byte	0xa9d
 4126 0a8a 02       		.byte	0x2
 4127 0a8b 23       		.byte	0x23
 4128 0a8c 06       		.uleb128 0x6
 4129 0a8d 1A       		.uleb128 0x1a
 4130 0a8e 84080000 		.4byte	.LASF119
 4131 0a92 0C       		.byte	0xc
 4132 0a93 4101     		.2byte	0x141
 4133 0a95 5B000000 		.4byte	0x5b
 4134 0a99 02       		.byte	0x2
 4135 0a9a 23       		.byte	0x23
 4136 0a9b 0C       		.uleb128 0xc
 4137 0a9c 00       		.byte	0x0
 4138 0a9d 0D       		.uleb128 0xd
 4139 0a9e 5B000000 		.4byte	0x5b
 4140 0aa2 AD0A0000 		.4byte	0xaad
 4141 0aa6 0E       		.uleb128 0xe
 4142 0aa7 8D020000 		.4byte	0x28d
 4143 0aab 02       		.byte	0x2
 4144 0aac 00       		.byte	0x0
 4145 0aad 0D       		.uleb128 0xd
 4146 0aae 75090000 		.4byte	0x975
ARM GAS  /tmp/ccX0J2UF.s 			page 92


 4147 0ab2 BD0A0000 		.4byte	0xabd
 4148 0ab6 0E       		.uleb128 0xe
 4149 0ab7 8D020000 		.4byte	0x28d
 4150 0abb 19       		.byte	0x19
 4151 0abc 00       		.byte	0x0
 4152 0abd 0D       		.uleb128 0xd
 4153 0abe 75090000 		.4byte	0x975
 4154 0ac2 CD0A0000 		.4byte	0xacd
 4155 0ac6 0E       		.uleb128 0xe
 4156 0ac7 8D020000 		.4byte	0x28d
 4157 0acb 07       		.byte	0x7
 4158 0acc 00       		.byte	0x0
 4159 0acd 0D       		.uleb128 0xd
 4160 0ace 75090000 		.4byte	0x975
 4161 0ad2 DD0A0000 		.4byte	0xadd
 4162 0ad6 0E       		.uleb128 0xe
 4163 0ad7 8D020000 		.4byte	0x28d
 4164 0adb 17       		.byte	0x17
 4165 0adc 00       		.byte	0x0
 4166 0add 0D       		.uleb128 0xd
 4167 0ade 13050000 		.4byte	0x513
 4168 0ae2 ED0A0000 		.4byte	0xaed
 4169 0ae6 0E       		.uleb128 0xe
 4170 0ae7 8D020000 		.4byte	0x28d
 4171 0aeb 1D       		.byte	0x1d
 4172 0aec 00       		.byte	0x0
 4173 0aed 0D       		.uleb128 0xd
 4174 0aee 8D020000 		.4byte	0x28d
 4175 0af2 FD0A0000 		.4byte	0xafd
 4176 0af6 0E       		.uleb128 0xe
 4177 0af7 8D020000 		.4byte	0x28d
 4178 0afb 1D       		.byte	0x1d
 4179 0afc 00       		.byte	0x0
 4180 0afd 0D       		.uleb128 0xd
 4181 0afe 75090000 		.4byte	0x975
 4182 0b02 0D0B0000 		.4byte	0xb0d
 4183 0b06 0E       		.uleb128 0xe
 4184 0b07 8D020000 		.4byte	0x28d
 4185 0b0b 18       		.byte	0x18
 4186 0b0c 00       		.byte	0x0
 4187 0b0d 1E       		.uleb128 0x1e
 4188 0b0e 180B0000 		.4byte	0xb18
 4189 0b12 16       		.uleb128 0x16
 4190 0b13 180B0000 		.4byte	0xb18
 4191 0b17 00       		.byte	0x0
 4192 0b18 12       		.uleb128 0x12
 4193 0b19 04       		.byte	0x4
 4194 0b1a 97060000 		.4byte	0x697
 4195 0b1e 12       		.uleb128 0x12
 4196 0b1f 04       		.byte	0x4
 4197 0b20 0D0B0000 		.4byte	0xb0d
 4198 0b24 12       		.uleb128 0x12
 4199 0b25 04       		.byte	0x4
 4200 0b26 2D030000 		.4byte	0x32d
 4201 0b2a 12       		.uleb128 0x12
 4202 0b2b 04       		.byte	0x4
 4203 0b2c 240B0000 		.4byte	0xb24
ARM GAS  /tmp/ccX0J2UF.s 			page 93


 4204 0b30 12       		.uleb128 0x12
 4205 0b31 04       		.byte	0x4
 4206 0b32 86040000 		.4byte	0x486
 4207 0b36 1E       		.uleb128 0x1e
 4208 0b37 410B0000 		.4byte	0xb41
 4209 0b3b 16       		.uleb128 0x16
 4210 0b3c 94020000 		.4byte	0x294
 4211 0b40 00       		.byte	0x0
 4212 0b41 12       		.uleb128 0x12
 4213 0b42 04       		.byte	0x4
 4214 0b43 470B0000 		.4byte	0xb47
 4215 0b47 12       		.uleb128 0x12
 4216 0b48 04       		.byte	0x4
 4217 0b49 360B0000 		.4byte	0xb36
 4218 0b4d 0D       		.uleb128 0xd
 4219 0b4e 19050000 		.4byte	0x519
 4220 0b52 5D0B0000 		.4byte	0xb5d
 4221 0b56 0E       		.uleb128 0xe
 4222 0b57 8D020000 		.4byte	0x28d
 4223 0b5b 02       		.byte	0x2
 4224 0b5c 00       		.byte	0x0
 4225 0b5d 03       		.uleb128 0x3
 4226 0b5e 08       		.byte	0x8
 4227 0b5f 04       		.byte	0x4
 4228 0b60 630A0000 		.4byte	.LASF120
 4229 0b64 02       		.uleb128 0x2
 4230 0b65 03090000 		.4byte	.LASF121
 4231 0b69 0B       		.byte	0xb
 4232 0b6a 95       		.byte	0x95
 4233 0b6b 94020000 		.4byte	0x294
 4234 0b6f 02       		.uleb128 0x2
 4235 0b70 05050000 		.4byte	.LASF122
 4236 0b74 0B       		.byte	0xb
 4237 0b75 D3       		.byte	0xd3
 4238 0b76 8D020000 		.4byte	0x28d
 4239 0b7a 02       		.uleb128 0x2
 4240 0b7b E4040000 		.4byte	.LASF123
 4241 0b7f 0D       		.byte	0xd
 4242 0b80 28       		.byte	0x28
 4243 0b81 850B0000 		.4byte	0xb85
 4244 0b85 10       		.uleb128 0x10
 4245 0b86 230D0000 		.4byte	.LASF124
 4246 0b8a 04       		.byte	0x4
 4247 0b8b 0E       		.byte	0xe
 4248 0b8c 00       		.byte	0x0
 4249 0b8d 9F0B0000 		.4byte	0xb9f
 4250 0b91 1F       		.uleb128 0x1f
 4251 0b92 A9080000 		.4byte	.LASF125
 4252 0b96 20030000 		.4byte	0x320
 4253 0b9a 02       		.byte	0x2
 4254 0b9b 23       		.byte	0x23
 4255 0b9c 00       		.uleb128 0x0
 4256 0b9d 01       		.byte	0x1
 4257 0b9e 00       		.byte	0x0
 4258 0b9f 02       		.uleb128 0x2
 4259 0ba0 6D040000 		.4byte	.LASF126
 4260 0ba4 0F       		.byte	0xf
ARM GAS  /tmp/ccX0J2UF.s 			page 94


 4261 0ba5 68       		.byte	0x68
 4262 0ba6 74000000 		.4byte	0x74
 4263 0baa 02       		.uleb128 0x2
 4264 0bab E5070000 		.4byte	.LASF127
 4265 0baf 0F       		.byte	0xf
 4266 0bb0 6D       		.byte	0x6d
 4267 0bb1 62000000 		.4byte	0x62
 4268 0bb5 02       		.uleb128 0x2
 4269 0bb6 26100000 		.4byte	.LASF128
 4270 0bba 10       		.byte	0x10
 4271 0bbb 32       		.byte	0x32
 4272 0bbc 0F0A0000 		.4byte	0xa0f
 4273 0bc0 02       		.uleb128 0x2
 4274 0bc1 E0020000 		.4byte	.LASF129
 4275 0bc5 10       		.byte	0x10
 4276 0bc6 37       		.byte	0x37
 4277 0bc7 A6020000 		.4byte	0x2a6
 4278 0bcb 20       		.uleb128 0x20
 4279 0bcc 01       		.byte	0x1
 4280 0bcd DE050000 		.4byte	.LASF145
 4281 0bd1 10       		.byte	0x10
 4282 0bd2 0001     		.2byte	0x100
 4283 0bd4 01       		.byte	0x1
 4284 0bd5 DF0B0000 		.4byte	0xbdf
 4285 0bd9 16       		.uleb128 0x16
 4286 0bda DF0B0000 		.4byte	0xbdf
 4287 0bde 00       		.byte	0x0
 4288 0bdf 12       		.uleb128 0x12
 4289 0be0 04       		.byte	0x4
 4290 0be1 B50B0000 		.4byte	0xbb5
 4291 0be5 21       		.uleb128 0x21
 4292 0be6 01       		.byte	0x1
 4293 0be7 E7050000 		.4byte	.LASF130
 4294 0beb 10       		.byte	0x10
 4295 0bec D2       		.byte	0xd2
 4296 0bed 94020000 		.4byte	0x294
 4297 0bf1 01       		.byte	0x1
 4298 0bf2 FC0B0000 		.4byte	0xbfc
 4299 0bf6 16       		.uleb128 0x16
 4300 0bf7 DF0B0000 		.4byte	0xbdf
 4301 0bfb 00       		.byte	0x0
 4302 0bfc 22       		.uleb128 0x22
 4303 0bfd 01       		.byte	0x1
 4304 0bfe 4E0E0000 		.4byte	.LASF131
 4305 0c02 10       		.byte	0x10
 4306 0c03 0101     		.2byte	0x101
 4307 0c05 94020000 		.4byte	0x294
 4308 0c09 01       		.byte	0x1
 4309 0c0a 140C0000 		.4byte	0xc14
 4310 0c0e 16       		.uleb128 0x16
 4311 0c0f DF0B0000 		.4byte	0xbdf
 4312 0c13 00       		.byte	0x0
 4313 0c14 22       		.uleb128 0x22
 4314 0c15 01       		.byte	0x1
 4315 0c16 8A0C0000 		.4byte	.LASF132
 4316 0c1a 10       		.byte	0x10
 4317 0c1b 0201     		.2byte	0x102
ARM GAS  /tmp/ccX0J2UF.s 			page 95


 4318 0c1d 94020000 		.4byte	0x294
 4319 0c21 01       		.byte	0x1
 4320 0c22 2C0C0000 		.4byte	0xc2c
 4321 0c26 16       		.uleb128 0x16
 4322 0c27 DF0B0000 		.4byte	0xbdf
 4323 0c2b 00       		.byte	0x0
 4324 0c2c 21       		.uleb128 0x21
 4325 0c2d 01       		.byte	0x1
 4326 0c2e FC080000 		.4byte	.LASF133
 4327 0c32 10       		.byte	0x10
 4328 0c33 D3       		.byte	0xd3
 4329 0c34 94020000 		.4byte	0x294
 4330 0c38 01       		.byte	0x1
 4331 0c39 430C0000 		.4byte	0xc43
 4332 0c3d 16       		.uleb128 0x16
 4333 0c3e DF0B0000 		.4byte	0xbdf
 4334 0c42 00       		.byte	0x0
 4335 0c43 21       		.uleb128 0x21
 4336 0c44 01       		.byte	0x1
 4337 0c45 E5090000 		.4byte	.LASF134
 4338 0c49 10       		.byte	0x10
 4339 0c4a E7       		.byte	0xe7
 4340 0c4b 94020000 		.4byte	0x294
 4341 0c4f 01       		.byte	0x1
 4342 0c50 5A0C0000 		.4byte	0xc5a
 4343 0c54 16       		.uleb128 0x16
 4344 0c55 DF0B0000 		.4byte	0xbdf
 4345 0c59 00       		.byte	0x0
 4346 0c5a 21       		.uleb128 0x21
 4347 0c5b 01       		.byte	0x1
 4348 0c5c A00F0000 		.4byte	.LASF135
 4349 0c60 10       		.byte	0x10
 4350 0c61 F9       		.byte	0xf9
 4351 0c62 94020000 		.4byte	0x294
 4352 0c66 01       		.byte	0x1
 4353 0c67 760C0000 		.4byte	0xc76
 4354 0c6b 16       		.uleb128 0x16
 4355 0c6c DF0B0000 		.4byte	0xbdf
 4356 0c70 16       		.uleb128 0x16
 4357 0c71 760C0000 		.4byte	0xc76
 4358 0c75 00       		.byte	0x0
 4359 0c76 12       		.uleb128 0x12
 4360 0c77 04       		.byte	0x4
 4361 0c78 C00B0000 		.4byte	0xbc0
 4362 0c7c 21       		.uleb128 0x21
 4363 0c7d 01       		.byte	0x1
 4364 0c7e 130A0000 		.4byte	.LASF136
 4365 0c82 10       		.byte	0x10
 4366 0c83 E8       		.byte	0xe8
 4367 0c84 6F090000 		.4byte	0x96f
 4368 0c88 01       		.byte	0x1
 4369 0c89 9D0C0000 		.4byte	0xc9d
 4370 0c8d 16       		.uleb128 0x16
 4371 0c8e 6F090000 		.4byte	0x96f
 4372 0c92 16       		.uleb128 0x16
 4373 0c93 94020000 		.4byte	0x294
 4374 0c97 16       		.uleb128 0x16
ARM GAS  /tmp/ccX0J2UF.s 			page 96


 4375 0c98 DF0B0000 		.4byte	0xbdf
 4376 0c9c 00       		.byte	0x0
 4377 0c9d 22       		.uleb128 0x22
 4378 0c9e 01       		.byte	0x1
 4379 0c9f F7090000 		.4byte	.LASF137
 4380 0ca3 10       		.byte	0x10
 4381 0ca4 0501     		.2byte	0x105
 4382 0ca6 DF0B0000 		.4byte	0xbdf
 4383 0caa 01       		.byte	0x1
 4384 0cab BA0C0000 		.4byte	0xcba
 4385 0caf 16       		.uleb128 0x16
 4386 0cb0 A0090000 		.4byte	0x9a0
 4387 0cb4 16       		.uleb128 0x16
 4388 0cb5 A0090000 		.4byte	0x9a0
 4389 0cb9 00       		.byte	0x0
 4390 0cba 21       		.uleb128 0x21
 4391 0cbb 01       		.byte	0x1
 4392 0cbc 5F0B0000 		.4byte	.LASF138
 4393 0cc0 10       		.byte	0x10
 4394 0cc1 F2       		.byte	0xf2
 4395 0cc2 6F0B0000 		.4byte	0xb6f
 4396 0cc6 01       		.byte	0x1
 4397 0cc7 E00C0000 		.4byte	0xce0
 4398 0ccb 16       		.uleb128 0x16
 4399 0ccc 20030000 		.4byte	0x320
 4400 0cd0 16       		.uleb128 0x16
 4401 0cd1 6F0B0000 		.4byte	0xb6f
 4402 0cd5 16       		.uleb128 0x16
 4403 0cd6 6F0B0000 		.4byte	0xb6f
 4404 0cda 16       		.uleb128 0x16
 4405 0cdb DF0B0000 		.4byte	0xbdf
 4406 0cdf 00       		.byte	0x0
 4407 0ce0 21       		.uleb128 0x21
 4408 0ce1 01       		.byte	0x1
 4409 0ce2 21060000 		.4byte	.LASF139
 4410 0ce6 10       		.byte	0x10
 4411 0ce7 D4       		.byte	0xd4
 4412 0ce8 DF0B0000 		.4byte	0xbdf
 4413 0cec 01       		.byte	0x1
 4414 0ced 010D0000 		.4byte	0xd01
 4415 0cf1 16       		.uleb128 0x16
 4416 0cf2 A0090000 		.4byte	0x9a0
 4417 0cf6 16       		.uleb128 0x16
 4418 0cf7 A0090000 		.4byte	0x9a0
 4419 0cfb 16       		.uleb128 0x16
 4420 0cfc DF0B0000 		.4byte	0xbdf
 4421 0d00 00       		.byte	0x0
 4422 0d01 21       		.uleb128 0x21
 4423 0d02 01       		.byte	0x1
 4424 0d03 CF080000 		.4byte	.LASF140
 4425 0d07 10       		.byte	0x10
 4426 0d08 FD       		.byte	0xfd
 4427 0d09 94020000 		.4byte	0x294
 4428 0d0d 01       		.byte	0x1
 4429 0d0e 220D0000 		.4byte	0xd22
 4430 0d12 16       		.uleb128 0x16
 4431 0d13 DF0B0000 		.4byte	0xbdf
ARM GAS  /tmp/ccX0J2UF.s 			page 97


 4432 0d17 16       		.uleb128 0x16
 4433 0d18 62000000 		.4byte	0x62
 4434 0d1c 16       		.uleb128 0x16
 4435 0d1d 94020000 		.4byte	0x294
 4436 0d21 00       		.byte	0x0
 4437 0d22 21       		.uleb128 0x21
 4438 0d23 01       		.byte	0x1
 4439 0d24 55090000 		.4byte	.LASF141
 4440 0d28 10       		.byte	0x10
 4441 0d29 FA       		.byte	0xfa
 4442 0d2a 94020000 		.4byte	0x294
 4443 0d2e 01       		.byte	0x1
 4444 0d2f 3E0D0000 		.4byte	0xd3e
 4445 0d33 16       		.uleb128 0x16
 4446 0d34 DF0B0000 		.4byte	0xbdf
 4447 0d38 16       		.uleb128 0x16
 4448 0d39 3E0D0000 		.4byte	0xd3e
 4449 0d3d 00       		.byte	0x0
 4450 0d3e 12       		.uleb128 0x12
 4451 0d3f 04       		.byte	0x4
 4452 0d40 440D0000 		.4byte	0xd44
 4453 0d44 1C       		.uleb128 0x1c
 4454 0d45 C00B0000 		.4byte	0xbc0
 4455 0d49 21       		.uleb128 0x21
 4456 0d4a 01       		.byte	0x1
 4457 0d4b 8B090000 		.4byte	.LASF142
 4458 0d4f 10       		.byte	0x10
 4459 0d50 FE       		.byte	0xfe
 4460 0d51 62000000 		.4byte	0x62
 4461 0d55 01       		.byte	0x1
 4462 0d56 600D0000 		.4byte	0xd60
 4463 0d5a 16       		.uleb128 0x16
 4464 0d5b DF0B0000 		.4byte	0xbdf
 4465 0d5f 00       		.byte	0x0
 4466 0d60 21       		.uleb128 0x21
 4467 0d61 01       		.byte	0x1
 4468 0d62 6B000000 		.4byte	.LASF143
 4469 0d66 10       		.byte	0x10
 4470 0d67 EB       		.byte	0xeb
 4471 0d68 94020000 		.4byte	0x294
 4472 0d6c 01       		.byte	0x1
 4473 0d6d 770D0000 		.4byte	0xd77
 4474 0d71 16       		.uleb128 0x16
 4475 0d72 DF0B0000 		.4byte	0xbdf
 4476 0d76 00       		.byte	0x0
 4477 0d77 23       		.uleb128 0x23
 4478 0d78 01       		.byte	0x1
 4479 0d79 2E080000 		.4byte	.LASF152
 4480 0d7d 10       		.byte	0x10
 4481 0d7e EC       		.byte	0xec
 4482 0d7f 94020000 		.4byte	0x294
 4483 0d83 01       		.byte	0x1
 4484 0d84 21       		.uleb128 0x21
 4485 0d85 01       		.byte	0x1
 4486 0d86 CA000000 		.4byte	.LASF144
 4487 0d8a 10       		.byte	0x10
 4488 0d8b ED       		.byte	0xed
ARM GAS  /tmp/ccX0J2UF.s 			page 98


 4489 0d8c 6F090000 		.4byte	0x96f
 4490 0d90 01       		.byte	0x1
 4491 0d91 9B0D0000 		.4byte	0xd9b
 4492 0d95 16       		.uleb128 0x16
 4493 0d96 6F090000 		.4byte	0x96f
 4494 0d9a 00       		.byte	0x0
 4495 0d9b 20       		.uleb128 0x20
 4496 0d9c 01       		.byte	0x1
 4497 0d9d 5B080000 		.4byte	.LASF146
 4498 0da1 10       		.byte	0x10
 4499 0da2 0301     		.2byte	0x103
 4500 0da4 01       		.byte	0x1
 4501 0da5 AF0D0000 		.4byte	0xdaf
 4502 0da9 16       		.uleb128 0x16
 4503 0daa A0090000 		.4byte	0x9a0
 4504 0dae 00       		.byte	0x0
 4505 0daf 22       		.uleb128 0x22
 4506 0db0 01       		.byte	0x1
 4507 0db1 96000000 		.4byte	.LASF147
 4508 0db5 10       		.byte	0x10
 4509 0db6 0801     		.2byte	0x108
 4510 0db8 94020000 		.4byte	0x294
 4511 0dbc 01       		.byte	0x1
 4512 0dbd C70D0000 		.4byte	0xdc7
 4513 0dc1 16       		.uleb128 0x16
 4514 0dc2 A0090000 		.4byte	0x9a0
 4515 0dc6 00       		.byte	0x0
 4516 0dc7 22       		.uleb128 0x22
 4517 0dc8 01       		.byte	0x1
 4518 0dc9 0F080000 		.4byte	.LASF148
 4519 0dcd 10       		.byte	0x10
 4520 0dce 0901     		.2byte	0x109
 4521 0dd0 94020000 		.4byte	0x294
 4522 0dd4 01       		.byte	0x1
 4523 0dd5 E40D0000 		.4byte	0xde4
 4524 0dd9 16       		.uleb128 0x16
 4525 0dda A0090000 		.4byte	0x9a0
 4526 0dde 16       		.uleb128 0x16
 4527 0ddf A0090000 		.4byte	0x9a0
 4528 0de3 00       		.byte	0x0
 4529 0de4 24       		.uleb128 0x24
 4530 0de5 01       		.byte	0x1
 4531 0de6 ED0E0000 		.4byte	.LASF149
 4532 0dea 10       		.byte	0x10
 4533 0deb FF       		.byte	0xff
 4534 0dec 01       		.byte	0x1
 4535 0ded F70D0000 		.4byte	0xdf7
 4536 0df1 16       		.uleb128 0x16
 4537 0df2 DF0B0000 		.4byte	0xbdf
 4538 0df6 00       		.byte	0x0
 4539 0df7 24       		.uleb128 0x24
 4540 0df8 01       		.byte	0x1
 4541 0df9 54080000 		.4byte	.LASF150
 4542 0dfd 10       		.byte	0x10
 4543 0dfe D5       		.byte	0xd5
 4544 0dff 01       		.byte	0x1
 4545 0e00 0F0E0000 		.4byte	0xe0f
ARM GAS  /tmp/ccX0J2UF.s 			page 99


 4546 0e04 16       		.uleb128 0x16
 4547 0e05 DF0B0000 		.4byte	0xbdf
 4548 0e09 16       		.uleb128 0x16
 4549 0e0a 6F090000 		.4byte	0x96f
 4550 0e0e 00       		.byte	0x0
 4551 0e0f 21       		.uleb128 0x21
 4552 0e10 01       		.byte	0x1
 4553 0e11 78000000 		.4byte	.LASF151
 4554 0e15 10       		.byte	0x10
 4555 0e16 D6       		.byte	0xd6
 4556 0e17 94020000 		.4byte	0x294
 4557 0e1b 01       		.byte	0x1
 4558 0e1c 350E0000 		.4byte	0xe35
 4559 0e20 16       		.uleb128 0x16
 4560 0e21 DF0B0000 		.4byte	0xbdf
 4561 0e25 16       		.uleb128 0x16
 4562 0e26 6F090000 		.4byte	0x96f
 4563 0e2a 16       		.uleb128 0x16
 4564 0e2b 94020000 		.4byte	0x294
 4565 0e2f 16       		.uleb128 0x16
 4566 0e30 6F0B0000 		.4byte	0xb6f
 4567 0e34 00       		.byte	0x0
 4568 0e35 23       		.uleb128 0x23
 4569 0e36 01       		.byte	0x1
 4570 0e37 0D0E0000 		.4byte	.LASF153
 4571 0e3b 10       		.byte	0x10
 4572 0e3c D0       		.byte	0xd0
 4573 0e3d DF0B0000 		.4byte	0xbdf
 4574 0e41 01       		.byte	0x1
 4575 0e42 21       		.uleb128 0x21
 4576 0e43 01       		.byte	0x1
 4577 0e44 4D080000 		.4byte	.LASF154
 4578 0e48 10       		.byte	0x10
 4579 0e49 D1       		.byte	0xd1
 4580 0e4a 6F090000 		.4byte	0x96f
 4581 0e4e 01       		.byte	0x1
 4582 0e4f 590E0000 		.4byte	0xe59
 4583 0e53 16       		.uleb128 0x16
 4584 0e54 6F090000 		.4byte	0x96f
 4585 0e58 00       		.byte	0x0
 4586 0e59 21       		.uleb128 0x21
 4587 0e5a 01       		.byte	0x1
 4588 0e5b 0C020000 		.4byte	.LASF155
 4589 0e5f 10       		.byte	0x10
 4590 0e60 F1       		.byte	0xf1
 4591 0e61 94020000 		.4byte	0x294
 4592 0e65 01       		.byte	0x1
 4593 0e66 750E0000 		.4byte	0xe75
 4594 0e6a 16       		.uleb128 0x16
 4595 0e6b 94020000 		.4byte	0x294
 4596 0e6f 16       		.uleb128 0x16
 4597 0e70 DF0B0000 		.4byte	0xbdf
 4598 0e74 00       		.byte	0x0
 4599 0e75 21       		.uleb128 0x21
 4600 0e76 01       		.byte	0x1
 4601 0e77 51060000 		.4byte	.LASF156
 4602 0e7b 11       		.byte	0x11
ARM GAS  /tmp/ccX0J2UF.s 			page 100


 4603 0e7c 1E       		.byte	0x1e
 4604 0e7d 94020000 		.4byte	0x294
 4605 0e81 01       		.byte	0x1
 4606 0e82 910E0000 		.4byte	0xe91
 4607 0e86 16       		.uleb128 0x16
 4608 0e87 A0090000 		.4byte	0x9a0
 4609 0e8b 16       		.uleb128 0x16
 4610 0e8c A0090000 		.4byte	0x9a0
 4611 0e90 00       		.byte	0x0
 4612 0e91 21       		.uleb128 0x21
 4613 0e92 01       		.byte	0x1
 4614 0e93 99010000 		.4byte	.LASF157
 4615 0e97 11       		.byte	0x11
 4616 0e98 21       		.byte	0x21
 4617 0e99 6F090000 		.4byte	0x96f
 4618 0e9d 01       		.byte	0x1
 4619 0e9e A80E0000 		.4byte	0xea8
 4620 0ea2 16       		.uleb128 0x16
 4621 0ea3 94020000 		.4byte	0x294
 4622 0ea7 00       		.byte	0x0
 4623 0ea8 21       		.uleb128 0x21
 4624 0ea9 01       		.byte	0x1
 4625 0eaa 5D050000 		.4byte	.LASF158
 4626 0eae 11       		.byte	0x11
 4627 0eaf 2C       		.byte	0x2c
 4628 0eb0 6F090000 		.4byte	0x96f
 4629 0eb4 01       		.byte	0x1
 4630 0eb5 C40E0000 		.4byte	0xec4
 4631 0eb9 16       		.uleb128 0x16
 4632 0eba 6F090000 		.4byte	0x96f
 4633 0ebe 16       		.uleb128 0x16
 4634 0ebf A0090000 		.4byte	0x9a0
 4635 0ec3 00       		.byte	0x0
 4636 0ec4 21       		.uleb128 0x21
 4637 0ec5 01       		.byte	0x1
 4638 0ec6 0C070000 		.4byte	.LASF159
 4639 0eca 11       		.byte	0x11
 4640 0ecb 2F       		.byte	0x2f
 4641 0ecc 6F0B0000 		.4byte	0xb6f
 4642 0ed0 01       		.byte	0x1
 4643 0ed1 E50E0000 		.4byte	0xee5
 4644 0ed5 16       		.uleb128 0x16
 4645 0ed6 6F090000 		.4byte	0x96f
 4646 0eda 16       		.uleb128 0x16
 4647 0edb A0090000 		.4byte	0x9a0
 4648 0edf 16       		.uleb128 0x16
 4649 0ee0 6F0B0000 		.4byte	0xb6f
 4650 0ee4 00       		.byte	0x0
 4651 0ee5 09       		.uleb128 0x9
 4652 0ee6 08       		.byte	0x8
 4653 0ee7 12       		.byte	0x12
 4654 0ee8 23       		.byte	0x23
 4655 0ee9 890E0000 		.4byte	.LASF161
 4656 0eed 0E0F0000 		.4byte	0xf0e
 4657 0ef1 0C       		.uleb128 0xc
 4658 0ef2 E0070000 		.4byte	.LASF162
 4659 0ef6 12       		.byte	0x12
ARM GAS  /tmp/ccX0J2UF.s 			page 101


 4660 0ef7 24       		.byte	0x24
 4661 0ef8 94020000 		.4byte	0x294
 4662 0efc 02       		.byte	0x2
 4663 0efd 23       		.byte	0x23
 4664 0efe 00       		.uleb128 0x0
 4665 0eff 11       		.uleb128 0x11
 4666 0f00 72656D00 		.ascii	"rem\000"
 4667 0f04 12       		.byte	0x12
 4668 0f05 25       		.byte	0x25
 4669 0f06 94020000 		.4byte	0x294
 4670 0f0a 02       		.byte	0x2
 4671 0f0b 23       		.byte	0x23
 4672 0f0c 04       		.uleb128 0x4
 4673 0f0d 00       		.byte	0x0
 4674 0f0e 09       		.uleb128 0x9
 4675 0f0f 08       		.byte	0x8
 4676 0f10 12       		.byte	0x12
 4677 0f11 29       		.byte	0x29
 4678 0f12 670C0000 		.4byte	.LASF163
 4679 0f16 370F0000 		.4byte	0xf37
 4680 0f1a 0C       		.uleb128 0xc
 4681 0f1b E0070000 		.4byte	.LASF162
 4682 0f1f 12       		.byte	0x12
 4683 0f20 2A       		.byte	0x2a
 4684 0f21 62000000 		.4byte	0x62
 4685 0f25 02       		.byte	0x2
 4686 0f26 23       		.byte	0x23
 4687 0f27 00       		.uleb128 0x0
 4688 0f28 11       		.uleb128 0x11
 4689 0f29 72656D00 		.ascii	"rem\000"
 4690 0f2d 12       		.byte	0x12
 4691 0f2e 2B       		.byte	0x2b
 4692 0f2f 62000000 		.4byte	0x62
 4693 0f33 02       		.byte	0x2
 4694 0f34 23       		.byte	0x23
 4695 0f35 04       		.uleb128 0x4
 4696 0f36 00       		.byte	0x0
 4697 0f37 21       		.uleb128 0x21
 4698 0f38 01       		.byte	0x1
 4699 0f39 760B0000 		.4byte	.LASF164
 4700 0f3d 12       		.byte	0x12
 4701 0f3e 4A       		.byte	0x4a
 4702 0f3f 94020000 		.4byte	0x294
 4703 0f43 01       		.byte	0x1
 4704 0f44 4E0F0000 		.4byte	0xf4e
 4705 0f48 16       		.uleb128 0x16
 4706 0f49 E4040000 		.4byte	0x4e4
 4707 0f4d 00       		.byte	0x0
 4708 0f4e 21       		.uleb128 0x21
 4709 0f4f 01       		.byte	0x1
 4710 0f50 2F000000 		.4byte	.LASF165
 4711 0f54 12       		.byte	0x12
 4712 0f55 4B       		.byte	0x4b
 4713 0f56 90000000 		.4byte	0x90
 4714 0f5a 01       		.byte	0x1
 4715 0f5b 650F0000 		.4byte	0xf65
 4716 0f5f 16       		.uleb128 0x16
ARM GAS  /tmp/ccX0J2UF.s 			page 102


 4717 0f60 A0090000 		.4byte	0x9a0
 4718 0f64 00       		.byte	0x0
 4719 0f65 21       		.uleb128 0x21
 4720 0f66 01       		.byte	0x1
 4721 0f67 570F0000 		.4byte	.LASF166
 4722 0f6b 12       		.byte	0x12
 4723 0f6c 4F       		.byte	0x4f
 4724 0f6d 94020000 		.4byte	0x294
 4725 0f71 01       		.byte	0x1
 4726 0f72 7C0F0000 		.4byte	0xf7c
 4727 0f76 16       		.uleb128 0x16
 4728 0f77 A0090000 		.4byte	0x9a0
 4729 0f7b 00       		.byte	0x0
 4730 0f7c 21       		.uleb128 0x21
 4731 0f7d 01       		.byte	0x1
 4732 0f7e 66000000 		.4byte	.LASF167
 4733 0f82 12       		.byte	0x12
 4734 0f83 51       		.byte	0x51
 4735 0f84 62000000 		.4byte	0x62
 4736 0f88 01       		.byte	0x1
 4737 0f89 930F0000 		.4byte	0xf93
 4738 0f8d 16       		.uleb128 0x16
 4739 0f8e A0090000 		.4byte	0x9a0
 4740 0f92 00       		.byte	0x0
 4741 0f93 21       		.uleb128 0x21
 4742 0f94 01       		.byte	0x1
 4743 0f95 8D050000 		.4byte	.LASF168
 4744 0f99 12       		.byte	0x12
 4745 0f9a 53       		.byte	0x53
 4746 0f9b 20030000 		.4byte	0x320
 4747 0f9f 01       		.byte	0x1
 4748 0fa0 BE0F0000 		.4byte	0xfbe
 4749 0fa4 16       		.uleb128 0x16
 4750 0fa5 BE0F0000 		.4byte	0xfbe
 4751 0fa9 16       		.uleb128 0x16
 4752 0faa BE0F0000 		.4byte	0xfbe
 4753 0fae 16       		.uleb128 0x16
 4754 0faf 6F0B0000 		.4byte	0xb6f
 4755 0fb3 16       		.uleb128 0x16
 4756 0fb4 6F0B0000 		.4byte	0xb6f
 4757 0fb8 16       		.uleb128 0x16
 4758 0fb9 C50F0000 		.4byte	0xfc5
 4759 0fbd 00       		.byte	0x0
 4760 0fbe 12       		.uleb128 0x12
 4761 0fbf 04       		.byte	0x4
 4762 0fc0 C40F0000 		.4byte	0xfc4
 4763 0fc4 25       		.uleb128 0x25
 4764 0fc5 12       		.uleb128 0x12
 4765 0fc6 04       		.byte	0x4
 4766 0fc7 CB0F0000 		.4byte	0xfcb
 4767 0fcb 15       		.uleb128 0x15
 4768 0fcc 94020000 		.4byte	0x294
 4769 0fd0 DF0F0000 		.4byte	0xfdf
 4770 0fd4 16       		.uleb128 0x16
 4771 0fd5 BE0F0000 		.4byte	0xfbe
 4772 0fd9 16       		.uleb128 0x16
 4773 0fda BE0F0000 		.4byte	0xfbe
ARM GAS  /tmp/ccX0J2UF.s 			page 103


 4774 0fde 00       		.byte	0x0
 4775 0fdf 26       		.uleb128 0x26
 4776 0fe0 01       		.byte	0x1
 4777 0fe1 64697600 		.ascii	"div\000"
 4778 0fe5 12       		.byte	0x12
 4779 0fe6 59       		.byte	0x59
 4780 0fe7 E50E0000 		.4byte	0xee5
 4781 0feb 01       		.byte	0x1
 4782 0fec FB0F0000 		.4byte	0xffb
 4783 0ff0 16       		.uleb128 0x16
 4784 0ff1 94020000 		.4byte	0x294
 4785 0ff5 16       		.uleb128 0x16
 4786 0ff6 94020000 		.4byte	0x294
 4787 0ffa 00       		.byte	0x0
 4788 0ffb 21       		.uleb128 0x21
 4789 0ffc 01       		.byte	0x1
 4790 0ffd 00000000 		.4byte	.LASF169
 4791 1001 12       		.byte	0x12
 4792 1002 5C       		.byte	0x5c
 4793 1003 6F090000 		.4byte	0x96f
 4794 1007 01       		.byte	0x1
 4795 1008 12100000 		.4byte	0x1012
 4796 100c 16       		.uleb128 0x16
 4797 100d A0090000 		.4byte	0x9a0
 4798 1011 00       		.byte	0x0
 4799 1012 21       		.uleb128 0x21
 4800 1013 01       		.byte	0x1
 4801 1014 E2080000 		.4byte	.LASF170
 4802 1018 12       		.byte	0x12
 4803 1019 65       		.byte	0x65
 4804 101a 0E0F0000 		.4byte	0xf0e
 4805 101e 01       		.byte	0x1
 4806 101f 2E100000 		.4byte	0x102e
 4807 1023 16       		.uleb128 0x16
 4808 1024 62000000 		.4byte	0x62
 4809 1028 16       		.uleb128 0x16
 4810 1029 62000000 		.4byte	0x62
 4811 102d 00       		.byte	0x0
 4812 102e 21       		.uleb128 0x21
 4813 102f 01       		.byte	0x1
 4814 1030 1E010000 		.4byte	.LASF171
 4815 1034 12       		.byte	0x12
 4816 1035 67       		.byte	0x67
 4817 1036 94020000 		.4byte	0x294
 4818 103a 01       		.byte	0x1
 4819 103b 4A100000 		.4byte	0x104a
 4820 103f 16       		.uleb128 0x16
 4821 1040 A0090000 		.4byte	0x9a0
 4822 1044 16       		.uleb128 0x16
 4823 1045 6F0B0000 		.4byte	0xb6f
 4824 1049 00       		.byte	0x0
 4825 104a 21       		.uleb128 0x21
 4826 104b 01       		.byte	0x1
 4827 104c 4F0B0000 		.4byte	.LASF172
 4828 1050 12       		.byte	0x12
 4829 1051 6D       		.byte	0x6d
 4830 1052 6F0B0000 		.4byte	0xb6f
ARM GAS  /tmp/ccX0J2UF.s 			page 104


 4831 1056 01       		.byte	0x1
 4832 1057 6B100000 		.4byte	0x106b
 4833 105b 16       		.uleb128 0x16
 4834 105c 6B100000 		.4byte	0x106b
 4835 1060 16       		.uleb128 0x16
 4836 1061 A0090000 		.4byte	0x9a0
 4837 1065 16       		.uleb128 0x16
 4838 1066 6F0B0000 		.4byte	0xb6f
 4839 106a 00       		.byte	0x0
 4840 106b 12       		.uleb128 0x12
 4841 106c 04       		.byte	0x4
 4842 106d 71100000 		.4byte	0x1071
 4843 1071 03       		.uleb128 0x3
 4844 1072 04       		.byte	0x4
 4845 1073 07       		.byte	0x7
 4846 1074 85010000 		.4byte	.LASF173
 4847 1078 21       		.uleb128 0x21
 4848 1079 01       		.byte	0x1
 4849 107a D2020000 		.4byte	.LASF174
 4850 107e 12       		.byte	0x12
 4851 107f 69       		.byte	0x69
 4852 1080 94020000 		.4byte	0x294
 4853 1084 01       		.byte	0x1
 4854 1085 99100000 		.4byte	0x1099
 4855 1089 16       		.uleb128 0x16
 4856 108a 6B100000 		.4byte	0x106b
 4857 108e 16       		.uleb128 0x16
 4858 108f A0090000 		.4byte	0x9a0
 4859 1093 16       		.uleb128 0x16
 4860 1094 6F0B0000 		.4byte	0xb6f
 4861 1098 00       		.byte	0x0
 4862 1099 24       		.uleb128 0x24
 4863 109a 01       		.byte	0x1
 4864 109b A0100000 		.4byte	.LASF175
 4865 109f 12       		.byte	0x12
 4866 10a0 81       		.byte	0x81
 4867 10a1 01       		.byte	0x1
 4868 10a2 BB100000 		.4byte	0x10bb
 4869 10a6 16       		.uleb128 0x16
 4870 10a7 20030000 		.4byte	0x320
 4871 10ab 16       		.uleb128 0x16
 4872 10ac 6F0B0000 		.4byte	0xb6f
 4873 10b0 16       		.uleb128 0x16
 4874 10b1 6F0B0000 		.4byte	0xb6f
 4875 10b5 16       		.uleb128 0x16
 4876 10b6 C50F0000 		.4byte	0xfc5
 4877 10ba 00       		.byte	0x0
 4878 10bb 23       		.uleb128 0x23
 4879 10bc 01       		.byte	0x1
 4880 10bd 29080000 		.4byte	.LASF176
 4881 10c1 12       		.byte	0x12
 4882 10c2 82       		.byte	0x82
 4883 10c3 94020000 		.4byte	0x294
 4884 10c7 01       		.byte	0x1
 4885 10c8 24       		.uleb128 0x24
 4886 10c9 01       		.byte	0x1
 4887 10ca 13050000 		.4byte	.LASF177
ARM GAS  /tmp/ccX0J2UF.s 			page 105


 4888 10ce 12       		.byte	0x12
 4889 10cf 87       		.byte	0x87
 4890 10d0 01       		.byte	0x1
 4891 10d1 DB100000 		.4byte	0x10db
 4892 10d5 16       		.uleb128 0x16
 4893 10d6 8D020000 		.4byte	0x28d
 4894 10da 00       		.byte	0x0
 4895 10db 21       		.uleb128 0x21
 4896 10dc 01       		.byte	0x1
 4897 10dd 0C050000 		.4byte	.LASF178
 4898 10e1 12       		.byte	0x12
 4899 10e2 88       		.byte	0x88
 4900 10e3 90000000 		.4byte	0x90
 4901 10e7 01       		.byte	0x1
 4902 10e8 F7100000 		.4byte	0x10f7
 4903 10ec 16       		.uleb128 0x16
 4904 10ed A0090000 		.4byte	0x9a0
 4905 10f1 16       		.uleb128 0x16
 4906 10f2 F7100000 		.4byte	0x10f7
 4907 10f6 00       		.byte	0x0
 4908 10f7 12       		.uleb128 0x12
 4909 10f8 04       		.byte	0x4
 4910 10f9 6F090000 		.4byte	0x96f
 4911 10fd 21       		.uleb128 0x21
 4912 10fe 01       		.byte	0x1
 4913 10ff 640E0000 		.4byte	.LASF179
 4914 1103 12       		.byte	0x12
 4915 1104 91       		.byte	0x91
 4916 1105 62000000 		.4byte	0x62
 4917 1109 01       		.byte	0x1
 4918 110a 1E110000 		.4byte	0x111e
 4919 110e 16       		.uleb128 0x16
 4920 110f A0090000 		.4byte	0x9a0
 4921 1113 16       		.uleb128 0x16
 4922 1114 F7100000 		.4byte	0x10f7
 4923 1118 16       		.uleb128 0x16
 4924 1119 94020000 		.4byte	0x294
 4925 111d 00       		.byte	0x0
 4926 111e 21       		.uleb128 0x21
 4927 111f 01       		.byte	0x1
 4928 1120 330D0000 		.4byte	.LASF180
 4929 1124 12       		.byte	0x12
 4930 1125 93       		.byte	0x93
 4931 1126 74000000 		.4byte	0x74
 4932 112a 01       		.byte	0x1
 4933 112b 3F110000 		.4byte	0x113f
 4934 112f 16       		.uleb128 0x16
 4935 1130 A0090000 		.4byte	0x9a0
 4936 1134 16       		.uleb128 0x16
 4937 1135 F7100000 		.4byte	0x10f7
 4938 1139 16       		.uleb128 0x16
 4939 113a 94020000 		.4byte	0x294
 4940 113e 00       		.byte	0x0
 4941 113f 21       		.uleb128 0x21
 4942 1140 01       		.byte	0x1
 4943 1141 0B100000 		.4byte	.LASF181
 4944 1145 12       		.byte	0x12
ARM GAS  /tmp/ccX0J2UF.s 			page 106


 4945 1146 96       		.byte	0x96
 4946 1147 94020000 		.4byte	0x294
 4947 114b 01       		.byte	0x1
 4948 114c 56110000 		.4byte	0x1156
 4949 1150 16       		.uleb128 0x16
 4950 1151 A0090000 		.4byte	0x9a0
 4951 1155 00       		.byte	0x0
 4952 1156 21       		.uleb128 0x21
 4953 1157 01       		.byte	0x1
 4954 1158 5B0E0000 		.4byte	.LASF182
 4955 115c 12       		.byte	0x12
 4956 115d 6F       		.byte	0x6f
 4957 115e 6F0B0000 		.4byte	0xb6f
 4958 1162 01       		.byte	0x1
 4959 1163 77110000 		.4byte	0x1177
 4960 1167 16       		.uleb128 0x16
 4961 1168 6F090000 		.4byte	0x96f
 4962 116c 16       		.uleb128 0x16
 4963 116d 77110000 		.4byte	0x1177
 4964 1171 16       		.uleb128 0x16
 4965 1172 6F0B0000 		.4byte	0xb6f
 4966 1176 00       		.byte	0x0
 4967 1177 12       		.uleb128 0x12
 4968 1178 04       		.byte	0x4
 4969 1179 7D110000 		.4byte	0x117d
 4970 117d 1C       		.uleb128 0x1c
 4971 117e 71100000 		.4byte	0x1071
 4972 1182 21       		.uleb128 0x21
 4973 1183 01       		.byte	0x1
 4974 1184 03040000 		.4byte	.LASF183
 4975 1188 12       		.byte	0x12
 4976 1189 6B       		.byte	0x6b
 4977 118a 94020000 		.4byte	0x294
 4978 118e 01       		.byte	0x1
 4979 118f 9E110000 		.4byte	0x119e
 4980 1193 16       		.uleb128 0x16
 4981 1194 6F090000 		.4byte	0x96f
 4982 1198 16       		.uleb128 0x16
 4983 1199 71100000 		.4byte	0x1071
 4984 119d 00       		.byte	0x0
 4985 119e 27       		.uleb128 0x27
 4986 119f 746D00   		.ascii	"tm\000"
 4987 11a2 2C       		.byte	0x2c
 4988 11a3 13       		.byte	0x13
 4989 11a4 2D       		.byte	0x2d
 4990 11a5 44120000 		.4byte	0x1244
 4991 11a9 0C       		.uleb128 0xc
 4992 11aa 480F0000 		.4byte	.LASF184
 4993 11ae 13       		.byte	0x13
 4994 11af 2E       		.byte	0x2e
 4995 11b0 94020000 		.4byte	0x294
 4996 11b4 02       		.byte	0x2
 4997 11b5 23       		.byte	0x23
 4998 11b6 00       		.uleb128 0x0
 4999 11b7 0C       		.uleb128 0xc
 5000 11b8 9C0D0000 		.4byte	.LASF185
 5001 11bc 13       		.byte	0x13
ARM GAS  /tmp/ccX0J2UF.s 			page 107


 5002 11bd 2F       		.byte	0x2f
 5003 11be 94020000 		.4byte	0x294
 5004 11c2 02       		.byte	0x2
 5005 11c3 23       		.byte	0x23
 5006 11c4 04       		.uleb128 0x4
 5007 11c5 0C       		.uleb128 0xc
 5008 11c6 530E0000 		.4byte	.LASF186
 5009 11ca 13       		.byte	0x13
 5010 11cb 30       		.byte	0x30
 5011 11cc 94020000 		.4byte	0x294
 5012 11d0 02       		.byte	0x2
 5013 11d1 23       		.byte	0x23
 5014 11d2 08       		.uleb128 0x8
 5015 11d3 0C       		.uleb128 0xc
 5016 11d4 BA010000 		.4byte	.LASF187
 5017 11d8 13       		.byte	0x13
 5018 11d9 31       		.byte	0x31
 5019 11da 94020000 		.4byte	0x294
 5020 11de 02       		.byte	0x2
 5021 11df 23       		.byte	0x23
 5022 11e0 0C       		.uleb128 0xc
 5023 11e1 0C       		.uleb128 0xc
 5024 11e2 D9020000 		.4byte	.LASF188
 5025 11e6 13       		.byte	0x13
 5026 11e7 32       		.byte	0x32
 5027 11e8 94020000 		.4byte	0x294
 5028 11ec 02       		.byte	0x2
 5029 11ed 23       		.byte	0x23
 5030 11ee 10       		.uleb128 0x10
 5031 11ef 0C       		.uleb128 0xc
 5032 11f0 45070000 		.4byte	.LASF189
 5033 11f4 13       		.byte	0x13
 5034 11f5 33       		.byte	0x33
 5035 11f6 94020000 		.4byte	0x294
 5036 11fa 02       		.byte	0x2
 5037 11fb 23       		.byte	0x23
 5038 11fc 14       		.uleb128 0x14
 5039 11fd 0C       		.uleb128 0xc
 5040 11fe AA0E0000 		.4byte	.LASF190
 5041 1202 13       		.byte	0x13
 5042 1203 34       		.byte	0x34
 5043 1204 94020000 		.4byte	0x294
 5044 1208 02       		.byte	0x2
 5045 1209 23       		.byte	0x23
 5046 120a 18       		.uleb128 0x18
 5047 120b 0C       		.uleb128 0xc
 5048 120c B4000000 		.4byte	.LASF191
 5049 1210 13       		.byte	0x13
 5050 1211 35       		.byte	0x35
 5051 1212 94020000 		.4byte	0x294
 5052 1216 02       		.byte	0x2
 5053 1217 23       		.byte	0x23
 5054 1218 1C       		.uleb128 0x1c
 5055 1219 0C       		.uleb128 0xc
 5056 121a ED0A0000 		.4byte	.LASF192
 5057 121e 13       		.byte	0x13
 5058 121f 36       		.byte	0x36
ARM GAS  /tmp/ccX0J2UF.s 			page 108


 5059 1220 94020000 		.4byte	0x294
 5060 1224 02       		.byte	0x2
 5061 1225 23       		.byte	0x23
 5062 1226 20       		.uleb128 0x20
 5063 1227 0C       		.uleb128 0xc
 5064 1228 DE0D0000 		.4byte	.LASF193
 5065 122c 13       		.byte	0x13
 5066 122d 37       		.byte	0x37
 5067 122e 94020000 		.4byte	0x294
 5068 1232 02       		.byte	0x2
 5069 1233 23       		.byte	0x23
 5070 1234 24       		.uleb128 0x24
 5071 1235 0C       		.uleb128 0xc
 5072 1236 85000000 		.4byte	.LASF194
 5073 123a 13       		.byte	0x13
 5074 123b 38       		.byte	0x38
 5075 123c 94020000 		.4byte	0x294
 5076 1240 02       		.byte	0x2
 5077 1241 23       		.byte	0x23
 5078 1242 28       		.uleb128 0x28
 5079 1243 00       		.byte	0x0
 5080 1244 23       		.uleb128 0x23
 5081 1245 01       		.byte	0x1
 5082 1246 31060000 		.4byte	.LASF195
 5083 124a 13       		.byte	0x13
 5084 124b 3B       		.byte	0x3b
 5085 124c 9F0B0000 		.4byte	0xb9f
 5086 1250 01       		.byte	0x1
 5087 1251 21       		.uleb128 0x21
 5088 1252 01       		.byte	0x1
 5089 1253 FA030000 		.4byte	.LASF196
 5090 1257 13       		.byte	0x13
 5091 1258 3C       		.byte	0x3c
 5092 1259 90000000 		.4byte	0x90
 5093 125d 01       		.byte	0x1
 5094 125e 6D120000 		.4byte	0x126d
 5095 1262 16       		.uleb128 0x16
 5096 1263 AA0B0000 		.4byte	0xbaa
 5097 1267 16       		.uleb128 0x16
 5098 1268 AA0B0000 		.4byte	0xbaa
 5099 126c 00       		.byte	0x0
 5100 126d 21       		.uleb128 0x21
 5101 126e 01       		.byte	0x1
 5102 126f 8F000000 		.4byte	.LASF197
 5103 1273 13       		.byte	0x13
 5104 1274 3D       		.byte	0x3d
 5105 1275 AA0B0000 		.4byte	0xbaa
 5106 1279 01       		.byte	0x1
 5107 127a 84120000 		.4byte	0x1284
 5108 127e 16       		.uleb128 0x16
 5109 127f 84120000 		.4byte	0x1284
 5110 1283 00       		.byte	0x0
 5111 1284 12       		.uleb128 0x12
 5112 1285 04       		.byte	0x4
 5113 1286 9E110000 		.4byte	0x119e
 5114 128a 21       		.uleb128 0x21
 5115 128b 01       		.byte	0x1
ARM GAS  /tmp/ccX0J2UF.s 			page 109


 5116 128c 3F030000 		.4byte	.LASF198
 5117 1290 13       		.byte	0x13
 5118 1291 3E       		.byte	0x3e
 5119 1292 AA0B0000 		.4byte	0xbaa
 5120 1296 01       		.byte	0x1
 5121 1297 A1120000 		.4byte	0x12a1
 5122 129b 16       		.uleb128 0x16
 5123 129c A1120000 		.4byte	0x12a1
 5124 12a0 00       		.byte	0x0
 5125 12a1 12       		.uleb128 0x12
 5126 12a2 04       		.byte	0x4
 5127 12a3 AA0B0000 		.4byte	0xbaa
 5128 12a7 21       		.uleb128 0x21
 5129 12a8 01       		.byte	0x1
 5130 12a9 36080000 		.4byte	.LASF199
 5131 12ad 13       		.byte	0x13
 5132 12ae 40       		.byte	0x40
 5133 12af 6F090000 		.4byte	0x96f
 5134 12b3 01       		.byte	0x1
 5135 12b4 BE120000 		.4byte	0x12be
 5136 12b8 16       		.uleb128 0x16
 5137 12b9 BE120000 		.4byte	0x12be
 5138 12bd 00       		.byte	0x0
 5139 12be 12       		.uleb128 0x12
 5140 12bf 04       		.byte	0x4
 5141 12c0 C4120000 		.4byte	0x12c4
 5142 12c4 1C       		.uleb128 0x1c
 5143 12c5 9E110000 		.4byte	0x119e
 5144 12c9 21       		.uleb128 0x21
 5145 12ca 01       		.byte	0x1
 5146 12cb 18040000 		.4byte	.LASF200
 5147 12cf 13       		.byte	0x13
 5148 12d0 41       		.byte	0x41
 5149 12d1 6F090000 		.4byte	0x96f
 5150 12d5 01       		.byte	0x1
 5151 12d6 E0120000 		.4byte	0x12e0
 5152 12da 16       		.uleb128 0x16
 5153 12db E0120000 		.4byte	0x12e0
 5154 12df 00       		.byte	0x0
 5155 12e0 12       		.uleb128 0x12
 5156 12e1 04       		.byte	0x4
 5157 12e2 E6120000 		.4byte	0x12e6
 5158 12e6 1C       		.uleb128 0x1c
 5159 12e7 AA0B0000 		.4byte	0xbaa
 5160 12eb 21       		.uleb128 0x21
 5161 12ec 01       		.byte	0x1
 5162 12ed D70B0000 		.4byte	.LASF201
 5163 12f1 13       		.byte	0x13
 5164 12f2 42       		.byte	0x42
 5165 12f3 84120000 		.4byte	0x1284
 5166 12f7 01       		.byte	0x1
 5167 12f8 02130000 		.4byte	0x1302
 5168 12fc 16       		.uleb128 0x16
 5169 12fd E0120000 		.4byte	0x12e0
 5170 1301 00       		.byte	0x0
 5171 1302 21       		.uleb128 0x21
 5172 1303 01       		.byte	0x1
ARM GAS  /tmp/ccX0J2UF.s 			page 110


 5173 1304 FA070000 		.4byte	.LASF202
 5174 1308 13       		.byte	0x13
 5175 1309 43       		.byte	0x43
 5176 130a 84120000 		.4byte	0x1284
 5177 130e 01       		.byte	0x1
 5178 130f 19130000 		.4byte	0x1319
 5179 1313 16       		.uleb128 0x16
 5180 1314 E0120000 		.4byte	0x12e0
 5181 1318 00       		.byte	0x0
 5182 1319 21       		.uleb128 0x21
 5183 131a 01       		.byte	0x1
 5184 131b C9020000 		.4byte	.LASF203
 5185 131f 13       		.byte	0x13
 5186 1320 45       		.byte	0x45
 5187 1321 6F0B0000 		.4byte	0xb6f
 5188 1325 01       		.byte	0x1
 5189 1326 3F130000 		.4byte	0x133f
 5190 132a 16       		.uleb128 0x16
 5191 132b 6F090000 		.4byte	0x96f
 5192 132f 16       		.uleb128 0x16
 5193 1330 6F0B0000 		.4byte	0xb6f
 5194 1334 16       		.uleb128 0x16
 5195 1335 A0090000 		.4byte	0x9a0
 5196 1339 16       		.uleb128 0x16
 5197 133a BE120000 		.4byte	0x12be
 5198 133e 00       		.byte	0x0
 5199 133f 02       		.uleb128 0x2
 5200 1340 3E080000 		.4byte	.LASF204
 5201 1344 0D       		.byte	0xd
 5202 1345 66       		.byte	0x66
 5203 1346 7A0B0000 		.4byte	0xb7a
 5204 134a 1C       		.uleb128 0x1c
 5205 134b 69000000 		.4byte	0x69
 5206 134f 28       		.uleb128 0x28
 5207 1350 86090000 		.4byte	.LASF212
 5208 1354 0801     		.2byte	0x108
 5209 1356 14       		.byte	0x14
 5210 1357 22       		.byte	0x22
 5211 1358 32140000 		.4byte	0x1432
 5212 135c 29       		.uleb128 0x29
 5213 135d 3F050000 		.4byte	.LASF205
 5214 1361 14       		.byte	0x14
 5215 1362 2D       		.byte	0x2d
 5216 1363 BE040000 		.4byte	.LASF207
 5217 1367 4A130000 		.4byte	0x134a
 5218 136b 01       		.byte	0x1
 5219 136c 03       		.byte	0x3
 5220 136d 01       		.byte	0x1
 5221 136e 0001     		.2byte	0x100
 5222 1370 2A       		.uleb128 0x2a
 5223 1371 9F030000 		.4byte	.LASF206
 5224 1375 14       		.byte	0x14
 5225 1376 30       		.byte	0x30
 5226 1377 37060000 		.4byte	.LASF208
 5227 137b 4A130000 		.4byte	0x134a
 5228 137f 01       		.byte	0x1
 5229 1380 03       		.byte	0x3
ARM GAS  /tmp/ccX0J2UF.s 			page 111


 5230 1381 01       		.byte	0x1
 5231 1382 FF       		.byte	0xff
 5232 1383 2B       		.uleb128 0x2b
 5233 1384 ED030000 		.4byte	.LASF209
 5234 1388 14       		.byte	0x14
 5235 1389 33       		.byte	0x33
 5236 138a 69000000 		.4byte	0x69
 5237 138e 02       		.byte	0x2
 5238 138f 23       		.byte	0x23
 5239 1390 00       		.uleb128 0x0
 5240 1391 03       		.byte	0x3
 5241 1392 2B       		.uleb128 0x2b
 5242 1393 490E0000 		.4byte	.LASF210
 5243 1397 14       		.byte	0x14
 5244 1398 36       		.byte	0x36
 5245 1399 69000000 		.4byte	0x69
 5246 139d 02       		.byte	0x2
 5247 139e 23       		.byte	0x23
 5248 139f 04       		.uleb128 0x4
 5249 13a0 03       		.byte	0x3
 5250 13a1 2B       		.uleb128 0x2b
 5251 13a2 EE000000 		.4byte	.LASF211
 5252 13a6 14       		.byte	0x14
 5253 13a7 39       		.byte	0x39
 5254 13a8 32140000 		.4byte	0x1432
 5255 13ac 02       		.byte	0x2
 5256 13ad 23       		.byte	0x23
 5257 13ae 08       		.uleb128 0x8
 5258 13af 03       		.byte	0x3
 5259 13b0 21       		.uleb128 0x21
 5260 13b1 01       		.byte	0x1
 5261 13b2 86090000 		.4byte	.LASF212
 5262 13b6 14       		.byte	0x14
 5263 13b7 24       		.byte	0x24
 5264 13b8 42140000 		.4byte	0x1442
 5265 13bc 01       		.byte	0x1
 5266 13bd C8130000 		.4byte	0x13c8
 5267 13c1 2C       		.uleb128 0x2c
 5268 13c2 42140000 		.4byte	0x1442
 5269 13c6 01       		.byte	0x1
 5270 13c7 00       		.byte	0x0
 5271 13c8 2D       		.uleb128 0x2d
 5272 13c9 01       		.byte	0x1
 5273 13ca FB050000 		.4byte	.LASF213
 5274 13ce 14       		.byte	0x14
 5275 13cf 26       		.byte	0x26
 5276 13d0 60070000 		.4byte	.LASF233
 5277 13d4 01       		.byte	0x1
 5278 13d5 E0130000 		.4byte	0x13e0
 5279 13d9 2C       		.uleb128 0x2c
 5280 13da 42140000 		.4byte	0x1442
 5281 13de 01       		.byte	0x1
 5282 13df 00       		.byte	0x0
 5283 13e0 2E       		.uleb128 0x2e
 5284 13e1 01       		.byte	0x1
 5285 13e2 3F0B0000 		.4byte	.LASF214
 5286 13e6 14       		.byte	0x14
ARM GAS  /tmp/ccX0J2UF.s 			page 112


 5287 13e7 27       		.byte	0x27
 5288 13e8 00030000 		.4byte	.LASF216
 5289 13ec 29000000 		.4byte	0x29
 5290 13f0 01       		.byte	0x1
 5291 13f1 FC130000 		.4byte	0x13fc
 5292 13f5 2C       		.uleb128 0x2c
 5293 13f6 42140000 		.4byte	0x1442
 5294 13fa 01       		.byte	0x1
 5295 13fb 00       		.byte	0x0
 5296 13fc 2E       		.uleb128 0x2e
 5297 13fd 01       		.byte	0x1
 5298 13fe 93060000 		.4byte	.LASF215
 5299 1402 14       		.byte	0x14
 5300 1403 28       		.byte	0x28
 5301 1404 030A0000 		.4byte	.LASF217
 5302 1408 42000000 		.4byte	0x42
 5303 140c 01       		.byte	0x1
 5304 140d 18140000 		.4byte	0x1418
 5305 1411 2C       		.uleb128 0x2c
 5306 1412 42140000 		.4byte	0x1442
 5307 1416 01       		.byte	0x1
 5308 1417 00       		.byte	0x0
 5309 1418 2F       		.uleb128 0x2f
 5310 1419 01       		.byte	0x1
 5311 141a D60C0000 		.4byte	.LASF218
 5312 141e 14       		.byte	0x14
 5313 141f 29       		.byte	0x29
 5314 1420 040B0000 		.4byte	.LASF229
 5315 1424 01       		.byte	0x1
 5316 1425 2C       		.uleb128 0x2c
 5317 1426 42140000 		.4byte	0x1442
 5318 142a 01       		.byte	0x1
 5319 142b 16       		.uleb128 0x16
 5320 142c 42000000 		.4byte	0x42
 5321 1430 00       		.byte	0x0
 5322 1431 00       		.byte	0x0
 5323 1432 0D       		.uleb128 0xd
 5324 1433 4D000000 		.4byte	0x4d
 5325 1437 42140000 		.4byte	0x1442
 5326 143b 0E       		.uleb128 0xe
 5327 143c 8D020000 		.4byte	0x28d
 5328 1440 FF       		.byte	0xff
 5329 1441 00       		.byte	0x0
 5330 1442 12       		.uleb128 0x12
 5331 1443 04       		.byte	0x4
 5332 1444 4F130000 		.4byte	0x134f
 5333 1448 28       		.uleb128 0x28
 5334 1449 AD020000 		.4byte	.LASF219
 5335 144d 0801     		.2byte	0x108
 5336 144f 15       		.byte	0x15
 5337 1450 21       		.byte	0x21
 5338 1451 C2140000 		.4byte	0x14c2
 5339 1455 30       		.uleb128 0x30
 5340 1456 04       		.byte	0x4
 5341 1457 15       		.byte	0x15
 5342 1458 26       		.byte	0x26
 5343 1459 19030000 		.4byte	.LASF378
ARM GAS  /tmp/ccX0J2UF.s 			page 113


 5344 145d 9F140000 		.4byte	0x149f
 5345 1461 31       		.uleb128 0x31
 5346 1462 57020000 		.4byte	.LASF220
 5347 1466 B009     		.sleb128 1200
 5348 1468 31       		.uleb128 0x31
 5349 1469 D5080000 		.4byte	.LASF221
 5350 146d E012     		.sleb128 2400
 5351 146f 31       		.uleb128 0x31
 5352 1470 60040000 		.4byte	.LASF222
 5353 1474 C025     		.sleb128 4800
 5354 1476 31       		.uleb128 0x31
 5355 1477 EE050000 		.4byte	.LASF223
 5356 147b 80CB00   		.sleb128 9600
 5357 147e 31       		.uleb128 0x31
 5358 147f 780F0000 		.4byte	.LASF224
 5359 1483 809601   		.sleb128 19200
 5360 1486 31       		.uleb128 0x31
 5361 1487 9C070000 		.4byte	.LASF225
 5362 148b 80AC02   		.sleb128 38400
 5363 148e 31       		.uleb128 0x31
 5364 148f 5F100000 		.4byte	.LASF226
 5365 1493 80C203   		.sleb128 57600
 5366 1496 31       		.uleb128 0x31
 5367 1497 88040000 		.4byte	.LASF227
 5368 149b 808407   		.sleb128 115200
 5369 149e 00       		.byte	0x0
 5370 149f 0C       		.uleb128 0xc
 5371 14a0 6B0E0000 		.4byte	.LASF228
 5372 14a4 15       		.byte	0x15
 5373 14a5 4C       		.byte	0x4c
 5374 14a6 4F130000 		.4byte	0x134f
 5375 14aa 02       		.byte	0x2
 5376 14ab 23       		.byte	0x23
 5377 14ac 00       		.uleb128 0x0
 5378 14ad 2F       		.uleb128 0x2f
 5379 14ae 01       		.byte	0x1
 5380 14af FB050000 		.4byte	.LASF213
 5381 14b3 15       		.byte	0x15
 5382 14b4 23       		.byte	0x23
 5383 14b5 60010000 		.4byte	.LASF230
 5384 14b9 01       		.byte	0x1
 5385 14ba 2C       		.uleb128 0x2c
 5386 14bb C2140000 		.4byte	0x14c2
 5387 14bf 01       		.byte	0x1
 5388 14c0 00       		.byte	0x0
 5389 14c1 00       		.byte	0x0
 5390 14c2 12       		.uleb128 0x12
 5391 14c3 04       		.byte	0x4
 5392 14c4 48140000 		.4byte	0x1448
 5393 14c8 28       		.uleb128 0x28
 5394 14c9 2F0F0000 		.4byte	.LASF231
 5395 14cd 0801     		.2byte	0x108
 5396 14cf 16       		.byte	0x16
 5397 14d0 21       		.byte	0x21
 5398 14d1 CD150000 		.4byte	0x15cd
 5399 14d5 32       		.uleb128 0x32
 5400 14d6 48140000 		.4byte	0x1448
ARM GAS  /tmp/ccX0J2UF.s 			page 114


 5401 14da 02       		.byte	0x2
 5402 14db 23       		.byte	0x23
 5403 14dc 00       		.uleb128 0x0
 5404 14dd 01       		.byte	0x1
 5405 14de 2D       		.uleb128 0x2d
 5406 14df 01       		.byte	0x1
 5407 14e0 4F0F0000 		.4byte	.LASF232
 5408 14e4 16       		.byte	0x16
 5409 14e5 23       		.byte	0x23
 5410 14e6 2C0A0000 		.4byte	.LASF234
 5411 14ea 01       		.byte	0x1
 5412 14eb F6140000 		.4byte	0x14f6
 5413 14ef 2C       		.uleb128 0x2c
 5414 14f0 CD150000 		.4byte	0x15cd
 5415 14f4 01       		.byte	0x1
 5416 14f5 00       		.byte	0x0
 5417 14f6 2D       		.uleb128 0x2d
 5418 14f7 01       		.byte	0x1
 5419 14f8 1C0F0000 		.4byte	.LASF235
 5420 14fc 16       		.byte	0x16
 5421 14fd 24       		.byte	0x24
 5422 14fe 5E060000 		.4byte	.LASF236
 5423 1502 01       		.byte	0x1
 5424 1503 13150000 		.4byte	0x1513
 5425 1507 2C       		.uleb128 0x2c
 5426 1508 CD150000 		.4byte	0x15cd
 5427 150c 01       		.byte	0x1
 5428 150d 16       		.uleb128 0x16
 5429 150e 55140000 		.4byte	0x1455
 5430 1512 00       		.byte	0x0
 5431 1513 2E       		.uleb128 0x2e
 5432 1514 01       		.byte	0x1
 5433 1515 F6060000 		.4byte	.LASF237
 5434 1519 16       		.byte	0x16
 5435 151a 25       		.byte	0x25
 5436 151b 33090000 		.4byte	.LASF238
 5437 151f 29000000 		.4byte	0x29
 5438 1523 01       		.byte	0x1
 5439 1524 2F150000 		.4byte	0x152f
 5440 1528 2C       		.uleb128 0x2c
 5441 1529 CD150000 		.4byte	0x15cd
 5442 152d 01       		.byte	0x1
 5443 152e 00       		.byte	0x0
 5444 152f 33       		.uleb128 0x33
 5445 1530 01       		.byte	0x1
 5446 1531 49535200 		.ascii	"ISR\000"
 5447 1535 16       		.byte	0x16
 5448 1536 26       		.byte	0x26
 5449 1537 2B100000 		.4byte	.LASF379
 5450 153b 01       		.byte	0x1
 5451 153c 47150000 		.4byte	0x1547
 5452 1540 2C       		.uleb128 0x2c
 5453 1541 CD150000 		.4byte	0x15cd
 5454 1545 01       		.byte	0x1
 5455 1546 00       		.byte	0x0
 5456 1547 2E       		.uleb128 0x2e
 5457 1548 01       		.byte	0x1
ARM GAS  /tmp/ccX0J2UF.s 			page 115


 5458 1549 B90D0000 		.4byte	.LASF239
 5459 154d 16       		.byte	0x16
 5460 154e 27       		.byte	0x27
 5461 154f F10C0000 		.4byte	.LASF240
 5462 1553 42000000 		.4byte	0x42
 5463 1557 01       		.byte	0x1
 5464 1558 63150000 		.4byte	0x1563
 5465 155c 2C       		.uleb128 0x2c
 5466 155d CD150000 		.4byte	0x15cd
 5467 1561 01       		.byte	0x1
 5468 1562 00       		.byte	0x0
 5469 1563 2D       		.uleb128 0x2d
 5470 1564 01       		.byte	0x1
 5471 1565 D60C0000 		.4byte	.LASF218
 5472 1569 16       		.byte	0x16
 5473 156a 28       		.byte	0x28
 5474 156b C4050000 		.4byte	.LASF241
 5475 156f 01       		.byte	0x1
 5476 1570 80150000 		.4byte	0x1580
 5477 1574 2C       		.uleb128 0x2c
 5478 1575 CD150000 		.4byte	0x15cd
 5479 1579 01       		.byte	0x1
 5480 157a 16       		.uleb128 0x16
 5481 157b A0090000 		.4byte	0x9a0
 5482 157f 00       		.byte	0x0
 5483 1580 2D       		.uleb128 0x2d
 5484 1581 01       		.byte	0x1
 5485 1582 95050000 		.4byte	.LASF242
 5486 1586 16       		.byte	0x16
 5487 1587 29       		.byte	0x29
 5488 1588 BC070000 		.4byte	.LASF243
 5489 158c 01       		.byte	0x1
 5490 158d 9D150000 		.4byte	0x159d
 5491 1591 2C       		.uleb128 0x2c
 5492 1592 CD150000 		.4byte	0x15cd
 5493 1596 01       		.byte	0x1
 5494 1597 16       		.uleb128 0x16
 5495 1598 42000000 		.4byte	0x42
 5496 159c 00       		.byte	0x0
 5497 159d 2D       		.uleb128 0x2d
 5498 159e 01       		.byte	0x1
 5499 159f 060D0000 		.4byte	.LASF244
 5500 15a3 16       		.byte	0x16
 5501 15a4 2A       		.byte	0x2a
 5502 15a5 36020000 		.4byte	.LASF245
 5503 15a9 01       		.byte	0x1
 5504 15aa BB150000 		.4byte	0x15bb
 5505 15ae 2C       		.uleb128 0x2c
 5506 15af CD150000 		.4byte	0x15cd
 5507 15b3 01       		.byte	0x1
 5508 15b4 16       		.uleb128 0x16
 5509 15b5 A0090000 		.4byte	0x9a0
 5510 15b9 34       		.uleb128 0x34
 5511 15ba 00       		.byte	0x0
 5512 15bb 35       		.uleb128 0x35
 5513 15bc 01       		.byte	0x1
 5514 15bd 9E0E0000 		.4byte	.LASF380
ARM GAS  /tmp/ccX0J2UF.s 			page 116


 5515 15c1 16       		.byte	0x16
 5516 15c2 2C       		.byte	0x2c
 5517 15c3 D8060000 		.4byte	.LASF381
 5518 15c7 D3150000 		.4byte	0x15d3
 5519 15cb 01       		.byte	0x1
 5520 15cc 00       		.byte	0x0
 5521 15cd 12       		.uleb128 0x12
 5522 15ce 04       		.byte	0x4
 5523 15cf C8140000 		.4byte	0x14c8
 5524 15d3 12       		.uleb128 0x12
 5525 15d4 04       		.byte	0x4
 5526 15d5 C8140000 		.4byte	0x14c8
 5527 15d9 10       		.uleb128 0x10
 5528 15da F3040000 		.4byte	.LASF246
 5529 15de 1C       		.byte	0x1c
 5530 15df 17       		.byte	0x17
 5531 15e0 2F       		.byte	0x2f
 5532 15e1 8E160000 		.4byte	0x168e
 5533 15e5 0C       		.uleb128 0xc
 5534 15e6 10000000 		.4byte	.LASF247
 5535 15ea 17       		.byte	0x17
 5536 15eb 33       		.byte	0x33
 5537 15ec 4D000000 		.4byte	0x4d
 5538 15f0 02       		.byte	0x2
 5539 15f1 23       		.byte	0x23
 5540 15f2 00       		.uleb128 0x0
 5541 15f3 11       		.uleb128 0x11
 5542 15f4 6F656D00 		.ascii	"oem\000"
 5543 15f8 17       		.byte	0x17
 5544 15f9 37       		.byte	0x37
 5545 15fa EF090000 		.4byte	0x9ef
 5546 15fe 02       		.byte	0x2
 5547 15ff 23       		.byte	0x23
 5548 1600 01       		.uleb128 0x1
 5549 1601 0C       		.uleb128 0xc
 5550 1602 B50F0000 		.4byte	.LASF248
 5551 1606 17       		.byte	0x17
 5552 1607 3B       		.byte	0x3b
 5553 1608 8E160000 		.4byte	0x168e
 5554 160c 02       		.byte	0x2
 5555 160d 23       		.byte	0x23
 5556 160e 04       		.uleb128 0x4
 5557 160f 0C       		.uleb128 0xc
 5558 1610 57070000 		.4byte	.LASF249
 5559 1614 17       		.byte	0x17
 5560 1615 41       		.byte	0x41
 5561 1616 4D000000 		.4byte	0x4d
 5562 161a 02       		.byte	0x2
 5563 161b 23       		.byte	0x23
 5564 161c 0A       		.uleb128 0xa
 5565 161d 0C       		.uleb128 0xc
 5566 161e 39010000 		.4byte	.LASF250
 5567 1622 17       		.byte	0x17
 5568 1623 45       		.byte	0x45
 5569 1624 8D020000 		.4byte	0x28d
 5570 1628 02       		.byte	0x2
 5571 1629 23       		.byte	0x23
ARM GAS  /tmp/ccX0J2UF.s 			page 117


 5572 162a 0C       		.uleb128 0xc
 5573 162b 0C       		.uleb128 0xc
 5574 162c 16080000 		.4byte	.LASF251
 5575 1630 17       		.byte	0x17
 5576 1631 4B       		.byte	0x4b
 5577 1632 4D000000 		.4byte	0x4d
 5578 1636 02       		.byte	0x2
 5579 1637 23       		.byte	0x23
 5580 1638 10       		.uleb128 0x10
 5581 1639 0C       		.uleb128 0xc
 5582 163a CA0F0000 		.4byte	.LASF252
 5583 163e 17       		.byte	0x17
 5584 163f 4F       		.byte	0x4f
 5585 1640 4D000000 		.4byte	0x4d
 5586 1644 02       		.byte	0x2
 5587 1645 23       		.byte	0x23
 5588 1646 11       		.uleb128 0x11
 5589 1647 0C       		.uleb128 0xc
 5590 1648 AB000000 		.4byte	.LASF253
 5591 164c 17       		.byte	0x17
 5592 164d 53       		.byte	0x53
 5593 164e 8D020000 		.4byte	0x28d
 5594 1652 02       		.byte	0x2
 5595 1653 23       		.byte	0x23
 5596 1654 14       		.uleb128 0x14
 5597 1655 0C       		.uleb128 0xc
 5598 1656 4D070000 		.4byte	.LASF254
 5599 165a 17       		.byte	0x17
 5600 165b 59       		.byte	0x59
 5601 165c 4D000000 		.4byte	0x4d
 5602 1660 02       		.byte	0x2
 5603 1661 23       		.byte	0x23
 5604 1662 18       		.uleb128 0x18
 5605 1663 0C       		.uleb128 0xc
 5606 1664 6C020000 		.4byte	.LASF255
 5607 1668 17       		.byte	0x17
 5608 1669 60       		.byte	0x60
 5609 166a 4D000000 		.4byte	0x4d
 5610 166e 02       		.byte	0x2
 5611 166f 23       		.byte	0x23
 5612 1670 19       		.uleb128 0x19
 5613 1671 0C       		.uleb128 0xc
 5614 1672 AC050000 		.4byte	.LASF256
 5615 1676 17       		.byte	0x17
 5616 1677 67       		.byte	0x67
 5617 1678 4D000000 		.4byte	0x4d
 5618 167c 02       		.byte	0x2
 5619 167d 23       		.byte	0x23
 5620 167e 1A       		.uleb128 0x1a
 5621 167f 0C       		.uleb128 0xc
 5622 1680 A2040000 		.4byte	.LASF257
 5623 1684 17       		.byte	0x17
 5624 1685 6F       		.byte	0x6f
 5625 1686 4D000000 		.4byte	0x4d
 5626 168a 02       		.byte	0x2
 5627 168b 23       		.byte	0x23
 5628 168c 1B       		.uleb128 0x1b
ARM GAS  /tmp/ccX0J2UF.s 			page 118


 5629 168d 00       		.byte	0x0
 5630 168e 0D       		.uleb128 0xd
 5631 168f 4D000000 		.4byte	0x4d
 5632 1693 9E160000 		.4byte	0x169e
 5633 1697 0E       		.uleb128 0xe
 5634 1698 8D020000 		.4byte	0x28d
 5635 169c 05       		.byte	0x5
 5636 169d 00       		.byte	0x0
 5637 169e 02       		.uleb128 0x2
 5638 169f 150E0000 		.4byte	.LASF258
 5639 16a3 17       		.byte	0x17
 5640 16a4 72       		.byte	0x72
 5641 16a5 A9160000 		.4byte	0x16a9
 5642 16a9 12       		.uleb128 0x12
 5643 16aa 04       		.byte	0x4
 5644 16ab AF160000 		.4byte	0x16af
 5645 16af 15       		.uleb128 0x15
 5646 16b0 4D000000 		.4byte	0x4d
 5647 16b4 C8160000 		.4byte	0x16c8
 5648 16b8 16       		.uleb128 0x16
 5649 16b9 13050000 		.4byte	0x513
 5650 16bd 16       		.uleb128 0x16
 5651 16be 8D020000 		.4byte	0x28d
 5652 16c2 16       		.uleb128 0x16
 5653 16c3 20030000 		.4byte	0x320
 5654 16c7 00       		.byte	0x0
 5655 16c8 36       		.uleb128 0x36
 5656 16c9 01       		.byte	0x1
 5657 16ca 89080000 		.4byte	.LASF261
 5658 16ce 01       		.byte	0x1
 5659 16cf A0       		.byte	0xa0
 5660 16d0 E7020000 		.4byte	.LASF382
 5661 16d4 4D000000 		.4byte	0x4d
 5662 16d8 00000000 		.4byte	.LFB109
 5663 16dc 68030000 		.4byte	.LFE109
 5664 16e0 00000000 		.4byte	.LLST0
 5665 16e4 1B170000 		.4byte	0x171b
 5666 16e8 37       		.uleb128 0x37
 5667 16e9 08000000 		.4byte	.LBB2
 5668 16ed 0C030000 		.4byte	.LBE2
 5669 16f1 38       		.uleb128 0x38
 5670 16f2 80000000 		.4byte	.LASF259
 5671 16f6 01       		.byte	0x1
 5672 16f7 A2       		.byte	0xa2
 5673 16f8 CD150000 		.4byte	0x15cd
 5674 16fc 02       		.byte	0x2
 5675 16fd 91       		.byte	0x91
 5676 16fe 70       		.sleb128 -16
 5677 16ff 39       		.uleb128 0x39
 5678 1700 6900     		.ascii	"i\000"
 5679 1702 01       		.byte	0x1
 5680 1703 C3       		.byte	0xc3
 5681 1704 5B000000 		.4byte	0x5b
 5682 1708 02       		.byte	0x2
 5683 1709 91       		.byte	0x91
 5684 170a 76       		.sleb128 -10
 5685 170b 38       		.uleb128 0x38
ARM GAS  /tmp/ccX0J2UF.s 			page 119


 5686 170c 44000000 		.4byte	.LASF260
 5687 1710 01       		.byte	0x1
 5688 1711 CF       		.byte	0xcf
 5689 1712 4D000000 		.4byte	0x4d
 5690 1716 02       		.byte	0x2
 5691 1717 91       		.byte	0x91
 5692 1718 6F       		.sleb128 -17
 5693 1719 00       		.byte	0x0
 5694 171a 00       		.byte	0x0
 5695 171b 3A       		.uleb128 0x3a
 5696 171c 01       		.byte	0x1
 5697 171d 5B0D0000 		.4byte	.LASF262
 5698 1721 01       		.byte	0x1
 5699 1722 1201     		.2byte	0x112
 5700 1724 19050000 		.4byte	.LASF265
 5701 1728 4D000000 		.4byte	0x4d
 5702 172c 00000000 		.4byte	.LFB110
 5703 1730 B0000000 		.4byte	.LFE110
 5704 1734 2C000000 		.4byte	.LLST1
 5705 1738 54170000 		.4byte	0x1754
 5706 173c 37       		.uleb128 0x37
 5707 173d 04000000 		.4byte	.LBB3
 5708 1741 98000000 		.4byte	.LBE3
 5709 1745 3B       		.uleb128 0x3b
 5710 1746 6900     		.ascii	"i\000"
 5711 1748 01       		.byte	0x1
 5712 1749 1401     		.2byte	0x114
 5713 174b 8D020000 		.4byte	0x28d
 5714 174f 02       		.byte	0x2
 5715 1750 91       		.byte	0x91
 5716 1751 7C       		.sleb128 -4
 5717 1752 00       		.byte	0x0
 5718 1753 00       		.byte	0x0
 5719 1754 3C       		.uleb128 0x3c
 5720 1755 01       		.byte	0x1
 5721 1756 F60A0000 		.4byte	.LASF280
 5722 175a 01       		.byte	0x1
 5723 175b 2201     		.2byte	0x122
 5724 175d C2010000 		.4byte	.LASF282
 5725 1761 4D000000 		.4byte	0x4d
 5726 1765 00000000 		.4byte	.LFB111
 5727 1769 0C000000 		.4byte	.LFE111
 5728 176d 02       		.byte	0x2
 5729 176e 7D       		.byte	0x7d
 5730 176f 00       		.sleb128 0
 5731 1770 3D       		.uleb128 0x3d
 5732 1771 770D0000 		.4byte	.LASF383
 5733 1775 01       		.byte	0x1
 5734 1776 2E01     		.2byte	0x12e
 5735 1778 00000000 		.4byte	.LFB112
 5736 177c 58000000 		.4byte	.LFE112
 5737 1780 4C000000 		.4byte	.LLST2
 5738 1784 96170000 		.4byte	0x1796
 5739 1788 3E       		.uleb128 0x3e
 5740 1789 6200     		.ascii	"b\000"
 5741 178b 01       		.byte	0x1
 5742 178c 2E01     		.2byte	0x12e
ARM GAS  /tmp/ccX0J2UF.s 			page 120


 5743 178e 4D000000 		.4byte	0x4d
 5744 1792 02       		.byte	0x2
 5745 1793 91       		.byte	0x91
 5746 1794 7F       		.sleb128 -1
 5747 1795 00       		.byte	0x0
 5748 1796 3F       		.uleb128 0x3f
 5749 1797 FD0D0000 		.4byte	.LASF384
 5750 179b 01       		.byte	0x1
 5751 179c 3F01     		.2byte	0x13f
 5752 179e 4D000000 		.4byte	0x4d
 5753 17a2 00000000 		.4byte	.LFB113
 5754 17a6 58000000 		.4byte	.LFE113
 5755 17aa 02       		.byte	0x2
 5756 17ab 7D       		.byte	0x7d
 5757 17ac 00       		.sleb128 0
 5758 17ad 40       		.uleb128 0x40
 5759 17ae 8B0B0000 		.4byte	.LASF385
 5760 17b2 01       		.byte	0x1
 5761 17b3 5201     		.2byte	0x152
 5762 17b5 4D000000 		.4byte	0x4d
 5763 17b9 00000000 		.4byte	.LFB114
 5764 17bd 00010000 		.4byte	.LFE114
 5765 17c1 6C000000 		.4byte	.LLST3
 5766 17c5 0E180000 		.4byte	0x180e
 5767 17c9 41       		.uleb128 0x41
 5768 17ca 5D090000 		.4byte	.LASF263
 5769 17ce 01       		.byte	0x1
 5770 17cf 5201     		.2byte	0x152
 5771 17d1 4D000000 		.4byte	0x4d
 5772 17d5 02       		.byte	0x2
 5773 17d6 91       		.byte	0x91
 5774 17d7 6F       		.sleb128 -17
 5775 17d8 3E       		.uleb128 0x3e
 5776 17d9 61726700 		.ascii	"arg\000"
 5777 17dd 01       		.byte	0x1
 5778 17de 5201     		.2byte	0x152
 5779 17e0 8D020000 		.4byte	0x28d
 5780 17e4 02       		.byte	0x2
 5781 17e5 91       		.byte	0x91
 5782 17e6 68       		.sleb128 -24
 5783 17e7 37       		.uleb128 0x37
 5784 17e8 14000000 		.4byte	.LBB4
 5785 17ec F0000000 		.4byte	.LBE4
 5786 17f0 42       		.uleb128 0x42
 5787 17f1 44000000 		.4byte	.LASF260
 5788 17f5 01       		.byte	0x1
 5789 17f6 5401     		.2byte	0x154
 5790 17f8 4D000000 		.4byte	0x4d
 5791 17fc 02       		.byte	0x2
 5792 17fd 91       		.byte	0x91
 5793 17fe 77       		.sleb128 -9
 5794 17ff 3B       		.uleb128 0x3b
 5795 1800 6900     		.ascii	"i\000"
 5796 1802 01       		.byte	0x1
 5797 1803 5501     		.2byte	0x155
 5798 1805 4D000000 		.4byte	0x4d
 5799 1809 02       		.byte	0x2
ARM GAS  /tmp/ccX0J2UF.s 			page 121


 5800 180a 91       		.byte	0x91
 5801 180b 76       		.sleb128 -10
 5802 180c 00       		.byte	0x0
 5803 180d 00       		.byte	0x0
 5804 180e 3A       		.uleb128 0x3a
 5805 180f 01       		.byte	0x1
 5806 1810 EB090000 		.4byte	.LASF264
 5807 1814 01       		.byte	0x1
 5808 1815 9E01     		.2byte	0x19e
 5809 1817 3B100000 		.4byte	.LASF266
 5810 181b 4D000000 		.4byte	0x4d
 5811 181f 00000000 		.4byte	.LFB115
 5812 1823 8C020000 		.4byte	.LFE115
 5813 1827 98000000 		.4byte	.LLST4
 5814 182b BA180000 		.4byte	0x18ba
 5815 182f 41       		.uleb128 0x41
 5816 1830 2F050000 		.4byte	.LASF267
 5817 1834 01       		.byte	0x1
 5818 1835 9E01     		.2byte	0x19e
 5819 1837 8D020000 		.4byte	0x28d
 5820 183b 02       		.byte	0x2
 5821 183c 91       		.byte	0x91
 5822 183d 5C       		.sleb128 -36
 5823 183e 41       		.uleb128 0x41
 5824 183f EE000000 		.4byte	.LASF211
 5825 1843 01       		.byte	0x1
 5826 1844 9E01     		.2byte	0x19e
 5827 1846 13050000 		.4byte	0x513
 5828 184a 02       		.byte	0x2
 5829 184b 91       		.byte	0x91
 5830 184c 58       		.sleb128 -40
 5831 184d 41       		.uleb128 0x41
 5832 184e 580B0000 		.4byte	.LASF268
 5833 1852 01       		.byte	0x1
 5834 1853 9E01     		.2byte	0x19e
 5835 1855 5B000000 		.4byte	0x5b
 5836 1859 02       		.byte	0x2
 5837 185a 91       		.byte	0x91
 5838 185b 56       		.sleb128 -42
 5839 185c 37       		.uleb128 0x37
 5840 185d 18000000 		.4byte	.LBB5
 5841 1861 64020000 		.4byte	.LBE5
 5842 1865 42       		.uleb128 0x42
 5843 1866 D2070000 		.4byte	.LASF269
 5844 186a 01       		.byte	0x1
 5845 186b A001     		.2byte	0x1a0
 5846 186d 8D020000 		.4byte	0x28d
 5847 1871 02       		.byte	0x2
 5848 1872 91       		.byte	0x91
 5849 1873 68       		.sleb128 -24
 5850 1874 42       		.uleb128 0x42
 5851 1875 22030000 		.4byte	.LASF270
 5852 1879 01       		.byte	0x1
 5853 187a A101     		.2byte	0x1a1
 5854 187c 5B000000 		.4byte	0x5b
 5855 1880 02       		.byte	0x2
 5856 1881 91       		.byte	0x91
ARM GAS  /tmp/ccX0J2UF.s 			page 122


 5857 1882 66       		.sleb128 -26
 5858 1883 42       		.uleb128 0x42
 5859 1884 D8040000 		.4byte	.LASF271
 5860 1888 01       		.byte	0x1
 5861 1889 A201     		.2byte	0x1a2
 5862 188b 5B000000 		.4byte	0x5b
 5863 188f 02       		.byte	0x2
 5864 1890 91       		.byte	0x91
 5865 1891 76       		.sleb128 -10
 5866 1892 37       		.uleb128 0x37
 5867 1893 7C000000 		.4byte	.LBB8
 5868 1897 04020000 		.4byte	.LBE8
 5869 189b 42       		.uleb128 0x42
 5870 189c FD090000 		.4byte	.LASF272
 5871 18a0 01       		.byte	0x1
 5872 18a1 D101     		.2byte	0x1d1
 5873 18a3 13050000 		.4byte	0x513
 5874 18a7 02       		.byte	0x2
 5875 18a8 91       		.byte	0x91
 5876 18a9 70       		.sleb128 -16
 5877 18aa 3B       		.uleb128 0x3b
 5878 18ab 6900     		.ascii	"i\000"
 5879 18ad 01       		.byte	0x1
 5880 18ae D201     		.2byte	0x1d2
 5881 18b0 5B000000 		.4byte	0x5b
 5882 18b4 02       		.byte	0x2
 5883 18b5 91       		.byte	0x91
 5884 18b6 6E       		.sleb128 -18
 5885 18b7 00       		.byte	0x0
 5886 18b8 00       		.byte	0x0
 5887 18b9 00       		.byte	0x0
 5888 18ba 3A       		.uleb128 0x3a
 5889 18bb 01       		.byte	0x1
 5890 18bc 30040000 		.4byte	.LASF273
 5891 18c0 01       		.byte	0x1
 5892 18c1 0C02     		.2byte	0x20c
 5893 18c3 EB0B0000 		.4byte	.LASF274
 5894 18c7 4D000000 		.4byte	0x4d
 5895 18cb 00000000 		.4byte	.LFB116
 5896 18cf 1C010000 		.4byte	.LFE116
 5897 18d3 C4000000 		.4byte	.LLST5
 5898 18d7 34190000 		.4byte	0x1934
 5899 18db 41       		.uleb128 0x41
 5900 18dc 2F050000 		.4byte	.LASF267
 5901 18e0 01       		.byte	0x1
 5902 18e1 0C02     		.2byte	0x20c
 5903 18e3 8D020000 		.4byte	0x28d
 5904 18e7 02       		.byte	0x2
 5905 18e8 91       		.byte	0x91
 5906 18e9 74       		.sleb128 -12
 5907 18ea 41       		.uleb128 0x41
 5908 18eb EE000000 		.4byte	.LASF211
 5909 18ef 01       		.byte	0x1
 5910 18f0 0C02     		.2byte	0x20c
 5911 18f2 13050000 		.4byte	0x513
 5912 18f6 02       		.byte	0x2
 5913 18f7 91       		.byte	0x91
ARM GAS  /tmp/ccX0J2UF.s 			page 123


 5914 18f8 70       		.sleb128 -16
 5915 18f9 41       		.uleb128 0x41
 5916 18fa 55000000 		.4byte	.LASF275
 5917 18fe 01       		.byte	0x1
 5918 18ff 0C02     		.2byte	0x20c
 5919 1901 5B000000 		.4byte	0x5b
 5920 1905 02       		.byte	0x2
 5921 1906 91       		.byte	0x91
 5922 1907 6E       		.sleb128 -18
 5923 1908 41       		.uleb128 0x41
 5924 1909 580B0000 		.4byte	.LASF268
 5925 190d 01       		.byte	0x1
 5926 190e 0C02     		.2byte	0x20c
 5927 1910 5B000000 		.4byte	0x5b
 5928 1914 02       		.byte	0x2
 5929 1915 91       		.byte	0x91
 5930 1916 6C       		.sleb128 -20
 5931 1917 41       		.uleb128 0x41
 5932 1918 8F0E0000 		.4byte	.LASF276
 5933 191c 01       		.byte	0x1
 5934 191d 0C02     		.2byte	0x20c
 5935 191f 9E160000 		.4byte	0x169e
 5936 1923 02       		.byte	0x2
 5937 1924 91       		.byte	0x91
 5938 1925 00       		.sleb128 0
 5939 1926 3E       		.uleb128 0x3e
 5940 1927 7000     		.ascii	"p\000"
 5941 1929 01       		.byte	0x1
 5942 192a 0C02     		.2byte	0x20c
 5943 192c 20030000 		.4byte	0x320
 5944 1930 02       		.byte	0x2
 5945 1931 91       		.byte	0x91
 5946 1932 04       		.sleb128 4
 5947 1933 00       		.byte	0x0
 5948 1934 3A       		.uleb128 0x3a
 5949 1935 01       		.byte	0x1
 5950 1936 62030000 		.4byte	.LASF277
 5951 193a 01       		.byte	0x1
 5952 193b 7A02     		.2byte	0x27a
 5953 193d 400A0000 		.4byte	.LASF278
 5954 1941 4D000000 		.4byte	0x4d
 5955 1945 00000000 		.4byte	.LFB117
 5956 1949 04030000 		.4byte	.LFE117
 5957 194d F0000000 		.4byte	.LLST6
 5958 1951 E0190000 		.4byte	0x19e0
 5959 1955 41       		.uleb128 0x41
 5960 1956 2F050000 		.4byte	.LASF267
 5961 195a 01       		.byte	0x1
 5962 195b 7A02     		.2byte	0x27a
 5963 195d 8D020000 		.4byte	0x28d
 5964 1961 02       		.byte	0x2
 5965 1962 91       		.byte	0x91
 5966 1963 5C       		.sleb128 -36
 5967 1964 41       		.uleb128 0x41
 5968 1965 EE000000 		.4byte	.LASF211
 5969 1969 01       		.byte	0x1
 5970 196a 7A02     		.2byte	0x27a
ARM GAS  /tmp/ccX0J2UF.s 			page 124


 5971 196c E0190000 		.4byte	0x19e0
 5972 1970 02       		.byte	0x2
 5973 1971 91       		.byte	0x91
 5974 1972 58       		.sleb128 -40
 5975 1973 41       		.uleb128 0x41
 5976 1974 580B0000 		.4byte	.LASF268
 5977 1978 01       		.byte	0x1
 5978 1979 7A02     		.2byte	0x27a
 5979 197b 5B000000 		.4byte	0x5b
 5980 197f 02       		.byte	0x2
 5981 1980 91       		.byte	0x91
 5982 1981 56       		.sleb128 -42
 5983 1982 37       		.uleb128 0x37
 5984 1983 18000000 		.4byte	.LBB9
 5985 1987 DC020000 		.4byte	.LBE9
 5986 198b 42       		.uleb128 0x42
 5987 198c D2070000 		.4byte	.LASF269
 5988 1990 01       		.byte	0x1
 5989 1991 8102     		.2byte	0x281
 5990 1993 8D020000 		.4byte	0x28d
 5991 1997 02       		.byte	0x2
 5992 1998 91       		.byte	0x91
 5993 1999 68       		.sleb128 -24
 5994 199a 42       		.uleb128 0x42
 5995 199b 22030000 		.4byte	.LASF270
 5996 199f 01       		.byte	0x1
 5997 19a0 8202     		.2byte	0x282
 5998 19a2 5B000000 		.4byte	0x5b
 5999 19a6 02       		.byte	0x2
 6000 19a7 91       		.byte	0x91
 6001 19a8 66       		.sleb128 -26
 6002 19a9 42       		.uleb128 0x42
 6003 19aa 44030000 		.4byte	.LASF279
 6004 19ae 01       		.byte	0x1
 6005 19af 8302     		.2byte	0x283
 6006 19b1 5B000000 		.4byte	0x5b
 6007 19b5 02       		.byte	0x2
 6008 19b6 91       		.byte	0x91
 6009 19b7 76       		.sleb128 -10
 6010 19b8 37       		.uleb128 0x37
 6011 19b9 1C000000 		.4byte	.LBB10
 6012 19bd BC020000 		.4byte	.LBE10
 6013 19c1 42       		.uleb128 0x42
 6014 19c2 FD090000 		.4byte	.LASF272
 6015 19c6 01       		.byte	0x1
 6016 19c7 BE02     		.2byte	0x2be
 6017 19c9 13050000 		.4byte	0x513
 6018 19cd 02       		.byte	0x2
 6019 19ce 91       		.byte	0x91
 6020 19cf 70       		.sleb128 -16
 6021 19d0 3B       		.uleb128 0x3b
 6022 19d1 6900     		.ascii	"i\000"
 6023 19d3 01       		.byte	0x1
 6024 19d4 BF02     		.2byte	0x2bf
 6025 19d6 5B000000 		.4byte	0x5b
 6026 19da 02       		.byte	0x2
 6027 19db 91       		.byte	0x91
ARM GAS  /tmp/ccX0J2UF.s 			page 125


 6028 19dc 6E       		.sleb128 -18
 6029 19dd 00       		.byte	0x0
 6030 19de 00       		.byte	0x0
 6031 19df 00       		.byte	0x0
 6032 19e0 12       		.uleb128 0x12
 6033 19e1 04       		.byte	0x4
 6034 19e2 E6190000 		.4byte	0x19e6
 6035 19e6 1C       		.uleb128 0x1c
 6036 19e7 4D000000 		.4byte	0x4d
 6037 19eb 43       		.uleb128 0x43
 6038 19ec 01       		.byte	0x1
 6039 19ed 12100000 		.4byte	.LASF281
 6040 19f1 01       		.byte	0x1
 6041 19f2 E802     		.2byte	0x2e8
 6042 19f4 8F0F0000 		.4byte	.LASF283
 6043 19f8 4D000000 		.4byte	0x4d
 6044 19fc 00000000 		.4byte	.LFB118
 6045 1a00 74000000 		.4byte	.LFE118
 6046 1a04 1C010000 		.4byte	.LLST7
 6047 1a08 3A       		.uleb128 0x3a
 6048 1a09 01       		.byte	0x1
 6049 1a0a 040F0000 		.4byte	.LASF284
 6050 1a0e 01       		.byte	0x1
 6051 1a0f 0603     		.2byte	0x306
 6052 1a11 B6060000 		.4byte	.LASF285
 6053 1a15 4D000000 		.4byte	0x4d
 6054 1a19 00000000 		.4byte	.LFB119
 6055 1a1d D0040000 		.4byte	.LFE119
 6056 1a21 3C010000 		.4byte	.LLST8
 6057 1a25 AF1A0000 		.4byte	0x1aaf
 6058 1a29 41       		.uleb128 0x41
 6059 1a2a 81090000 		.4byte	.LASF286
 6060 1a2e 01       		.byte	0x1
 6061 1a2f 0603     		.2byte	0x306
 6062 1a31 AF1A0000 		.4byte	0x1aaf
 6063 1a35 02       		.byte	0x2
 6064 1a36 91       		.byte	0x91
 6065 1a37 6C       		.sleb128 -20
 6066 1a38 37       		.uleb128 0x37
 6067 1a39 0C000000 		.4byte	.LBB11
 6068 1a3d B8040000 		.4byte	.LBE11
 6069 1a41 3B       		.uleb128 0x3b
 6070 1a42 6900     		.ascii	"i\000"
 6071 1a44 01       		.byte	0x1
 6072 1a45 1603     		.2byte	0x316
 6073 1a47 4D000000 		.4byte	0x4d
 6074 1a4b 02       		.byte	0x2
 6075 1a4c 91       		.byte	0x91
 6076 1a4d 77       		.sleb128 -9
 6077 1a4e 42       		.uleb128 0x42
 6078 1a4f 34000000 		.4byte	.LASF287
 6079 1a53 01       		.byte	0x1
 6080 1a54 3F03     		.2byte	0x33f
 6081 1a56 4D000000 		.4byte	0x4d
 6082 1a5a 02       		.byte	0x2
 6083 1a5b 91       		.byte	0x91
 6084 1a5c 76       		.sleb128 -10
ARM GAS  /tmp/ccX0J2UF.s 			page 126


 6085 1a5d 42       		.uleb128 0x42
 6086 1a5e 73100000 		.4byte	.LASF288
 6087 1a62 01       		.byte	0x1
 6088 1a63 4003     		.2byte	0x340
 6089 1a65 4D000000 		.4byte	0x4d
 6090 1a69 02       		.byte	0x2
 6091 1a6a 91       		.byte	0x91
 6092 1a6b 75       		.sleb128 -11
 6093 1a6c 42       		.uleb128 0x42
 6094 1a6d B20E0000 		.4byte	.LASF289
 6095 1a71 01       		.byte	0x1
 6096 1a72 4103     		.2byte	0x341
 6097 1a74 5B000000 		.4byte	0x5b
 6098 1a78 02       		.byte	0x2
 6099 1a79 91       		.byte	0x91
 6100 1a7a 72       		.sleb128 -14
 6101 1a7b 44       		.uleb128 0x44
 6102 1a7c DC000000 		.4byte	.LBB13
 6103 1a80 24020000 		.4byte	.LBE13
 6104 1a84 961A0000 		.4byte	0x1a96
 6105 1a88 3B       		.uleb128 0x3b
 6106 1a89 6200     		.ascii	"b\000"
 6107 1a8b 01       		.byte	0x1
 6108 1a8c 1903     		.2byte	0x319
 6109 1a8e 4D000000 		.4byte	0x4d
 6110 1a92 02       		.byte	0x2
 6111 1a93 91       		.byte	0x91
 6112 1a94 71       		.sleb128 -15
 6113 1a95 00       		.byte	0x0
 6114 1a96 37       		.uleb128 0x37
 6115 1a97 D8020000 		.4byte	.LBB15
 6116 1a9b 78040000 		.4byte	.LBE15
 6117 1a9f 3B       		.uleb128 0x3b
 6118 1aa0 6200     		.ascii	"b\000"
 6119 1aa2 01       		.byte	0x1
 6120 1aa3 4A03     		.2byte	0x34a
 6121 1aa5 4D000000 		.4byte	0x4d
 6122 1aa9 02       		.byte	0x2
 6123 1aaa 91       		.byte	0x91
 6124 1aab 70       		.sleb128 -16
 6125 1aac 00       		.byte	0x0
 6126 1aad 00       		.byte	0x0
 6127 1aae 00       		.byte	0x0
 6128 1aaf 12       		.uleb128 0x12
 6129 1ab0 04       		.byte	0x4
 6130 1ab1 D9150000 		.4byte	0x15d9
 6131 1ab5 45       		.uleb128 0x45
 6132 1ab6 01       		.byte	0x1
 6133 1ab7 40010000 		.4byte	.LASF386
 6134 1abb 01       		.byte	0x1
 6135 1abc 7603     		.2byte	0x376
 6136 1abe B2070000 		.4byte	.LASF387
 6137 1ac2 00000000 		.4byte	.LFB120
 6138 1ac6 34000000 		.4byte	.LFE120
 6139 1aca 02       		.byte	0x2
 6140 1acb 7D       		.byte	0x7d
 6141 1acc 00       		.sleb128 0
ARM GAS  /tmp/ccX0J2UF.s 			page 127


 6142 1acd 3A       		.uleb128 0x3a
 6143 1ace 01       		.byte	0x1
 6144 1acf 8D010000 		.4byte	.LASF290
 6145 1ad3 01       		.byte	0x1
 6146 1ad4 8003     		.2byte	0x380
 6147 1ad6 8E030000 		.4byte	.LASF291
 6148 1ada 75090000 		.4byte	0x975
 6149 1ade 00000000 		.4byte	.LFB121
 6150 1ae2 B4020000 		.4byte	.LFE121
 6151 1ae6 68010000 		.4byte	.LLST9
 6152 1aea 261B0000 		.4byte	0x1b26
 6153 1aee 41       		.uleb128 0x41
 6154 1aef 190A0000 		.4byte	.LASF292
 6155 1af3 01       		.byte	0x1
 6156 1af4 8003     		.2byte	0x380
 6157 1af6 75090000 		.4byte	0x975
 6158 1afa 03       		.byte	0x3
 6159 1afb 91       		.byte	0x91
 6160 1afc EF7B     		.sleb128 -529
 6161 1afe 37       		.uleb128 0x37
 6162 1aff 10000000 		.4byte	.LBB16
 6163 1b03 9C020000 		.4byte	.LBE16
 6164 1b07 3B       		.uleb128 0x3b
 6165 1b08 6900     		.ascii	"i\000"
 6166 1b0a 01       		.byte	0x1
 6167 1b0b 8A03     		.2byte	0x38a
 6168 1b0d 94020000 		.4byte	0x294
 6169 1b11 02       		.byte	0x2
 6170 1b12 91       		.byte	0x91
 6171 1b13 74       		.sleb128 -12
 6172 1b14 42       		.uleb128 0x42
 6173 1b15 B2010000 		.4byte	.LASF293
 6174 1b19 01       		.byte	0x1
 6175 1b1a 8B03     		.2byte	0x38b
 6176 1b1c 261B0000 		.4byte	0x1b26
 6177 1b20 03       		.byte	0x3
 6178 1b21 91       		.byte	0x91
 6179 1b22 F47B     		.sleb128 -524
 6180 1b24 00       		.byte	0x0
 6181 1b25 00       		.byte	0x0
 6182 1b26 0D       		.uleb128 0xd
 6183 1b27 4D000000 		.4byte	0x4d
 6184 1b2b 371B0000 		.4byte	0x1b37
 6185 1b2f 46       		.uleb128 0x46
 6186 1b30 8D020000 		.4byte	0x28d
 6187 1b34 FF01     		.2byte	0x1ff
 6188 1b36 00       		.byte	0x0
 6189 1b37 42       		.uleb128 0x42
 6190 1b38 89070000 		.4byte	.LASF294
 6191 1b3c 18       		.byte	0x18
 6192 1b3d 8501     		.2byte	0x185
 6193 1b3f 4A130000 		.4byte	0x134a
 6194 1b43 05       		.byte	0x5
 6195 1b44 03       		.byte	0x3
 6196 1b45 68000000 		.4byte	_ZL12VIC_USB_Intr
 6197 1b49 42       		.uleb128 0x42
 6198 1b4a 5D0C0000 		.4byte	.LASF295
ARM GAS  /tmp/ccX0J2UF.s 			page 128


 6199 1b4e 18       		.byte	0x18
 6200 1b4f 8801     		.2byte	0x188
 6201 1b51 4A130000 		.4byte	0x134a
 6202 1b55 05       		.byte	0x5
 6203 1b56 03       		.byte	0x3
 6204 1b57 6C000000 		.4byte	_ZL9CCR_CLKEN
 6205 1b5b 42       		.uleb128 0x42
 6206 1b5c A20B0000 		.4byte	.LASF296
 6207 1b60 18       		.byte	0x18
 6208 1b61 8B01     		.2byte	0x18b
 6209 1b63 4A130000 		.4byte	0x134a
 6210 1b67 05       		.byte	0x5
 6211 1b68 03       		.byte	0x3
 6212 1b69 70000000 		.4byte	_ZL10CCR_CTCRST
 6213 1b6d 42       		.uleb128 0x42
 6214 1b6e 70090000 		.4byte	.LASF297
 6215 1b72 18       		.byte	0x18
 6216 1b73 8E01     		.2byte	0x18e
 6217 1b75 4A130000 		.4byte	0x134a
 6218 1b79 05       		.byte	0x5
 6219 1b7a 03       		.byte	0x3
 6220 1b7b 74000000 		.4byte	_ZL16CCR_CLKSRC_32KHZ
 6221 1b7f 42       		.uleb128 0x42
 6222 1b80 0D090000 		.4byte	.LASF298
 6223 1b84 18       		.byte	0x18
 6224 1b85 9101     		.2byte	0x191
 6225 1b87 4A130000 		.4byte	0x134a
 6226 1b8b 05       		.byte	0x5
 6227 1b8c 03       		.byte	0x3
 6228 1b8d 78000000 		.4byte	_ZL18VIC_Channel_Timer0
 6229 1b91 42       		.uleb128 0x42
 6230 1b92 20090000 		.4byte	.LASF299
 6231 1b96 18       		.byte	0x18
 6232 1b97 9401     		.2byte	0x194
 6233 1b99 4A130000 		.4byte	0x134a
 6234 1b9d 05       		.byte	0x5
 6235 1b9e 03       		.byte	0x3
 6236 1b9f 7C000000 		.4byte	_ZL18VIC_Channel_Timer1
 6237 1ba3 42       		.uleb128 0x42
 6238 1ba4 C1090000 		.4byte	.LASF300
 6239 1ba8 18       		.byte	0x18
 6240 1ba9 9701     		.2byte	0x197
 6241 1bab 4A130000 		.4byte	0x134a
 6242 1baf 05       		.byte	0x5
 6243 1bb0 03       		.byte	0x3
 6244 1bb1 80000000 		.4byte	_ZL17VIC_Channel_UART0
 6245 1bb5 42       		.uleb128 0x42
 6246 1bb6 D3090000 		.4byte	.LASF301
 6247 1bba 18       		.byte	0x18
 6248 1bbb 9A01     		.2byte	0x19a
 6249 1bbd 4A130000 		.4byte	0x134a
 6250 1bc1 05       		.byte	0x5
 6251 1bc2 03       		.byte	0x3
 6252 1bc3 84000000 		.4byte	_ZL17VIC_Channel_UART1
 6253 1bc7 42       		.uleb128 0x42
 6254 1bc8 4D0C0000 		.4byte	.LASF302
 6255 1bcc 18       		.byte	0x18
ARM GAS  /tmp/ccX0J2UF.s 			page 129


 6256 1bcd 9D01     		.2byte	0x19d
 6257 1bcf 4A130000 		.4byte	0x134a
 6258 1bd3 05       		.byte	0x5
 6259 1bd4 03       		.byte	0x3
 6260 1bd5 88000000 		.4byte	_ZL15VIC_Channel_USB
 6261 1bd9 42       		.uleb128 0x42
 6262 1bda FF000000 		.4byte	.LASF303
 6263 1bde 18       		.byte	0x18
 6264 1bdf 9F01     		.2byte	0x19f
 6265 1be1 4A130000 		.4byte	0x134a
 6266 1be5 05       		.byte	0x5
 6267 1be6 03       		.byte	0x3
 6268 1be7 8C000000 		.4byte	_ZL18VICVectCntl_ENABLE
 6269 1beb 42       		.uleb128 0x42
 6270 1bec BC080000 		.4byte	.LASF304
 6271 1bf0 18       		.byte	0x18
 6272 1bf1 A201     		.2byte	0x1a2
 6273 1bf3 4A130000 		.4byte	0x134a
 6274 1bf7 05       		.byte	0x5
 6275 1bf8 03       		.byte	0x3
 6276 1bf9 90000000 		.4byte	_ZL10UIER_ERBFI
 6277 1bfd 42       		.uleb128 0x42
 6278 1bfe 53040000 		.4byte	.LASF305
 6279 1c02 18       		.byte	0x18
 6280 1c03 A401     		.2byte	0x1a4
 6281 1c05 4A130000 		.4byte	0x134a
 6282 1c09 05       		.byte	0x5
 6283 1c0a 03       		.byte	0x3
 6284 1c0b 94000000 		.4byte	_ZL12UIIR_ID_MASK
 6285 1c0f 42       		.uleb128 0x42
 6286 1c10 EB0F0000 		.4byte	.LASF306
 6287 1c14 18       		.byte	0x18
 6288 1c15 A601     		.2byte	0x1a6
 6289 1c17 4A130000 		.4byte	0x134a
 6290 1c1b 05       		.byte	0x5
 6291 1c1c 03       		.byte	0x3
 6292 1c1d 98000000 		.4byte	_ZL12UIIR_RDA_INT
 6293 1c21 42       		.uleb128 0x42
 6294 1c22 A9040000 		.4byte	.LASF307
 6295 1c26 18       		.byte	0x18
 6296 1c27 A801     		.2byte	0x1a8
 6297 1c29 4A130000 		.4byte	0x134a
 6298 1c2d 05       		.byte	0x5
 6299 1c2e 03       		.byte	0x3
 6300 1c2f 9C000000 		.4byte	_ZL8ULSR_RDR
 6301 1c33 42       		.uleb128 0x42
 6302 1c34 FF040000 		.4byte	.LASF308
 6303 1c38 18       		.byte	0x18
 6304 1c39 AB01     		.2byte	0x1ab
 6305 1c3b 4A130000 		.4byte	0x134a
 6306 1c3f 05       		.byte	0x5
 6307 1c40 03       		.byte	0x3
 6308 1c41 A0000000 		.4byte	_ZL5SSEL1
 6309 1c45 42       		.uleb128 0x42
 6310 1c46 A2010000 		.4byte	.LASF309
 6311 1c4a 18       		.byte	0x18
 6312 1c4b AE01     		.2byte	0x1ae
ARM GAS  /tmp/ccX0J2UF.s 			page 130


 6313 1c4d 4A130000 		.4byte	0x134a
 6314 1c51 05       		.byte	0x5
 6315 1c52 03       		.byte	0x3
 6316 1c53 A4000000 		.4byte	_ZL9SSPSR_TFE
 6317 1c57 42       		.uleb128 0x42
 6318 1c58 820A0000 		.4byte	.LASF310
 6319 1c5c 18       		.byte	0x18
 6320 1c5d B101     		.2byte	0x1b1
 6321 1c5f 4A130000 		.4byte	0x134a
 6322 1c63 05       		.byte	0x5
 6323 1c64 03       		.byte	0x3
 6324 1c65 A8000000 		.4byte	_ZL9SSPSR_TNF
 6325 1c69 42       		.uleb128 0x42
 6326 1c6a F5000000 		.4byte	.LASF311
 6327 1c6e 18       		.byte	0x18
 6328 1c6f B401     		.2byte	0x1b4
 6329 1c71 4A130000 		.4byte	0x134a
 6330 1c75 05       		.byte	0x5
 6331 1c76 03       		.byte	0x3
 6332 1c77 AC000000 		.4byte	_ZL9SSPSR_RNE
 6333 1c7b 42       		.uleb128 0x42
 6334 1c7c 2D0E0000 		.4byte	.LASF312
 6335 1c80 18       		.byte	0x18
 6336 1c81 B701     		.2byte	0x1b7
 6337 1c83 4A130000 		.4byte	0x134a
 6338 1c87 05       		.byte	0x5
 6339 1c88 03       		.byte	0x3
 6340 1c89 B0000000 		.4byte	_ZL9SSPSR_BSY
 6341 1c8d 42       		.uleb128 0x42
 6342 1c8e 62080000 		.4byte	.LASF313
 6343 1c92 18       		.byte	0x18
 6344 1c93 BA01     		.2byte	0x1ba
 6345 1c95 4A130000 		.4byte	0x134a
 6346 1c99 05       		.byte	0x5
 6347 1c9a 03       		.byte	0x3
 6348 1c9b B4000000 		.4byte	_ZL11SSPCR0_CPOL
 6349 1c9f 42       		.uleb128 0x42
 6350 1ca0 B2040000 		.4byte	.LASF314
 6351 1ca4 18       		.byte	0x18
 6352 1ca5 BD01     		.2byte	0x1bd
 6353 1ca7 4A130000 		.4byte	0x134a
 6354 1cab 05       		.byte	0x5
 6355 1cac 03       		.byte	0x3
 6356 1cad B8000000 		.4byte	_ZL11SSPCR0_CPHA
 6357 1cb1 42       		.uleb128 0x42
 6358 1cb2 150D0000 		.4byte	.LASF315
 6359 1cb6 18       		.byte	0x18
 6360 1cb7 BF01     		.2byte	0x1bf
 6361 1cb9 4A130000 		.4byte	0x134a
 6362 1cbd 05       		.byte	0x5
 6363 1cbe 03       		.byte	0x3
 6364 1cbf BC000000 		.4byte	_ZL13I2CxCONCLR_AA
 6365 1cc3 42       		.uleb128 0x42
 6366 1cc4 7D0B0000 		.4byte	.LASF316
 6367 1cc8 18       		.byte	0x18
 6368 1cc9 C001     		.2byte	0x1c0
 6369 1ccb 4A130000 		.4byte	0x134a
ARM GAS  /tmp/ccX0J2UF.s 			page 131


 6370 1ccf 05       		.byte	0x5
 6371 1cd0 03       		.byte	0x3
 6372 1cd1 C0000000 		.4byte	_ZL13I2CxCONCLR_SI
 6373 1cd5 42       		.uleb128 0x42
 6374 1cd6 01060000 		.4byte	.LASF317
 6375 1cda 18       		.byte	0x18
 6376 1cdb C101     		.2byte	0x1c1
 6377 1cdd 4A130000 		.4byte	0x134a
 6378 1ce1 05       		.byte	0x5
 6379 1ce2 03       		.byte	0x3
 6380 1ce3 C4000000 		.4byte	_ZL15I2CxCONCLR_STAC
 6381 1ce7 42       		.uleb128 0x42
 6382 1ce8 A7090000 		.4byte	.LASF318
 6383 1cec 18       		.byte	0x18
 6384 1ced C201     		.2byte	0x1c2
 6385 1cef 4A130000 		.4byte	0x134a
 6386 1cf3 05       		.byte	0x5
 6387 1cf4 03       		.byte	0x3
 6388 1cf5 C8000000 		.4byte	_ZL16I2CxCONCLR_I2ENC
 6389 1cf9 42       		.uleb128 0x42
 6390 1cfa E0000000 		.4byte	.LASF319
 6391 1cfe 18       		.byte	0x18
 6392 1cff C401     		.2byte	0x1c4
 6393 1d01 4A130000 		.4byte	0x134a
 6394 1d05 05       		.byte	0x5
 6395 1d06 03       		.byte	0x3
 6396 1d07 CC000000 		.4byte	_ZL13I2CxCONSET_AA
 6397 1d0b 42       		.uleb128 0x42
 6398 1d0c D2030000 		.4byte	.LASF320
 6399 1d10 18       		.byte	0x18
 6400 1d11 C501     		.2byte	0x1c5
 6401 1d13 4A130000 		.4byte	0x134a
 6402 1d17 05       		.byte	0x5
 6403 1d18 03       		.byte	0x3
 6404 1d19 D0000000 		.4byte	_ZL13I2CxCONSET_SI
 6405 1d1d 42       		.uleb128 0x42
 6406 1d1e 36070000 		.4byte	.LASF321
 6407 1d22 18       		.byte	0x18
 6408 1d23 C601     		.2byte	0x1c6
 6409 1d25 4A130000 		.4byte	0x134a
 6410 1d29 05       		.byte	0x5
 6411 1d2a 03       		.byte	0x3
 6412 1d2b D4000000 		.4byte	_ZL14I2CxCONSET_STO
 6413 1d2f 42       		.uleb128 0x42
 6414 1d30 84060000 		.4byte	.LASF322
 6415 1d34 18       		.byte	0x18
 6416 1d35 C701     		.2byte	0x1c7
 6417 1d37 4A130000 		.4byte	0x134a
 6418 1d3b 05       		.byte	0x5
 6419 1d3c 03       		.byte	0x3
 6420 1d3d D8000000 		.4byte	_ZL14I2CxCONSET_STA
 6421 1d41 42       		.uleb128 0x42
 6422 1d42 11060000 		.4byte	.LASF323
 6423 1d46 18       		.byte	0x18
 6424 1d47 C801     		.2byte	0x1c8
 6425 1d49 4A130000 		.4byte	0x134a
 6426 1d4d 05       		.byte	0x5
ARM GAS  /tmp/ccX0J2UF.s 			page 132


 6427 1d4e 03       		.byte	0x3
 6428 1d4f DC000000 		.4byte	_ZL15I2CxCONSET_I2EN
 6429 1d53 42       		.uleb128 0x42
 6430 1d54 DC0C0000 		.4byte	.LASF324
 6431 1d58 18       		.byte	0x18
 6432 1d59 CB01     		.2byte	0x1cb
 6433 1d5b 4A130000 		.4byte	0x134a
 6434 1d5f 05       		.byte	0x5
 6435 1d60 03       		.byte	0x3
 6436 1d61 E0000000 		.4byte	_ZL20TxTCR_COUNTER_ENABLE
 6437 1d65 42       		.uleb128 0x42
 6438 1d66 150B0000 		.4byte	.LASF325
 6439 1d6a 18       		.byte	0x18
 6440 1d6b CC01     		.2byte	0x1cc
 6441 1d6d 4A130000 		.4byte	0x134a
 6442 1d71 05       		.byte	0x5
 6443 1d72 03       		.byte	0x3
 6444 1d73 E4000000 		.4byte	_ZL19TxTCR_COUNTER_RESET
 6445 1d77 42       		.uleb128 0x42
 6446 1d78 CF000000 		.4byte	.LASF326
 6447 1d7c 18       		.byte	0x18
 6448 1d7d CD01     		.2byte	0x1cd
 6449 1d7f 4A130000 		.4byte	0x134a
 6450 1d83 05       		.byte	0x5
 6451 1d84 03       		.byte	0x3
 6452 1d85 E8000000 		.4byte	_ZL16TxMCR_INT_ON_MR0
 6453 1d89 42       		.uleb128 0x42
 6454 1d8a 75040000 		.4byte	.LASF327
 6455 1d8e 18       		.byte	0x18
 6456 1d8f CE01     		.2byte	0x1ce
 6457 1d91 4A130000 		.4byte	0x134a
 6458 1d95 05       		.byte	0x5
 6459 1d96 03       		.byte	0x3
 6460 1d97 EC000000 		.4byte	_ZL18TxMCR_RESET_ON_MR0
 6461 1d9b 42       		.uleb128 0x42
 6462 1d9c 9B0A0000 		.4byte	.LASF328
 6463 1da0 18       		.byte	0x18
 6464 1da1 D001     		.2byte	0x1d0
 6465 1da3 4A130000 		.4byte	0x134a
 6466 1da7 05       		.byte	0x5
 6467 1da8 03       		.byte	0x3
 6468 1da9 F0000000 		.4byte	_ZL13TxIR_MR0_FLAG
 6469 1dad 42       		.uleb128 0x42
 6470 1dae 97020000 		.4byte	.LASF329
 6471 1db2 18       		.byte	0x18
 6472 1db3 D101     		.2byte	0x1d1
 6473 1db5 4A130000 		.4byte	0x134a
 6474 1db9 05       		.byte	0x5
 6475 1dba 03       		.byte	0x3
 6476 1dbb F4000000 		.4byte	_ZL13TxIR_MR1_FLAG
 6477 1dbf 42       		.uleb128 0x42
 6478 1dc0 320C0000 		.4byte	.LASF330
 6479 1dc4 18       		.byte	0x18
 6480 1dc5 D201     		.2byte	0x1d2
 6481 1dc7 4A130000 		.4byte	0x134a
 6482 1dcb 05       		.byte	0x5
 6483 1dcc 03       		.byte	0x3
ARM GAS  /tmp/ccX0J2UF.s 			page 133


 6484 1dcd F8000000 		.4byte	_ZL13TxIR_MR2_FLAG
 6485 1dd1 42       		.uleb128 0x42
 6486 1dd2 EC070000 		.4byte	.LASF331
 6487 1dd6 18       		.byte	0x18
 6488 1dd7 D301     		.2byte	0x1d3
 6489 1dd9 4A130000 		.4byte	0x134a
 6490 1ddd 05       		.byte	0x5
 6491 1dde 03       		.byte	0x3
 6492 1ddf FC000000 		.4byte	_ZL13TxIR_MR3_FLAG
 6493 1de3 42       		.uleb128 0x42
 6494 1de4 0A040000 		.4byte	.LASF332
 6495 1de8 18       		.byte	0x18
 6496 1de9 D501     		.2byte	0x1d5
 6497 1deb 4A130000 		.4byte	0x134a
 6498 1def 05       		.byte	0x5
 6499 1df0 03       		.byte	0x3
 6500 1df1 00010000 		.4byte	_ZL13TxIR_CR0_FLAG
 6501 1df5 42       		.uleb128 0x42
 6502 1df6 BE0A0000 		.4byte	.LASF333
 6503 1dfa 18       		.byte	0x18
 6504 1dfb D601     		.2byte	0x1d6
 6505 1dfd 4A130000 		.4byte	0x134a
 6506 1e01 05       		.byte	0x5
 6507 1e02 03       		.byte	0x3
 6508 1e03 04010000 		.4byte	_ZL13TxIR_CR1_FLAG
 6509 1e07 42       		.uleb128 0x42
 6510 1e08 7F020000 		.4byte	.LASF334
 6511 1e0c 18       		.byte	0x18
 6512 1e0d D701     		.2byte	0x1d7
 6513 1e0f 4A130000 		.4byte	0x134a
 6514 1e13 05       		.byte	0x5
 6515 1e14 03       		.byte	0x3
 6516 1e15 08010000 		.4byte	_ZL13TxIR_CR2_FLAG
 6517 1e19 42       		.uleb128 0x42
 6518 1e1a AB0D0000 		.4byte	.LASF335
 6519 1e1e 18       		.byte	0x18
 6520 1e1f D801     		.2byte	0x1d8
 6521 1e21 4A130000 		.4byte	0x134a
 6522 1e25 05       		.byte	0x5
 6523 1e26 03       		.byte	0x3
 6524 1e27 0C010000 		.4byte	_ZL13TxIR_CR3_FLAG
 6525 1e2b 42       		.uleb128 0x42
 6526 1e2c 80050000 		.4byte	.LASF336
 6527 1e30 18       		.byte	0x18
 6528 1e31 DA01     		.2byte	0x1da
 6529 1e33 4A130000 		.4byte	0x134a
 6530 1e37 05       		.byte	0x5
 6531 1e38 03       		.byte	0x3
 6532 1e39 10010000 		.4byte	_ZL12TxCCR_CAP0RE
 6533 1e3d 42       		.uleb128 0x42
 6534 1e3e 1F0C0000 		.4byte	.LASF337
 6535 1e42 18       		.byte	0x18
 6536 1e43 DB01     		.2byte	0x1db
 6537 1e45 4A130000 		.4byte	0x134a
 6538 1e49 05       		.byte	0x5
 6539 1e4a 03       		.byte	0x3
 6540 1e4b 14010000 		.4byte	_ZL12TxCCR_CAP0FE
ARM GAS  /tmp/ccX0J2UF.s 			page 134


 6541 1e4f 42       		.uleb128 0x42
 6542 1e50 6F0A0000 		.4byte	.LASF338
 6543 1e54 18       		.byte	0x18
 6544 1e55 DC01     		.2byte	0x1dc
 6545 1e57 4A130000 		.4byte	0x134a
 6546 1e5b 05       		.byte	0x5
 6547 1e5c 03       		.byte	0x3
 6548 1e5d 18010000 		.4byte	_ZL11TxCCR_CAP0I
 6549 1e61 42       		.uleb128 0x42
 6550 1e62 400C0000 		.4byte	.LASF339
 6551 1e66 18       		.byte	0x18
 6552 1e67 DE01     		.2byte	0x1de
 6553 1e69 4A130000 		.4byte	0x134a
 6554 1e6d 05       		.byte	0x5
 6555 1e6e 03       		.byte	0x3
 6556 1e6f 1C010000 		.4byte	_ZL12TxCCR_CAP1RE
 6557 1e73 42       		.uleb128 0x42
 6558 1e74 DE0F0000 		.4byte	.LASF340
 6559 1e78 18       		.byte	0x18
 6560 1e79 DF01     		.2byte	0x1df
 6561 1e7b 4A130000 		.4byte	0x134a
 6562 1e7f 05       		.byte	0x5
 6563 1e80 03       		.byte	0x3
 6564 1e81 20010000 		.4byte	_ZL12TxCCR_CAP1FE
 6565 1e85 42       		.uleb128 0x42
 6566 1e86 290B0000 		.4byte	.LASF341
 6567 1e8a 18       		.byte	0x18
 6568 1e8b E001     		.2byte	0x1e0
 6569 1e8d 4A130000 		.4byte	0x134a
 6570 1e91 05       		.byte	0x5
 6571 1e92 03       		.byte	0x3
 6572 1e93 24010000 		.4byte	_ZL11TxCCR_CAP1I
 6573 1e97 42       		.uleb128 0x42
 6574 1e98 DE010000 		.4byte	.LASF342
 6575 1e9c 18       		.byte	0x18
 6576 1e9d E201     		.2byte	0x1e2
 6577 1e9f 4A130000 		.4byte	0x134a
 6578 1ea3 05       		.byte	0x5
 6579 1ea4 03       		.byte	0x3
 6580 1ea5 28010000 		.4byte	_ZL12TxCCR_CAP2RE
 6581 1ea9 42       		.uleb128 0x42
 6582 1eaa 9F050000 		.4byte	.LASF343
 6583 1eae 18       		.byte	0x18
 6584 1eaf E301     		.2byte	0x1e3
 6585 1eb1 4A130000 		.4byte	0x134a
 6586 1eb5 05       		.byte	0x5
 6587 1eb6 03       		.byte	0x3
 6588 1eb7 2C010000 		.4byte	_ZL12TxCCR_CAP2FE
 6589 1ebb 42       		.uleb128 0x42
 6590 1ebc CA0C0000 		.4byte	.LASF344
 6591 1ec0 18       		.byte	0x18
 6592 1ec1 E401     		.2byte	0x1e4
 6593 1ec3 4A130000 		.4byte	0x134a
 6594 1ec7 05       		.byte	0x5
 6595 1ec8 03       		.byte	0x3
 6596 1ec9 30010000 		.4byte	_ZL11TxCCR_CAP2I
 6597 1ecd 42       		.uleb128 0x42
ARM GAS  /tmp/ccX0J2UF.s 			page 135


 6598 1ece 560A0000 		.4byte	.LASF345
 6599 1ed2 18       		.byte	0x18
 6600 1ed3 E601     		.2byte	0x1e6
 6601 1ed5 4A130000 		.4byte	0x134a
 6602 1ed9 05       		.byte	0x5
 6603 1eda 03       		.byte	0x3
 6604 1edb 34010000 		.4byte	_ZL12TxCCR_CAP3RE
 6605 1edf 42       		.uleb128 0x42
 6606 1ee0 7D0C0000 		.4byte	.LASF346
 6607 1ee4 18       		.byte	0x18
 6608 1ee5 E701     		.2byte	0x1e7
 6609 1ee7 4A130000 		.4byte	0x134a
 6610 1eeb 05       		.byte	0x5
 6611 1eec 03       		.byte	0x3
 6612 1eed 38010000 		.4byte	_ZL12TxCCR_CAP3FE
 6613 1ef1 42       		.uleb128 0x42
 6614 1ef2 D20D0000 		.4byte	.LASF347
 6615 1ef6 18       		.byte	0x18
 6616 1ef7 E801     		.2byte	0x1e8
 6617 1ef9 4A130000 		.4byte	0x134a
 6618 1efd 05       		.byte	0x5
 6619 1efe 03       		.byte	0x3
 6620 1eff 3C010000 		.4byte	_ZL11TxCCR_CAP3I
 6621 1f03 42       		.uleb128 0x42
 6622 1f04 A90A0000 		.4byte	.LASF348
 6623 1f08 18       		.byte	0x18
 6624 1f09 EA01     		.2byte	0x1ea
 6625 1f0b 4A130000 		.4byte	0x134a
 6626 1f0f 05       		.byte	0x5
 6627 1f10 03       		.byte	0x3
 6628 1f11 40010000 		.4byte	_ZL9ADxCR_PDN
 6629 1f15 42       		.uleb128 0x42
 6630 1f16 F40E0000 		.4byte	.LASF349
 6631 1f1a 18       		.byte	0x18
 6632 1f1b EC01     		.2byte	0x1ec
 6633 1f1d 4A130000 		.4byte	0x134a
 6634 1f21 05       		.byte	0x5
 6635 1f22 03       		.byte	0x3
 6636 1f23 44010000 		.4byte	_ZL15ADxCR_START_NOW
 6637 1f27 42       		.uleb128 0x42
 6638 1f28 650B0000 		.4byte	.LASF350
 6639 1f2c 18       		.byte	0x18
 6640 1f2d EE01     		.2byte	0x1ee
 6641 1f2f 4A130000 		.4byte	0x134a
 6642 1f33 05       		.byte	0x5
 6643 1f34 03       		.byte	0x3
 6644 1f35 48010000 		.4byte	_ZL11ADxGDR_DONE
 6645 1f39 42       		.uleb128 0x42
 6646 1f3a AD0B0000 		.4byte	.LASF351
 6647 1f3e 18       		.byte	0x18
 6648 1f3f F101     		.2byte	0x1f1
 6649 1f41 4A130000 		.4byte	0x134a
 6650 1f45 05       		.byte	0x5
 6651 1f46 03       		.byte	0x3
 6652 1f47 4C010000 		.4byte	_ZL7PWMMR0R
 6653 1f4b 42       		.uleb128 0x42
 6654 1f4c 31010000 		.4byte	.LASF352
ARM GAS  /tmp/ccX0J2UF.s 			page 136


 6655 1f50 18       		.byte	0x18
 6656 1f51 F401     		.2byte	0x1f4
 6657 1f53 4A130000 		.4byte	0x134a
 6658 1f57 05       		.byte	0x5
 6659 1f58 03       		.byte	0x3
 6660 1f59 50010000 		.4byte	_ZL7LER0_EN
 6661 1f5d 42       		.uleb128 0x42
 6662 1f5e D60A0000 		.4byte	.LASF353
 6663 1f62 18       		.byte	0x18
 6664 1f63 F701     		.2byte	0x1f7
 6665 1f65 4A130000 		.4byte	0x134a
 6666 1f69 05       		.byte	0x5
 6667 1f6a 03       		.byte	0x3
 6668 1f6b 54010000 		.4byte	_ZL7LER1_EN
 6669 1f6f 42       		.uleb128 0x42
 6670 1f70 64020000 		.4byte	.LASF354
 6671 1f74 18       		.byte	0x18
 6672 1f75 FA01     		.2byte	0x1fa
 6673 1f77 4A130000 		.4byte	0x134a
 6674 1f7b 05       		.byte	0x5
 6675 1f7c 03       		.byte	0x3
 6676 1f7d 58010000 		.4byte	_ZL7LER2_EN
 6677 1f81 42       		.uleb128 0x42
 6678 1f82 880D0000 		.4byte	.LASF355
 6679 1f86 18       		.byte	0x18
 6680 1f87 FD01     		.2byte	0x1fd
 6681 1f89 4A130000 		.4byte	0x134a
 6682 1f8d 05       		.byte	0x5
 6683 1f8e 03       		.byte	0x3
 6684 1f8f 5C010000 		.4byte	_ZL7LER3_EN
 6685 1f93 42       		.uleb128 0x42
 6686 1f94 29060000 		.4byte	.LASF356
 6687 1f98 18       		.byte	0x18
 6688 1f99 0002     		.2byte	0x200
 6689 1f9b 4A130000 		.4byte	0x134a
 6690 1f9f 05       		.byte	0x5
 6691 1fa0 03       		.byte	0x3
 6692 1fa1 60010000 		.4byte	_ZL7LER4_EN
 6693 1fa5 42       		.uleb128 0x42
 6694 1fa6 1E100000 		.4byte	.LASF357
 6695 1faa 18       		.byte	0x18
 6696 1fab 0302     		.2byte	0x203
 6697 1fad 4A130000 		.4byte	0x134a
 6698 1fb1 05       		.byte	0x5
 6699 1fb2 03       		.byte	0x3
 6700 1fb3 64010000 		.4byte	_ZL7LER5_EN
 6701 1fb7 42       		.uleb128 0x42
 6702 1fb8 C7080000 		.4byte	.LASF358
 6703 1fbc 18       		.byte	0x18
 6704 1fbd 0602     		.2byte	0x206
 6705 1fbf 4A130000 		.4byte	0x134a
 6706 1fc3 05       		.byte	0x5
 6707 1fc4 03       		.byte	0x3
 6708 1fc5 68010000 		.4byte	_ZL7LER6_EN
 6709 1fc9 42       		.uleb128 0x42
 6710 1fca 4D000000 		.4byte	.LASF359
 6711 1fce 18       		.byte	0x18
ARM GAS  /tmp/ccX0J2UF.s 			page 137


 6712 1fcf 0902     		.2byte	0x209
 6713 1fd1 4A130000 		.4byte	0x134a
 6714 1fd5 05       		.byte	0x5
 6715 1fd6 03       		.byte	0x3
 6716 1fd7 6C010000 		.4byte	_ZL7PWMENA1
 6717 1fdb 42       		.uleb128 0x42
 6718 1fdc A30D0000 		.4byte	.LASF360
 6719 1fe0 18       		.byte	0x18
 6720 1fe1 0C02     		.2byte	0x20c
 6721 1fe3 4A130000 		.4byte	0x134a
 6722 1fe7 05       		.byte	0x5
 6723 1fe8 03       		.byte	0x3
 6724 1fe9 70010000 		.4byte	_ZL7PWMENA2
 6725 1fed 42       		.uleb128 0x42
 6726 1fee 5E000000 		.4byte	.LASF361
 6727 1ff2 18       		.byte	0x18
 6728 1ff3 0F02     		.2byte	0x20f
 6729 1ff5 4A130000 		.4byte	0x134a
 6730 1ff9 05       		.byte	0x5
 6731 1ffa 03       		.byte	0x3
 6732 1ffb 74010000 		.4byte	_ZL7PWMENA3
 6733 1fff 42       		.uleb128 0x42
 6734 2000 C20D0000 		.4byte	.LASF362
 6735 2004 18       		.byte	0x18
 6736 2005 1202     		.2byte	0x212
 6737 2007 4A130000 		.4byte	0x134a
 6738 200b 05       		.byte	0x5
 6739 200c 03       		.byte	0x3
 6740 200d 78010000 		.4byte	_ZL7PWMENA4
 6741 2011 42       		.uleb128 0x42
 6742 2012 CA0D0000 		.4byte	.LASF363
 6743 2016 18       		.byte	0x18
 6744 2017 1502     		.2byte	0x215
 6745 2019 4A130000 		.4byte	0x134a
 6746 201d 05       		.byte	0x5
 6747 201e 03       		.byte	0x3
 6748 201f 7C010000 		.4byte	_ZL7PWMENA5
 6749 2023 42       		.uleb128 0x42
 6750 2024 70000000 		.4byte	.LASF364
 6751 2028 18       		.byte	0x18
 6752 2029 1802     		.2byte	0x218
 6753 202b 4A130000 		.4byte	0x134a
 6754 202f 05       		.byte	0x5
 6755 2030 03       		.byte	0x3
 6756 2031 80010000 		.4byte	_ZL7PWMENA6
 6757 2035 42       		.uleb128 0x42
 6758 2036 91090000 		.4byte	.LASF365
 6759 203a 18       		.byte	0x18
 6760 203b 1B02     		.2byte	0x21b
 6761 203d 4A130000 		.4byte	0x134a
 6762 2041 05       		.byte	0x5
 6763 2042 03       		.byte	0x3
 6764 2043 84010000 		.4byte	_ZL21PWMTCR_COUNTER_ENABLE
 6765 2047 42       		.uleb128 0x42
 6766 2048 BD0F0000 		.4byte	.LASF366
 6767 204c 18       		.byte	0x18
 6768 204d 1E02     		.2byte	0x21e
ARM GAS  /tmp/ccX0J2UF.s 			page 138


 6769 204f 4A130000 		.4byte	0x134a
 6770 2053 05       		.byte	0x5
 6771 2054 03       		.byte	0x3
 6772 2055 88010000 		.4byte	_ZL12PWMTCR_RESET
 6773 2059 42       		.uleb128 0x42
 6774 205a 1D000000 		.4byte	.LASF367
 6775 205e 18       		.byte	0x18
 6776 205f 2102     		.2byte	0x221
 6777 2061 4A130000 		.4byte	0x134a
 6778 2065 05       		.byte	0x5
 6779 2066 03       		.byte	0x3
 6780 2067 8C010000 		.4byte	_ZL17PWMTCR_PWM_ENABLE
 6781 206b 42       		.uleb128 0x42
 6782 206c 1E040000 		.4byte	.LASF368
 6783 2070 18       		.byte	0x18
 6784 2071 2402     		.2byte	0x224
 6785 2073 4A130000 		.4byte	0x134a
 6786 2077 05       		.byte	0x5
 6787 2078 03       		.byte	0x3
 6788 2079 90010000 		.4byte	_ZL10WDMOD_WDEN
 6789 207d 42       		.uleb128 0x42
 6790 207e 23020000 		.4byte	.LASF369
 6791 2082 18       		.byte	0x18
 6792 2083 2702     		.2byte	0x227
 6793 2085 4A130000 		.4byte	0x134a
 6794 2089 05       		.byte	0x5
 6795 208a 03       		.byte	0x3
 6796 208b 94010000 		.4byte	_ZL13WDMOD_WDRESET
 6797 208f 38       		.uleb128 0x38
 6798 2090 5C0F0000 		.4byte	.LASF370
 6799 2094 19       		.byte	0x19
 6800 2095 1E       		.byte	0x1e
 6801 2096 4A130000 		.4byte	0x134a
 6802 209a 05       		.byte	0x5
 6803 209b 03       		.byte	0x3
 6804 209c 98010000 		.4byte	_ZL27HID_MESSAGE_ID_SYSTEM_DEBUG
 6805 20a0 38       		.uleb128 0x38
 6806 20a1 CC0A0000 		.4byte	.LASF371
 6807 20a5 01       		.byte	0x1
 6808 20a6 8A       		.byte	0x8a
 6809 20a7 261B0000 		.4byte	0x1b26
 6810 20ab 05       		.byte	0x5
 6811 20ac 03       		.byte	0x3
 6812 20ad 00000000 		.4byte	_ZL9raw_block
 6813 20b1 38       		.uleb128 0x38
 6814 20b2 C50B0000 		.4byte	.LASF372
 6815 20b6 01       		.byte	0x1
 6816 20b7 8C       		.byte	0x8c
 6817 20b8 8D020000 		.4byte	0x28d
 6818 20bc 05       		.byte	0x5
 6819 20bd 03       		.byte	0x3
 6820 20be 00020000 		.4byte	_ZL17raw_block_address
 6821 20c2 38       		.uleb128 0x38
 6822 20c3 700E0000 		.4byte	.LASF373
 6823 20c7 01       		.byte	0x1
 6824 20c8 8F       		.byte	0x8f
 6825 20c9 4D000000 		.4byte	0x4d
ARM GAS  /tmp/ccX0J2UF.s 			page 139


 6826 20cd 05       		.byte	0x5
 6827 20ce 03       		.byte	0x3
 6828 20cf 04020000 		.4byte	_ZL17raw_block_written
 6829 20d3 00       		.byte	0x0
 6830              		.section	.debug_abbrev
 6831 0000 01       		.uleb128 0x1
 6832 0001 11       		.uleb128 0x11
 6833 0002 01       		.byte	0x1
 6834 0003 25       		.uleb128 0x25
 6835 0004 0E       		.uleb128 0xe
 6836 0005 13       		.uleb128 0x13
 6837 0006 0B       		.uleb128 0xb
 6838 0007 03       		.uleb128 0x3
 6839 0008 0E       		.uleb128 0xe
 6840 0009 1B       		.uleb128 0x1b
 6841 000a 0E       		.uleb128 0xe
 6842 000b 11       		.uleb128 0x11
 6843 000c 01       		.uleb128 0x1
 6844 000d 52       		.uleb128 0x52
 6845 000e 01       		.uleb128 0x1
 6846 000f 55       		.uleb128 0x55
 6847 0010 06       		.uleb128 0x6
 6848 0011 10       		.uleb128 0x10
 6849 0012 06       		.uleb128 0x6
 6850 0013 00       		.byte	0x0
 6851 0014 00       		.byte	0x0
 6852 0015 02       		.uleb128 0x2
 6853 0016 16       		.uleb128 0x16
 6854 0017 00       		.byte	0x0
 6855 0018 03       		.uleb128 0x3
 6856 0019 0E       		.uleb128 0xe
 6857 001a 3A       		.uleb128 0x3a
 6858 001b 0B       		.uleb128 0xb
 6859 001c 3B       		.uleb128 0x3b
 6860 001d 0B       		.uleb128 0xb
 6861 001e 49       		.uleb128 0x49
 6862 001f 13       		.uleb128 0x13
 6863 0020 00       		.byte	0x0
 6864 0021 00       		.byte	0x0
 6865 0022 03       		.uleb128 0x3
 6866 0023 24       		.uleb128 0x24
 6867 0024 00       		.byte	0x0
 6868 0025 0B       		.uleb128 0xb
 6869 0026 0B       		.uleb128 0xb
 6870 0027 3E       		.uleb128 0x3e
 6871 0028 0B       		.uleb128 0xb
 6872 0029 03       		.uleb128 0x3
 6873 002a 0E       		.uleb128 0xe
 6874 002b 00       		.byte	0x0
 6875 002c 00       		.byte	0x0
 6876 002d 04       		.uleb128 0x4
 6877 002e 39       		.uleb128 0x39
 6878 002f 01       		.byte	0x1
 6879 0030 03       		.uleb128 0x3
 6880 0031 08       		.uleb128 0x8
 6881 0032 3A       		.uleb128 0x3a
 6882 0033 0B       		.uleb128 0xb
ARM GAS  /tmp/ccX0J2UF.s 			page 140


 6883 0034 3B       		.uleb128 0x3b
 6884 0035 0B       		.uleb128 0xb
 6885 0036 01       		.uleb128 0x1
 6886 0037 13       		.uleb128 0x13
 6887 0038 00       		.byte	0x0
 6888 0039 00       		.byte	0x0
 6889 003a 05       		.uleb128 0x5
 6890 003b 08       		.uleb128 0x8
 6891 003c 00       		.byte	0x0
 6892 003d 3A       		.uleb128 0x3a
 6893 003e 0B       		.uleb128 0xb
 6894 003f 3B       		.uleb128 0x3b
 6895 0040 0B       		.uleb128 0xb
 6896 0041 18       		.uleb128 0x18
 6897 0042 13       		.uleb128 0x13
 6898 0043 00       		.byte	0x0
 6899 0044 00       		.byte	0x0
 6900 0045 06       		.uleb128 0x6
 6901 0046 39       		.uleb128 0x39
 6902 0047 00       		.byte	0x0
 6903 0048 03       		.uleb128 0x3
 6904 0049 0E       		.uleb128 0xe
 6905 004a 3A       		.uleb128 0x3a
 6906 004b 0B       		.uleb128 0xb
 6907 004c 3B       		.uleb128 0x3b
 6908 004d 0B       		.uleb128 0xb
 6909 004e 00       		.byte	0x0
 6910 004f 00       		.byte	0x0
 6911 0050 07       		.uleb128 0x7
 6912 0051 24       		.uleb128 0x24
 6913 0052 00       		.byte	0x0
 6914 0053 0B       		.uleb128 0xb
 6915 0054 0B       		.uleb128 0xb
 6916 0055 3E       		.uleb128 0x3e
 6917 0056 0B       		.uleb128 0xb
 6918 0057 03       		.uleb128 0x3
 6919 0058 08       		.uleb128 0x8
 6920 0059 00       		.byte	0x0
 6921 005a 00       		.byte	0x0
 6922 005b 08       		.uleb128 0x8
 6923 005c 16       		.uleb128 0x16
 6924 005d 00       		.byte	0x0
 6925 005e 03       		.uleb128 0x3
 6926 005f 0E       		.uleb128 0xe
 6927 0060 3A       		.uleb128 0x3a
 6928 0061 0B       		.uleb128 0xb
 6929 0062 3B       		.uleb128 0x3b
 6930 0063 05       		.uleb128 0x5
 6931 0064 49       		.uleb128 0x49
 6932 0065 13       		.uleb128 0x13
 6933 0066 00       		.byte	0x0
 6934 0067 00       		.byte	0x0
 6935 0068 09       		.uleb128 0x9
 6936 0069 13       		.uleb128 0x13
 6937 006a 01       		.byte	0x1
 6938 006b 0B       		.uleb128 0xb
 6939 006c 0B       		.uleb128 0xb
ARM GAS  /tmp/ccX0J2UF.s 			page 141


 6940 006d 3A       		.uleb128 0x3a
 6941 006e 0B       		.uleb128 0xb
 6942 006f 3B       		.uleb128 0x3b
 6943 0070 0B       		.uleb128 0xb
 6944 0071 03       		.uleb128 0x3
 6945 0072 0E       		.uleb128 0xe
 6946 0073 01       		.uleb128 0x1
 6947 0074 13       		.uleb128 0x13
 6948 0075 00       		.byte	0x0
 6949 0076 00       		.byte	0x0
 6950 0077 0A       		.uleb128 0xa
 6951 0078 17       		.uleb128 0x17
 6952 0079 01       		.byte	0x1
 6953 007a 0B       		.uleb128 0xb
 6954 007b 0B       		.uleb128 0xb
 6955 007c 3A       		.uleb128 0x3a
 6956 007d 0B       		.uleb128 0xb
 6957 007e 3B       		.uleb128 0x3b
 6958 007f 0B       		.uleb128 0xb
 6959 0080 01       		.uleb128 0x1
 6960 0081 13       		.uleb128 0x13
 6961 0082 00       		.byte	0x0
 6962 0083 00       		.byte	0x0
 6963 0084 0B       		.uleb128 0xb
 6964 0085 0D       		.uleb128 0xd
 6965 0086 00       		.byte	0x0
 6966 0087 03       		.uleb128 0x3
 6967 0088 0E       		.uleb128 0xe
 6968 0089 3A       		.uleb128 0x3a
 6969 008a 0B       		.uleb128 0xb
 6970 008b 3B       		.uleb128 0x3b
 6971 008c 0B       		.uleb128 0xb
 6972 008d 49       		.uleb128 0x49
 6973 008e 13       		.uleb128 0x13
 6974 008f 00       		.byte	0x0
 6975 0090 00       		.byte	0x0
 6976 0091 0C       		.uleb128 0xc
 6977 0092 0D       		.uleb128 0xd
 6978 0093 00       		.byte	0x0
 6979 0094 03       		.uleb128 0x3
 6980 0095 0E       		.uleb128 0xe
 6981 0096 3A       		.uleb128 0x3a
 6982 0097 0B       		.uleb128 0xb
 6983 0098 3B       		.uleb128 0x3b
 6984 0099 0B       		.uleb128 0xb
 6985 009a 49       		.uleb128 0x49
 6986 009b 13       		.uleb128 0x13
 6987 009c 38       		.uleb128 0x38
 6988 009d 0A       		.uleb128 0xa
 6989 009e 00       		.byte	0x0
 6990 009f 00       		.byte	0x0
 6991 00a0 0D       		.uleb128 0xd
 6992 00a1 01       		.uleb128 0x1
 6993 00a2 01       		.byte	0x1
 6994 00a3 49       		.uleb128 0x49
 6995 00a4 13       		.uleb128 0x13
 6996 00a5 01       		.uleb128 0x1
ARM GAS  /tmp/ccX0J2UF.s 			page 142


 6997 00a6 13       		.uleb128 0x13
 6998 00a7 00       		.byte	0x0
 6999 00a8 00       		.byte	0x0
 7000 00a9 0E       		.uleb128 0xe
 7001 00aa 21       		.uleb128 0x21
 7002 00ab 00       		.byte	0x0
 7003 00ac 49       		.uleb128 0x49
 7004 00ad 13       		.uleb128 0x13
 7005 00ae 2F       		.uleb128 0x2f
 7006 00af 0B       		.uleb128 0xb
 7007 00b0 00       		.byte	0x0
 7008 00b1 00       		.byte	0x0
 7009 00b2 0F       		.uleb128 0xf
 7010 00b3 0F       		.uleb128 0xf
 7011 00b4 00       		.byte	0x0
 7012 00b5 0B       		.uleb128 0xb
 7013 00b6 0B       		.uleb128 0xb
 7014 00b7 00       		.byte	0x0
 7015 00b8 00       		.byte	0x0
 7016 00b9 10       		.uleb128 0x10
 7017 00ba 13       		.uleb128 0x13
 7018 00bb 01       		.byte	0x1
 7019 00bc 03       		.uleb128 0x3
 7020 00bd 0E       		.uleb128 0xe
 7021 00be 0B       		.uleb128 0xb
 7022 00bf 0B       		.uleb128 0xb
 7023 00c0 3A       		.uleb128 0x3a
 7024 00c1 0B       		.uleb128 0xb
 7025 00c2 3B       		.uleb128 0x3b
 7026 00c3 0B       		.uleb128 0xb
 7027 00c4 01       		.uleb128 0x1
 7028 00c5 13       		.uleb128 0x13
 7029 00c6 00       		.byte	0x0
 7030 00c7 00       		.byte	0x0
 7031 00c8 11       		.uleb128 0x11
 7032 00c9 0D       		.uleb128 0xd
 7033 00ca 00       		.byte	0x0
 7034 00cb 03       		.uleb128 0x3
 7035 00cc 08       		.uleb128 0x8
 7036 00cd 3A       		.uleb128 0x3a
 7037 00ce 0B       		.uleb128 0xb
 7038 00cf 3B       		.uleb128 0x3b
 7039 00d0 0B       		.uleb128 0xb
 7040 00d1 49       		.uleb128 0x49
 7041 00d2 13       		.uleb128 0x13
 7042 00d3 38       		.uleb128 0x38
 7043 00d4 0A       		.uleb128 0xa
 7044 00d5 00       		.byte	0x0
 7045 00d6 00       		.byte	0x0
 7046 00d7 12       		.uleb128 0x12
 7047 00d8 0F       		.uleb128 0xf
 7048 00d9 00       		.byte	0x0
 7049 00da 0B       		.uleb128 0xb
 7050 00db 0B       		.uleb128 0xb
 7051 00dc 49       		.uleb128 0x49
 7052 00dd 13       		.uleb128 0x13
 7053 00de 00       		.byte	0x0
ARM GAS  /tmp/ccX0J2UF.s 			page 143


 7054 00df 00       		.byte	0x0
 7055 00e0 13       		.uleb128 0x13
 7056 00e1 13       		.uleb128 0x13
 7057 00e2 01       		.byte	0x1
 7058 00e3 03       		.uleb128 0x3
 7059 00e4 0E       		.uleb128 0xe
 7060 00e5 0B       		.uleb128 0xb
 7061 00e6 05       		.uleb128 0x5
 7062 00e7 3A       		.uleb128 0x3a
 7063 00e8 0B       		.uleb128 0xb
 7064 00e9 3B       		.uleb128 0x3b
 7065 00ea 0B       		.uleb128 0xb
 7066 00eb 01       		.uleb128 0x1
 7067 00ec 13       		.uleb128 0x13
 7068 00ed 00       		.byte	0x0
 7069 00ee 00       		.byte	0x0
 7070 00ef 14       		.uleb128 0x14
 7071 00f0 15       		.uleb128 0x15
 7072 00f1 00       		.byte	0x0
 7073 00f2 00       		.byte	0x0
 7074 00f3 00       		.byte	0x0
 7075 00f4 15       		.uleb128 0x15
 7076 00f5 15       		.uleb128 0x15
 7077 00f6 01       		.byte	0x1
 7078 00f7 49       		.uleb128 0x49
 7079 00f8 13       		.uleb128 0x13
 7080 00f9 01       		.uleb128 0x1
 7081 00fa 13       		.uleb128 0x13
 7082 00fb 00       		.byte	0x0
 7083 00fc 00       		.byte	0x0
 7084 00fd 16       		.uleb128 0x16
 7085 00fe 05       		.uleb128 0x5
 7086 00ff 00       		.byte	0x0
 7087 0100 49       		.uleb128 0x49
 7088 0101 13       		.uleb128 0x13
 7089 0102 00       		.byte	0x0
 7090 0103 00       		.byte	0x0
 7091 0104 17       		.uleb128 0x17
 7092 0105 13       		.uleb128 0x13
 7093 0106 01       		.byte	0x1
 7094 0107 03       		.uleb128 0x3
 7095 0108 0E       		.uleb128 0xe
 7096 0109 0B       		.uleb128 0xb
 7097 010a 05       		.uleb128 0x5
 7098 010b 3A       		.uleb128 0x3a
 7099 010c 0B       		.uleb128 0xb
 7100 010d 3B       		.uleb128 0x3b
 7101 010e 05       		.uleb128 0x5
 7102 010f 01       		.uleb128 0x1
 7103 0110 13       		.uleb128 0x13
 7104 0111 00       		.byte	0x0
 7105 0112 00       		.byte	0x0
 7106 0113 18       		.uleb128 0x18
 7107 0114 17       		.uleb128 0x17
 7108 0115 01       		.byte	0x1
 7109 0116 0B       		.uleb128 0xb
 7110 0117 0B       		.uleb128 0xb
ARM GAS  /tmp/ccX0J2UF.s 			page 144


 7111 0118 3A       		.uleb128 0x3a
 7112 0119 0B       		.uleb128 0xb
 7113 011a 3B       		.uleb128 0x3b
 7114 011b 05       		.uleb128 0x5
 7115 011c 01       		.uleb128 0x1
 7116 011d 13       		.uleb128 0x13
 7117 011e 00       		.byte	0x0
 7118 011f 00       		.byte	0x0
 7119 0120 19       		.uleb128 0x19
 7120 0121 13       		.uleb128 0x13
 7121 0122 01       		.byte	0x1
 7122 0123 0B       		.uleb128 0xb
 7123 0124 0B       		.uleb128 0xb
 7124 0125 3A       		.uleb128 0x3a
 7125 0126 0B       		.uleb128 0xb
 7126 0127 3B       		.uleb128 0x3b
 7127 0128 05       		.uleb128 0x5
 7128 0129 01       		.uleb128 0x1
 7129 012a 13       		.uleb128 0x13
 7130 012b 00       		.byte	0x0
 7131 012c 00       		.byte	0x0
 7132 012d 1A       		.uleb128 0x1a
 7133 012e 0D       		.uleb128 0xd
 7134 012f 00       		.byte	0x0
 7135 0130 03       		.uleb128 0x3
 7136 0131 0E       		.uleb128 0xe
 7137 0132 3A       		.uleb128 0x3a
 7138 0133 0B       		.uleb128 0xb
 7139 0134 3B       		.uleb128 0x3b
 7140 0135 05       		.uleb128 0x5
 7141 0136 49       		.uleb128 0x49
 7142 0137 13       		.uleb128 0x13
 7143 0138 38       		.uleb128 0x38
 7144 0139 0A       		.uleb128 0xa
 7145 013a 00       		.byte	0x0
 7146 013b 00       		.byte	0x0
 7147 013c 1B       		.uleb128 0x1b
 7148 013d 0D       		.uleb128 0xd
 7149 013e 00       		.byte	0x0
 7150 013f 03       		.uleb128 0x3
 7151 0140 0E       		.uleb128 0xe
 7152 0141 3A       		.uleb128 0x3a
 7153 0142 0B       		.uleb128 0xb
 7154 0143 3B       		.uleb128 0x3b
 7155 0144 05       		.uleb128 0x5
 7156 0145 49       		.uleb128 0x49
 7157 0146 13       		.uleb128 0x13
 7158 0147 00       		.byte	0x0
 7159 0148 00       		.byte	0x0
 7160 0149 1C       		.uleb128 0x1c
 7161 014a 26       		.uleb128 0x26
 7162 014b 00       		.byte	0x0
 7163 014c 49       		.uleb128 0x49
 7164 014d 13       		.uleb128 0x13
 7165 014e 00       		.byte	0x0
 7166 014f 00       		.byte	0x0
 7167 0150 1D       		.uleb128 0x1d
ARM GAS  /tmp/ccX0J2UF.s 			page 145


 7168 0151 13       		.uleb128 0x13
 7169 0152 01       		.byte	0x1
 7170 0153 03       		.uleb128 0x3
 7171 0154 0E       		.uleb128 0xe
 7172 0155 0B       		.uleb128 0xb
 7173 0156 0B       		.uleb128 0xb
 7174 0157 3A       		.uleb128 0x3a
 7175 0158 0B       		.uleb128 0xb
 7176 0159 3B       		.uleb128 0x3b
 7177 015a 05       		.uleb128 0x5
 7178 015b 01       		.uleb128 0x1
 7179 015c 13       		.uleb128 0x13
 7180 015d 00       		.byte	0x0
 7181 015e 00       		.byte	0x0
 7182 015f 1E       		.uleb128 0x1e
 7183 0160 15       		.uleb128 0x15
 7184 0161 01       		.byte	0x1
 7185 0162 01       		.uleb128 0x1
 7186 0163 13       		.uleb128 0x13
 7187 0164 00       		.byte	0x0
 7188 0165 00       		.byte	0x0
 7189 0166 1F       		.uleb128 0x1f
 7190 0167 0D       		.uleb128 0xd
 7191 0168 00       		.byte	0x0
 7192 0169 03       		.uleb128 0x3
 7193 016a 0E       		.uleb128 0xe
 7194 016b 49       		.uleb128 0x49
 7195 016c 13       		.uleb128 0x13
 7196 016d 38       		.uleb128 0x38
 7197 016e 0A       		.uleb128 0xa
 7198 016f 34       		.uleb128 0x34
 7199 0170 0C       		.uleb128 0xc
 7200 0171 00       		.byte	0x0
 7201 0172 00       		.byte	0x0
 7202 0173 20       		.uleb128 0x20
 7203 0174 2E       		.uleb128 0x2e
 7204 0175 01       		.byte	0x1
 7205 0176 3F       		.uleb128 0x3f
 7206 0177 0C       		.uleb128 0xc
 7207 0178 03       		.uleb128 0x3
 7208 0179 0E       		.uleb128 0xe
 7209 017a 3A       		.uleb128 0x3a
 7210 017b 0B       		.uleb128 0xb
 7211 017c 3B       		.uleb128 0x3b
 7212 017d 05       		.uleb128 0x5
 7213 017e 3C       		.uleb128 0x3c
 7214 017f 0C       		.uleb128 0xc
 7215 0180 01       		.uleb128 0x1
 7216 0181 13       		.uleb128 0x13
 7217 0182 00       		.byte	0x0
 7218 0183 00       		.byte	0x0
 7219 0184 21       		.uleb128 0x21
 7220 0185 2E       		.uleb128 0x2e
 7221 0186 01       		.byte	0x1
 7222 0187 3F       		.uleb128 0x3f
 7223 0188 0C       		.uleb128 0xc
 7224 0189 03       		.uleb128 0x3
ARM GAS  /tmp/ccX0J2UF.s 			page 146


 7225 018a 0E       		.uleb128 0xe
 7226 018b 3A       		.uleb128 0x3a
 7227 018c 0B       		.uleb128 0xb
 7228 018d 3B       		.uleb128 0x3b
 7229 018e 0B       		.uleb128 0xb
 7230 018f 49       		.uleb128 0x49
 7231 0190 13       		.uleb128 0x13
 7232 0191 3C       		.uleb128 0x3c
 7233 0192 0C       		.uleb128 0xc
 7234 0193 01       		.uleb128 0x1
 7235 0194 13       		.uleb128 0x13
 7236 0195 00       		.byte	0x0
 7237 0196 00       		.byte	0x0
 7238 0197 22       		.uleb128 0x22
 7239 0198 2E       		.uleb128 0x2e
 7240 0199 01       		.byte	0x1
 7241 019a 3F       		.uleb128 0x3f
 7242 019b 0C       		.uleb128 0xc
 7243 019c 03       		.uleb128 0x3
 7244 019d 0E       		.uleb128 0xe
 7245 019e 3A       		.uleb128 0x3a
 7246 019f 0B       		.uleb128 0xb
 7247 01a0 3B       		.uleb128 0x3b
 7248 01a1 05       		.uleb128 0x5
 7249 01a2 49       		.uleb128 0x49
 7250 01a3 13       		.uleb128 0x13
 7251 01a4 3C       		.uleb128 0x3c
 7252 01a5 0C       		.uleb128 0xc
 7253 01a6 01       		.uleb128 0x1
 7254 01a7 13       		.uleb128 0x13
 7255 01a8 00       		.byte	0x0
 7256 01a9 00       		.byte	0x0
 7257 01aa 23       		.uleb128 0x23
 7258 01ab 2E       		.uleb128 0x2e
 7259 01ac 00       		.byte	0x0
 7260 01ad 3F       		.uleb128 0x3f
 7261 01ae 0C       		.uleb128 0xc
 7262 01af 03       		.uleb128 0x3
 7263 01b0 0E       		.uleb128 0xe
 7264 01b1 3A       		.uleb128 0x3a
 7265 01b2 0B       		.uleb128 0xb
 7266 01b3 3B       		.uleb128 0x3b
 7267 01b4 0B       		.uleb128 0xb
 7268 01b5 49       		.uleb128 0x49
 7269 01b6 13       		.uleb128 0x13
 7270 01b7 3C       		.uleb128 0x3c
 7271 01b8 0C       		.uleb128 0xc
 7272 01b9 00       		.byte	0x0
 7273 01ba 00       		.byte	0x0
 7274 01bb 24       		.uleb128 0x24
 7275 01bc 2E       		.uleb128 0x2e
 7276 01bd 01       		.byte	0x1
 7277 01be 3F       		.uleb128 0x3f
 7278 01bf 0C       		.uleb128 0xc
 7279 01c0 03       		.uleb128 0x3
 7280 01c1 0E       		.uleb128 0xe
 7281 01c2 3A       		.uleb128 0x3a
ARM GAS  /tmp/ccX0J2UF.s 			page 147


 7282 01c3 0B       		.uleb128 0xb
 7283 01c4 3B       		.uleb128 0x3b
 7284 01c5 0B       		.uleb128 0xb
 7285 01c6 3C       		.uleb128 0x3c
 7286 01c7 0C       		.uleb128 0xc
 7287 01c8 01       		.uleb128 0x1
 7288 01c9 13       		.uleb128 0x13
 7289 01ca 00       		.byte	0x0
 7290 01cb 00       		.byte	0x0
 7291 01cc 25       		.uleb128 0x25
 7292 01cd 26       		.uleb128 0x26
 7293 01ce 00       		.byte	0x0
 7294 01cf 00       		.byte	0x0
 7295 01d0 00       		.byte	0x0
 7296 01d1 26       		.uleb128 0x26
 7297 01d2 2E       		.uleb128 0x2e
 7298 01d3 01       		.byte	0x1
 7299 01d4 3F       		.uleb128 0x3f
 7300 01d5 0C       		.uleb128 0xc
 7301 01d6 03       		.uleb128 0x3
 7302 01d7 08       		.uleb128 0x8
 7303 01d8 3A       		.uleb128 0x3a
 7304 01d9 0B       		.uleb128 0xb
 7305 01da 3B       		.uleb128 0x3b
 7306 01db 0B       		.uleb128 0xb
 7307 01dc 49       		.uleb128 0x49
 7308 01dd 13       		.uleb128 0x13
 7309 01de 3C       		.uleb128 0x3c
 7310 01df 0C       		.uleb128 0xc
 7311 01e0 01       		.uleb128 0x1
 7312 01e1 13       		.uleb128 0x13
 7313 01e2 00       		.byte	0x0
 7314 01e3 00       		.byte	0x0
 7315 01e4 27       		.uleb128 0x27
 7316 01e5 13       		.uleb128 0x13
 7317 01e6 01       		.byte	0x1
 7318 01e7 03       		.uleb128 0x3
 7319 01e8 08       		.uleb128 0x8
 7320 01e9 0B       		.uleb128 0xb
 7321 01ea 0B       		.uleb128 0xb
 7322 01eb 3A       		.uleb128 0x3a
 7323 01ec 0B       		.uleb128 0xb
 7324 01ed 3B       		.uleb128 0x3b
 7325 01ee 0B       		.uleb128 0xb
 7326 01ef 01       		.uleb128 0x1
 7327 01f0 13       		.uleb128 0x13
 7328 01f1 00       		.byte	0x0
 7329 01f2 00       		.byte	0x0
 7330 01f3 28       		.uleb128 0x28
 7331 01f4 02       		.uleb128 0x2
 7332 01f5 01       		.byte	0x1
 7333 01f6 03       		.uleb128 0x3
 7334 01f7 0E       		.uleb128 0xe
 7335 01f8 0B       		.uleb128 0xb
 7336 01f9 05       		.uleb128 0x5
 7337 01fa 3A       		.uleb128 0x3a
 7338 01fb 0B       		.uleb128 0xb
ARM GAS  /tmp/ccX0J2UF.s 			page 148


 7339 01fc 3B       		.uleb128 0x3b
 7340 01fd 0B       		.uleb128 0xb
 7341 01fe 01       		.uleb128 0x1
 7342 01ff 13       		.uleb128 0x13
 7343 0200 00       		.byte	0x0
 7344 0201 00       		.byte	0x0
 7345 0202 29       		.uleb128 0x29
 7346 0203 0D       		.uleb128 0xd
 7347 0204 00       		.byte	0x0
 7348 0205 03       		.uleb128 0x3
 7349 0206 0E       		.uleb128 0xe
 7350 0207 3A       		.uleb128 0x3a
 7351 0208 0B       		.uleb128 0xb
 7352 0209 3B       		.uleb128 0x3b
 7353 020a 0B       		.uleb128 0xb
 7354 020b 8740     		.uleb128 0x2007
 7355 020d 0E       		.uleb128 0xe
 7356 020e 49       		.uleb128 0x49
 7357 020f 13       		.uleb128 0x13
 7358 0210 3F       		.uleb128 0x3f
 7359 0211 0C       		.uleb128 0xc
 7360 0212 32       		.uleb128 0x32
 7361 0213 0B       		.uleb128 0xb
 7362 0214 3C       		.uleb128 0x3c
 7363 0215 0C       		.uleb128 0xc
 7364 0216 1C       		.uleb128 0x1c
 7365 0217 05       		.uleb128 0x5
 7366 0218 00       		.byte	0x0
 7367 0219 00       		.byte	0x0
 7368 021a 2A       		.uleb128 0x2a
 7369 021b 0D       		.uleb128 0xd
 7370 021c 00       		.byte	0x0
 7371 021d 03       		.uleb128 0x3
 7372 021e 0E       		.uleb128 0xe
 7373 021f 3A       		.uleb128 0x3a
 7374 0220 0B       		.uleb128 0xb
 7375 0221 3B       		.uleb128 0x3b
 7376 0222 0B       		.uleb128 0xb
 7377 0223 8740     		.uleb128 0x2007
 7378 0225 0E       		.uleb128 0xe
 7379 0226 49       		.uleb128 0x49
 7380 0227 13       		.uleb128 0x13
 7381 0228 3F       		.uleb128 0x3f
 7382 0229 0C       		.uleb128 0xc
 7383 022a 32       		.uleb128 0x32
 7384 022b 0B       		.uleb128 0xb
 7385 022c 3C       		.uleb128 0x3c
 7386 022d 0C       		.uleb128 0xc
 7387 022e 1C       		.uleb128 0x1c
 7388 022f 0B       		.uleb128 0xb
 7389 0230 00       		.byte	0x0
 7390 0231 00       		.byte	0x0
 7391 0232 2B       		.uleb128 0x2b
 7392 0233 0D       		.uleb128 0xd
 7393 0234 00       		.byte	0x0
 7394 0235 03       		.uleb128 0x3
 7395 0236 0E       		.uleb128 0xe
ARM GAS  /tmp/ccX0J2UF.s 			page 149


 7396 0237 3A       		.uleb128 0x3a
 7397 0238 0B       		.uleb128 0xb
 7398 0239 3B       		.uleb128 0x3b
 7399 023a 0B       		.uleb128 0xb
 7400 023b 49       		.uleb128 0x49
 7401 023c 13       		.uleb128 0x13
 7402 023d 38       		.uleb128 0x38
 7403 023e 0A       		.uleb128 0xa
 7404 023f 32       		.uleb128 0x32
 7405 0240 0B       		.uleb128 0xb
 7406 0241 00       		.byte	0x0
 7407 0242 00       		.byte	0x0
 7408 0243 2C       		.uleb128 0x2c
 7409 0244 05       		.uleb128 0x5
 7410 0245 00       		.byte	0x0
 7411 0246 49       		.uleb128 0x49
 7412 0247 13       		.uleb128 0x13
 7413 0248 34       		.uleb128 0x34
 7414 0249 0C       		.uleb128 0xc
 7415 024a 00       		.byte	0x0
 7416 024b 00       		.byte	0x0
 7417 024c 2D       		.uleb128 0x2d
 7418 024d 2E       		.uleb128 0x2e
 7419 024e 01       		.byte	0x1
 7420 024f 3F       		.uleb128 0x3f
 7421 0250 0C       		.uleb128 0xc
 7422 0251 03       		.uleb128 0x3
 7423 0252 0E       		.uleb128 0xe
 7424 0253 3A       		.uleb128 0x3a
 7425 0254 0B       		.uleb128 0xb
 7426 0255 3B       		.uleb128 0x3b
 7427 0256 0B       		.uleb128 0xb
 7428 0257 8740     		.uleb128 0x2007
 7429 0259 0E       		.uleb128 0xe
 7430 025a 3C       		.uleb128 0x3c
 7431 025b 0C       		.uleb128 0xc
 7432 025c 01       		.uleb128 0x1
 7433 025d 13       		.uleb128 0x13
 7434 025e 00       		.byte	0x0
 7435 025f 00       		.byte	0x0
 7436 0260 2E       		.uleb128 0x2e
 7437 0261 2E       		.uleb128 0x2e
 7438 0262 01       		.byte	0x1
 7439 0263 3F       		.uleb128 0x3f
 7440 0264 0C       		.uleb128 0xc
 7441 0265 03       		.uleb128 0x3
 7442 0266 0E       		.uleb128 0xe
 7443 0267 3A       		.uleb128 0x3a
 7444 0268 0B       		.uleb128 0xb
 7445 0269 3B       		.uleb128 0x3b
 7446 026a 0B       		.uleb128 0xb
 7447 026b 8740     		.uleb128 0x2007
 7448 026d 0E       		.uleb128 0xe
 7449 026e 49       		.uleb128 0x49
 7450 026f 13       		.uleb128 0x13
 7451 0270 3C       		.uleb128 0x3c
 7452 0271 0C       		.uleb128 0xc
ARM GAS  /tmp/ccX0J2UF.s 			page 150


 7453 0272 01       		.uleb128 0x1
 7454 0273 13       		.uleb128 0x13
 7455 0274 00       		.byte	0x0
 7456 0275 00       		.byte	0x0
 7457 0276 2F       		.uleb128 0x2f
 7458 0277 2E       		.uleb128 0x2e
 7459 0278 01       		.byte	0x1
 7460 0279 3F       		.uleb128 0x3f
 7461 027a 0C       		.uleb128 0xc
 7462 027b 03       		.uleb128 0x3
 7463 027c 0E       		.uleb128 0xe
 7464 027d 3A       		.uleb128 0x3a
 7465 027e 0B       		.uleb128 0xb
 7466 027f 3B       		.uleb128 0x3b
 7467 0280 0B       		.uleb128 0xb
 7468 0281 8740     		.uleb128 0x2007
 7469 0283 0E       		.uleb128 0xe
 7470 0284 3C       		.uleb128 0x3c
 7471 0285 0C       		.uleb128 0xc
 7472 0286 00       		.byte	0x0
 7473 0287 00       		.byte	0x0
 7474 0288 30       		.uleb128 0x30
 7475 0289 04       		.uleb128 0x4
 7476 028a 01       		.byte	0x1
 7477 028b 0B       		.uleb128 0xb
 7478 028c 0B       		.uleb128 0xb
 7479 028d 3A       		.uleb128 0x3a
 7480 028e 0B       		.uleb128 0xb
 7481 028f 3B       		.uleb128 0x3b
 7482 0290 0B       		.uleb128 0xb
 7483 0291 03       		.uleb128 0x3
 7484 0292 0E       		.uleb128 0xe
 7485 0293 01       		.uleb128 0x1
 7486 0294 13       		.uleb128 0x13
 7487 0295 00       		.byte	0x0
 7488 0296 00       		.byte	0x0
 7489 0297 31       		.uleb128 0x31
 7490 0298 28       		.uleb128 0x28
 7491 0299 00       		.byte	0x0
 7492 029a 03       		.uleb128 0x3
 7493 029b 0E       		.uleb128 0xe
 7494 029c 1C       		.uleb128 0x1c
 7495 029d 0D       		.uleb128 0xd
 7496 029e 00       		.byte	0x0
 7497 029f 00       		.byte	0x0
 7498 02a0 32       		.uleb128 0x32
 7499 02a1 1C       		.uleb128 0x1c
 7500 02a2 00       		.byte	0x0
 7501 02a3 49       		.uleb128 0x49
 7502 02a4 13       		.uleb128 0x13
 7503 02a5 38       		.uleb128 0x38
 7504 02a6 0A       		.uleb128 0xa
 7505 02a7 32       		.uleb128 0x32
 7506 02a8 0B       		.uleb128 0xb
 7507 02a9 00       		.byte	0x0
 7508 02aa 00       		.byte	0x0
 7509 02ab 33       		.uleb128 0x33
ARM GAS  /tmp/ccX0J2UF.s 			page 151


 7510 02ac 2E       		.uleb128 0x2e
 7511 02ad 01       		.byte	0x1
 7512 02ae 3F       		.uleb128 0x3f
 7513 02af 0C       		.uleb128 0xc
 7514 02b0 03       		.uleb128 0x3
 7515 02b1 08       		.uleb128 0x8
 7516 02b2 3A       		.uleb128 0x3a
 7517 02b3 0B       		.uleb128 0xb
 7518 02b4 3B       		.uleb128 0x3b
 7519 02b5 0B       		.uleb128 0xb
 7520 02b6 8740     		.uleb128 0x2007
 7521 02b8 0E       		.uleb128 0xe
 7522 02b9 3C       		.uleb128 0x3c
 7523 02ba 0C       		.uleb128 0xc
 7524 02bb 01       		.uleb128 0x1
 7525 02bc 13       		.uleb128 0x13
 7526 02bd 00       		.byte	0x0
 7527 02be 00       		.byte	0x0
 7528 02bf 34       		.uleb128 0x34
 7529 02c0 18       		.uleb128 0x18
 7530 02c1 00       		.byte	0x0
 7531 02c2 00       		.byte	0x0
 7532 02c3 00       		.byte	0x0
 7533 02c4 35       		.uleb128 0x35
 7534 02c5 2E       		.uleb128 0x2e
 7535 02c6 00       		.byte	0x0
 7536 02c7 3F       		.uleb128 0x3f
 7537 02c8 0C       		.uleb128 0xc
 7538 02c9 03       		.uleb128 0x3
 7539 02ca 0E       		.uleb128 0xe
 7540 02cb 3A       		.uleb128 0x3a
 7541 02cc 0B       		.uleb128 0xb
 7542 02cd 3B       		.uleb128 0x3b
 7543 02ce 0B       		.uleb128 0xb
 7544 02cf 8740     		.uleb128 0x2007
 7545 02d1 0E       		.uleb128 0xe
 7546 02d2 49       		.uleb128 0x49
 7547 02d3 13       		.uleb128 0x13
 7548 02d4 3C       		.uleb128 0x3c
 7549 02d5 0C       		.uleb128 0xc
 7550 02d6 00       		.byte	0x0
 7551 02d7 00       		.byte	0x0
 7552 02d8 36       		.uleb128 0x36
 7553 02d9 2E       		.uleb128 0x2e
 7554 02da 01       		.byte	0x1
 7555 02db 3F       		.uleb128 0x3f
 7556 02dc 0C       		.uleb128 0xc
 7557 02dd 03       		.uleb128 0x3
 7558 02de 0E       		.uleb128 0xe
 7559 02df 3A       		.uleb128 0x3a
 7560 02e0 0B       		.uleb128 0xb
 7561 02e1 3B       		.uleb128 0x3b
 7562 02e2 0B       		.uleb128 0xb
 7563 02e3 8740     		.uleb128 0x2007
 7564 02e5 0E       		.uleb128 0xe
 7565 02e6 49       		.uleb128 0x49
 7566 02e7 13       		.uleb128 0x13
ARM GAS  /tmp/ccX0J2UF.s 			page 152


 7567 02e8 11       		.uleb128 0x11
 7568 02e9 01       		.uleb128 0x1
 7569 02ea 12       		.uleb128 0x12
 7570 02eb 01       		.uleb128 0x1
 7571 02ec 40       		.uleb128 0x40
 7572 02ed 06       		.uleb128 0x6
 7573 02ee 01       		.uleb128 0x1
 7574 02ef 13       		.uleb128 0x13
 7575 02f0 00       		.byte	0x0
 7576 02f1 00       		.byte	0x0
 7577 02f2 37       		.uleb128 0x37
 7578 02f3 0B       		.uleb128 0xb
 7579 02f4 01       		.byte	0x1
 7580 02f5 11       		.uleb128 0x11
 7581 02f6 01       		.uleb128 0x1
 7582 02f7 12       		.uleb128 0x12
 7583 02f8 01       		.uleb128 0x1
 7584 02f9 00       		.byte	0x0
 7585 02fa 00       		.byte	0x0
 7586 02fb 38       		.uleb128 0x38
 7587 02fc 34       		.uleb128 0x34
 7588 02fd 00       		.byte	0x0
 7589 02fe 03       		.uleb128 0x3
 7590 02ff 0E       		.uleb128 0xe
 7591 0300 3A       		.uleb128 0x3a
 7592 0301 0B       		.uleb128 0xb
 7593 0302 3B       		.uleb128 0x3b
 7594 0303 0B       		.uleb128 0xb
 7595 0304 49       		.uleb128 0x49
 7596 0305 13       		.uleb128 0x13
 7597 0306 02       		.uleb128 0x2
 7598 0307 0A       		.uleb128 0xa
 7599 0308 00       		.byte	0x0
 7600 0309 00       		.byte	0x0
 7601 030a 39       		.uleb128 0x39
 7602 030b 34       		.uleb128 0x34
 7603 030c 00       		.byte	0x0
 7604 030d 03       		.uleb128 0x3
 7605 030e 08       		.uleb128 0x8
 7606 030f 3A       		.uleb128 0x3a
 7607 0310 0B       		.uleb128 0xb
 7608 0311 3B       		.uleb128 0x3b
 7609 0312 0B       		.uleb128 0xb
 7610 0313 49       		.uleb128 0x49
 7611 0314 13       		.uleb128 0x13
 7612 0315 02       		.uleb128 0x2
 7613 0316 0A       		.uleb128 0xa
 7614 0317 00       		.byte	0x0
 7615 0318 00       		.byte	0x0
 7616 0319 3A       		.uleb128 0x3a
 7617 031a 2E       		.uleb128 0x2e
 7618 031b 01       		.byte	0x1
 7619 031c 3F       		.uleb128 0x3f
 7620 031d 0C       		.uleb128 0xc
 7621 031e 03       		.uleb128 0x3
 7622 031f 0E       		.uleb128 0xe
 7623 0320 3A       		.uleb128 0x3a
ARM GAS  /tmp/ccX0J2UF.s 			page 153


 7624 0321 0B       		.uleb128 0xb
 7625 0322 3B       		.uleb128 0x3b
 7626 0323 05       		.uleb128 0x5
 7627 0324 8740     		.uleb128 0x2007
 7628 0326 0E       		.uleb128 0xe
 7629 0327 49       		.uleb128 0x49
 7630 0328 13       		.uleb128 0x13
 7631 0329 11       		.uleb128 0x11
 7632 032a 01       		.uleb128 0x1
 7633 032b 12       		.uleb128 0x12
 7634 032c 01       		.uleb128 0x1
 7635 032d 40       		.uleb128 0x40
 7636 032e 06       		.uleb128 0x6
 7637 032f 01       		.uleb128 0x1
 7638 0330 13       		.uleb128 0x13
 7639 0331 00       		.byte	0x0
 7640 0332 00       		.byte	0x0
 7641 0333 3B       		.uleb128 0x3b
 7642 0334 34       		.uleb128 0x34
 7643 0335 00       		.byte	0x0
 7644 0336 03       		.uleb128 0x3
 7645 0337 08       		.uleb128 0x8
 7646 0338 3A       		.uleb128 0x3a
 7647 0339 0B       		.uleb128 0xb
 7648 033a 3B       		.uleb128 0x3b
 7649 033b 05       		.uleb128 0x5
 7650 033c 49       		.uleb128 0x49
 7651 033d 13       		.uleb128 0x13
 7652 033e 02       		.uleb128 0x2
 7653 033f 0A       		.uleb128 0xa
 7654 0340 00       		.byte	0x0
 7655 0341 00       		.byte	0x0
 7656 0342 3C       		.uleb128 0x3c
 7657 0343 2E       		.uleb128 0x2e
 7658 0344 00       		.byte	0x0
 7659 0345 3F       		.uleb128 0x3f
 7660 0346 0C       		.uleb128 0xc
 7661 0347 03       		.uleb128 0x3
 7662 0348 0E       		.uleb128 0xe
 7663 0349 3A       		.uleb128 0x3a
 7664 034a 0B       		.uleb128 0xb
 7665 034b 3B       		.uleb128 0x3b
 7666 034c 05       		.uleb128 0x5
 7667 034d 8740     		.uleb128 0x2007
 7668 034f 0E       		.uleb128 0xe
 7669 0350 49       		.uleb128 0x49
 7670 0351 13       		.uleb128 0x13
 7671 0352 11       		.uleb128 0x11
 7672 0353 01       		.uleb128 0x1
 7673 0354 12       		.uleb128 0x12
 7674 0355 01       		.uleb128 0x1
 7675 0356 40       		.uleb128 0x40
 7676 0357 0A       		.uleb128 0xa
 7677 0358 00       		.byte	0x0
 7678 0359 00       		.byte	0x0
 7679 035a 3D       		.uleb128 0x3d
 7680 035b 2E       		.uleb128 0x2e
ARM GAS  /tmp/ccX0J2UF.s 			page 154


 7681 035c 01       		.byte	0x1
 7682 035d 03       		.uleb128 0x3
 7683 035e 0E       		.uleb128 0xe
 7684 035f 3A       		.uleb128 0x3a
 7685 0360 0B       		.uleb128 0xb
 7686 0361 3B       		.uleb128 0x3b
 7687 0362 05       		.uleb128 0x5
 7688 0363 11       		.uleb128 0x11
 7689 0364 01       		.uleb128 0x1
 7690 0365 12       		.uleb128 0x12
 7691 0366 01       		.uleb128 0x1
 7692 0367 40       		.uleb128 0x40
 7693 0368 06       		.uleb128 0x6
 7694 0369 01       		.uleb128 0x1
 7695 036a 13       		.uleb128 0x13
 7696 036b 00       		.byte	0x0
 7697 036c 00       		.byte	0x0
 7698 036d 3E       		.uleb128 0x3e
 7699 036e 05       		.uleb128 0x5
 7700 036f 00       		.byte	0x0
 7701 0370 03       		.uleb128 0x3
 7702 0371 08       		.uleb128 0x8
 7703 0372 3A       		.uleb128 0x3a
 7704 0373 0B       		.uleb128 0xb
 7705 0374 3B       		.uleb128 0x3b
 7706 0375 05       		.uleb128 0x5
 7707 0376 49       		.uleb128 0x49
 7708 0377 13       		.uleb128 0x13
 7709 0378 02       		.uleb128 0x2
 7710 0379 0A       		.uleb128 0xa
 7711 037a 00       		.byte	0x0
 7712 037b 00       		.byte	0x0
 7713 037c 3F       		.uleb128 0x3f
 7714 037d 2E       		.uleb128 0x2e
 7715 037e 00       		.byte	0x0
 7716 037f 03       		.uleb128 0x3
 7717 0380 0E       		.uleb128 0xe
 7718 0381 3A       		.uleb128 0x3a
 7719 0382 0B       		.uleb128 0xb
 7720 0383 3B       		.uleb128 0x3b
 7721 0384 05       		.uleb128 0x5
 7722 0385 49       		.uleb128 0x49
 7723 0386 13       		.uleb128 0x13
 7724 0387 11       		.uleb128 0x11
 7725 0388 01       		.uleb128 0x1
 7726 0389 12       		.uleb128 0x12
 7727 038a 01       		.uleb128 0x1
 7728 038b 40       		.uleb128 0x40
 7729 038c 0A       		.uleb128 0xa
 7730 038d 00       		.byte	0x0
 7731 038e 00       		.byte	0x0
 7732 038f 40       		.uleb128 0x40
 7733 0390 2E       		.uleb128 0x2e
 7734 0391 01       		.byte	0x1
 7735 0392 03       		.uleb128 0x3
 7736 0393 0E       		.uleb128 0xe
 7737 0394 3A       		.uleb128 0x3a
ARM GAS  /tmp/ccX0J2UF.s 			page 155


 7738 0395 0B       		.uleb128 0xb
 7739 0396 3B       		.uleb128 0x3b
 7740 0397 05       		.uleb128 0x5
 7741 0398 49       		.uleb128 0x49
 7742 0399 13       		.uleb128 0x13
 7743 039a 11       		.uleb128 0x11
 7744 039b 01       		.uleb128 0x1
 7745 039c 12       		.uleb128 0x12
 7746 039d 01       		.uleb128 0x1
 7747 039e 40       		.uleb128 0x40
 7748 039f 06       		.uleb128 0x6
 7749 03a0 01       		.uleb128 0x1
 7750 03a1 13       		.uleb128 0x13
 7751 03a2 00       		.byte	0x0
 7752 03a3 00       		.byte	0x0
 7753 03a4 41       		.uleb128 0x41
 7754 03a5 05       		.uleb128 0x5
 7755 03a6 00       		.byte	0x0
 7756 03a7 03       		.uleb128 0x3
 7757 03a8 0E       		.uleb128 0xe
 7758 03a9 3A       		.uleb128 0x3a
 7759 03aa 0B       		.uleb128 0xb
 7760 03ab 3B       		.uleb128 0x3b
 7761 03ac 05       		.uleb128 0x5
 7762 03ad 49       		.uleb128 0x49
 7763 03ae 13       		.uleb128 0x13
 7764 03af 02       		.uleb128 0x2
 7765 03b0 0A       		.uleb128 0xa
 7766 03b1 00       		.byte	0x0
 7767 03b2 00       		.byte	0x0
 7768 03b3 42       		.uleb128 0x42
 7769 03b4 34       		.uleb128 0x34
 7770 03b5 00       		.byte	0x0
 7771 03b6 03       		.uleb128 0x3
 7772 03b7 0E       		.uleb128 0xe
 7773 03b8 3A       		.uleb128 0x3a
 7774 03b9 0B       		.uleb128 0xb
 7775 03ba 3B       		.uleb128 0x3b
 7776 03bb 05       		.uleb128 0x5
 7777 03bc 49       		.uleb128 0x49
 7778 03bd 13       		.uleb128 0x13
 7779 03be 02       		.uleb128 0x2
 7780 03bf 0A       		.uleb128 0xa
 7781 03c0 00       		.byte	0x0
 7782 03c1 00       		.byte	0x0
 7783 03c2 43       		.uleb128 0x43
 7784 03c3 2E       		.uleb128 0x2e
 7785 03c4 00       		.byte	0x0
 7786 03c5 3F       		.uleb128 0x3f
 7787 03c6 0C       		.uleb128 0xc
 7788 03c7 03       		.uleb128 0x3
 7789 03c8 0E       		.uleb128 0xe
 7790 03c9 3A       		.uleb128 0x3a
 7791 03ca 0B       		.uleb128 0xb
 7792 03cb 3B       		.uleb128 0x3b
 7793 03cc 05       		.uleb128 0x5
 7794 03cd 8740     		.uleb128 0x2007
ARM GAS  /tmp/ccX0J2UF.s 			page 156


 7795 03cf 0E       		.uleb128 0xe
 7796 03d0 49       		.uleb128 0x49
 7797 03d1 13       		.uleb128 0x13
 7798 03d2 11       		.uleb128 0x11
 7799 03d3 01       		.uleb128 0x1
 7800 03d4 12       		.uleb128 0x12
 7801 03d5 01       		.uleb128 0x1
 7802 03d6 40       		.uleb128 0x40
 7803 03d7 06       		.uleb128 0x6
 7804 03d8 00       		.byte	0x0
 7805 03d9 00       		.byte	0x0
 7806 03da 44       		.uleb128 0x44
 7807 03db 0B       		.uleb128 0xb
 7808 03dc 01       		.byte	0x1
 7809 03dd 11       		.uleb128 0x11
 7810 03de 01       		.uleb128 0x1
 7811 03df 12       		.uleb128 0x12
 7812 03e0 01       		.uleb128 0x1
 7813 03e1 01       		.uleb128 0x1
 7814 03e2 13       		.uleb128 0x13
 7815 03e3 00       		.byte	0x0
 7816 03e4 00       		.byte	0x0
 7817 03e5 45       		.uleb128 0x45
 7818 03e6 2E       		.uleb128 0x2e
 7819 03e7 00       		.byte	0x0
 7820 03e8 3F       		.uleb128 0x3f
 7821 03e9 0C       		.uleb128 0xc
 7822 03ea 03       		.uleb128 0x3
 7823 03eb 0E       		.uleb128 0xe
 7824 03ec 3A       		.uleb128 0x3a
 7825 03ed 0B       		.uleb128 0xb
 7826 03ee 3B       		.uleb128 0x3b
 7827 03ef 05       		.uleb128 0x5
 7828 03f0 8740     		.uleb128 0x2007
 7829 03f2 0E       		.uleb128 0xe
 7830 03f3 11       		.uleb128 0x11
 7831 03f4 01       		.uleb128 0x1
 7832 03f5 12       		.uleb128 0x12
 7833 03f6 01       		.uleb128 0x1
 7834 03f7 40       		.uleb128 0x40
 7835 03f8 0A       		.uleb128 0xa
 7836 03f9 00       		.byte	0x0
 7837 03fa 00       		.byte	0x0
 7838 03fb 46       		.uleb128 0x46
 7839 03fc 21       		.uleb128 0x21
 7840 03fd 00       		.byte	0x0
 7841 03fe 49       		.uleb128 0x49
 7842 03ff 13       		.uleb128 0x13
 7843 0400 2F       		.uleb128 0x2f
 7844 0401 05       		.uleb128 0x5
 7845 0402 00       		.byte	0x0
 7846 0403 00       		.byte	0x0
 7847 0404 00       		.byte	0x0
 7848              		.section	.debug_pubnames,"",%progbits
 7849 0000 BD000000 		.4byte	0xbd
 7850 0004 0200     		.2byte	0x2
 7851 0006 00000000 		.4byte	.Ldebug_info0
ARM GAS  /tmp/ccX0J2UF.s 			page 157


 7852 000a D4200000 		.4byte	0x20d4
 7853 000e C8160000 		.4byte	0x16c8
 7854 0012 73645F72 		.ascii	"sd_raw_init\000"
 7854      61775F69 
 7854      6E697400 
 7855 001e 1B170000 		.4byte	0x171b
 7856 0022 73645F72 		.ascii	"sd_raw_available\000"
 7856      61775F61 
 7856      7661696C 
 7856      61626C65 
 7856      00
 7857 0033 54170000 		.4byte	0x1754
 7858 0037 73645F72 		.ascii	"sd_raw_locked\000"
 7858      61775F6C 
 7858      6F636B65 
 7858      6400
 7859 0045 0E180000 		.4byte	0x180e
 7860 0049 73645F72 		.ascii	"sd_raw_read\000"
 7860      61775F72 
 7860      65616400 
 7861 0055 BA180000 		.4byte	0x18ba
 7862 0059 73645F72 		.ascii	"sd_raw_read_interval\000"
 7862      61775F72 
 7862      6561645F 
 7862      696E7465 
 7862      7276616C 
 7863 006e 34190000 		.4byte	0x1934
 7864 0072 73645F72 		.ascii	"sd_raw_write\000"
 7864      61775F77 
 7864      72697465 
 7864      00
 7865 007f EB190000 		.4byte	0x19eb
 7866 0083 73645F72 		.ascii	"sd_raw_sync\000"
 7866      61775F73 
 7866      796E6300 
 7867 008f 081A0000 		.4byte	0x1a08
 7868 0093 73645F72 		.ascii	"sd_raw_get_info\000"
 7868      61775F67 
 7868      65745F69 
 7868      6E666F00 
 7869 00a3 B51A0000 		.4byte	0x1ab5
 7870 00a7 53446F66 		.ascii	"SDoff\000"
 7870      6600
 7871 00ad CD1A0000 		.4byte	0x1acd
 7872 00b1 666F726D 		.ascii	"format_card\000"
 7872      61745F63 
 7872      61726400 
 7873 00bd 00000000 		.4byte	0x0
 7874              		.section	.debug_pubtypes,"",%progbits
 7875 0000 B2010000 		.4byte	0x1b2
 7876 0004 0200     		.2byte	0x2
 7877 0006 00000000 		.4byte	.Ldebug_info0
 7878 000a D4200000 		.4byte	0x20d4
 7879 000e 29000000 		.4byte	0x29
 7880 0012 626F6F6C 		.ascii	"bool_t\000"
 7880      5F7400
 7881 0019 42000000 		.4byte	0x42
ARM GAS  /tmp/ccX0J2UF.s 			page 158


 7882 001d 75696E74 		.ascii	"uint8_t\000"
 7882      385F7400 
 7883 0025 69000000 		.4byte	0x69
 7884 0029 75696E74 		.ascii	"uint32_t\000"
 7884      33325F74 
 7884      00
 7885 0032 9B020000 		.4byte	0x29b
 7886 0036 5F4C4F43 		.ascii	"_LOCK_RECURSIVE_T\000"
 7886      4B5F5245 
 7886      43555253 
 7886      4956455F 
 7886      5400
 7887 0048 A6020000 		.4byte	0x2a6
 7888 004c 5F66706F 		.ascii	"_fpos_t\000"
 7888      735F7400 
 7889 0054 B1020000 		.4byte	0x2b1
 7890 0058 77696E74 		.ascii	"wint_t\000"
 7890      5F7400
 7891 005f 15030000 		.4byte	0x315
 7892 0063 5F666C6F 		.ascii	"_flock_t\000"
 7892      636B5F74 
 7892      00
 7893 006c 22030000 		.4byte	0x322
 7894 0070 5F5F554C 		.ascii	"__ULong\000"
 7894      6F6E6700 
 7895 0078 2D030000 		.4byte	0x32d
 7896 007c 5F426967 		.ascii	"_Bigint\000"
 7896      696E7400 
 7897 0084 A2030000 		.4byte	0x3a2
 7898 0088 5F5F746D 		.ascii	"__tm\000"
 7898      00
 7899 008d 2D040000 		.4byte	0x42d
 7900 0091 5F6F6E5F 		.ascii	"_on_exit_args\000"
 7900      65786974 
 7900      5F617267 
 7900      7300
 7901 009f 86040000 		.4byte	0x486
 7902 00a3 5F617465 		.ascii	"_atexit\000"
 7902      78697400 
 7903 00ab EA040000 		.4byte	0x4ea
 7904 00af 5F5F7362 		.ascii	"__sbuf\000"
 7904      756600
 7905 00b6 19050000 		.4byte	0x519
 7906 00ba 5F5F7346 		.ascii	"__sFILE\000"
 7906      494C4500 
 7907 00c2 0F0A0000 		.4byte	0xa0f
 7908 00c6 5F5F4649 		.ascii	"__FILE\000"
 7908      4C4500
 7909 00cd 1B0A0000 		.4byte	0xa1b
 7910 00d1 5F676C75 		.ascii	"_glue\000"
 7910      6500
 7911 00d7 620A0000 		.4byte	0xa62
 7912 00db 5F72616E 		.ascii	"_rand48\000"
 7912      64343800 
 7913 00e3 97060000 		.4byte	0x697
 7914 00e7 5F726565 		.ascii	"_reent\000"
 7914      6E7400
ARM GAS  /tmp/ccX0J2UF.s 			page 159


 7915 00ee 640B0000 		.4byte	0xb64
 7916 00f2 70747264 		.ascii	"ptrdiff_t\000"
 7916      6966665F 
 7916      7400
 7917 00fc 6F0B0000 		.4byte	0xb6f
 7918 0100 73697A65 		.ascii	"size_t\000"
 7918      5F7400
 7919 0107 850B0000 		.4byte	0xb85
 7920 010b 5F5F7661 		.ascii	"__va_list\000"
 7920      5F6C6973 
 7920      7400
 7921 0115 7A0B0000 		.4byte	0xb7a
 7922 0119 5F5F676E 		.ascii	"__gnuc_va_list\000"
 7922      75635F76 
 7922      615F6C69 
 7922      737400
 7923 0128 9F0B0000 		.4byte	0xb9f
 7924 012c 636C6F63 		.ascii	"clock_t\000"
 7924      6B5F7400 
 7925 0134 AA0B0000 		.4byte	0xbaa
 7926 0138 74696D65 		.ascii	"time_t\000"
 7926      5F7400
 7927 013f B50B0000 		.4byte	0xbb5
 7928 0143 46494C45 		.ascii	"FILE\000"
 7928      00
 7929 0148 C00B0000 		.4byte	0xbc0
 7930 014c 66706F73 		.ascii	"fpos_t\000"
 7930      5F7400
 7931 0153 9E110000 		.4byte	0x119e
 7932 0157 746D00   		.ascii	"tm\000"
 7933 015a 3F130000 		.4byte	0x133f
 7934 015e 76615F6C 		.ascii	"va_list\000"
 7934      69737400 
 7935 0166 4F130000 		.4byte	0x134f
 7936 016a 4649464F 		.ascii	"FIFO\000"
 7936      00
 7937 016f 48140000 		.4byte	0x1448
 7938 0173 55415254 		.ascii	"UARTBase\000"
 7938      42617365 
 7938      00
 7939 017c C8140000 		.4byte	0x14c8
 7940 0180 55415254 		.ascii	"UART0\000"
 7940      3000
 7941 0186 D9150000 		.4byte	0x15d9
 7942 018a 73645F72 		.ascii	"sd_raw_info\000"
 7942      61775F69 
 7942      6E666F00 
 7943 0196 9E160000 		.4byte	0x169e
 7944 019a 73645F72 		.ascii	"sd_raw_interval_handler\000"
 7944      61775F69 
 7944      6E746572 
 7944      76616C5F 
 7944      68616E64 
 7945 01b2 00000000 		.4byte	0x0
 7946              		.section	.debug_aranges,"",%progbits
 7947 0000 7C000000 		.4byte	0x7c
 7948 0004 0200     		.2byte	0x2
ARM GAS  /tmp/ccX0J2UF.s 			page 160


 7949 0006 00000000 		.4byte	.Ldebug_info0
 7950 000a 04       		.byte	0x4
 7951 000b 00       		.byte	0x0
 7952 000c 0000     		.2byte	0x0
 7953 000e 0000     		.2byte	0x0
 7954 0010 00000000 		.4byte	.LFB109
 7955 0014 68030000 		.4byte	.LFE109-.LFB109
 7956 0018 00000000 		.4byte	.LFB110
 7957 001c B0000000 		.4byte	.LFE110-.LFB110
 7958 0020 00000000 		.4byte	.LFB111
 7959 0024 0C000000 		.4byte	.LFE111-.LFB111
 7960 0028 00000000 		.4byte	.LFB112
 7961 002c 58000000 		.4byte	.LFE112-.LFB112
 7962 0030 00000000 		.4byte	.LFB113
 7963 0034 58000000 		.4byte	.LFE113-.LFB113
 7964 0038 00000000 		.4byte	.LFB114
 7965 003c 00010000 		.4byte	.LFE114-.LFB114
 7966 0040 00000000 		.4byte	.LFB115
 7967 0044 8C020000 		.4byte	.LFE115-.LFB115
 7968 0048 00000000 		.4byte	.LFB116
 7969 004c 1C010000 		.4byte	.LFE116-.LFB116
 7970 0050 00000000 		.4byte	.LFB117
 7971 0054 04030000 		.4byte	.LFE117-.LFB117
 7972 0058 00000000 		.4byte	.LFB118
 7973 005c 74000000 		.4byte	.LFE118-.LFB118
 7974 0060 00000000 		.4byte	.LFB119
 7975 0064 D0040000 		.4byte	.LFE119-.LFB119
 7976 0068 00000000 		.4byte	.LFB120
 7977 006c 34000000 		.4byte	.LFE120-.LFB120
 7978 0070 00000000 		.4byte	.LFB121
 7979 0074 B4020000 		.4byte	.LFE121-.LFB121
 7980 0078 00000000 		.4byte	0x0
 7981 007c 00000000 		.4byte	0x0
 7982              		.section	.debug_ranges,"",%progbits
 7983              	.Ldebug_ranges0:
 7984 0000 00000000 		.4byte	.LFB109
 7985 0004 68030000 		.4byte	.LFE109
 7986 0008 00000000 		.4byte	.LFB110
 7987 000c B0000000 		.4byte	.LFE110
 7988 0010 00000000 		.4byte	.LFB111
 7989 0014 0C000000 		.4byte	.LFE111
 7990 0018 00000000 		.4byte	.LFB112
 7991 001c 58000000 		.4byte	.LFE112
 7992 0020 00000000 		.4byte	.LFB113
 7993 0024 58000000 		.4byte	.LFE113
 7994 0028 00000000 		.4byte	.LFB114
 7995 002c 00010000 		.4byte	.LFE114
 7996 0030 00000000 		.4byte	.LFB115
 7997 0034 8C020000 		.4byte	.LFE115
 7998 0038 00000000 		.4byte	.LFB116
 7999 003c 1C010000 		.4byte	.LFE116
 8000 0040 00000000 		.4byte	.LFB117
 8001 0044 04030000 		.4byte	.LFE117
 8002 0048 00000000 		.4byte	.LFB118
 8003 004c 74000000 		.4byte	.LFE118
 8004 0050 00000000 		.4byte	.LFB119
 8005 0054 D0040000 		.4byte	.LFE119
ARM GAS  /tmp/ccX0J2UF.s 			page 161


 8006 0058 00000000 		.4byte	.LFB120
 8007 005c 34000000 		.4byte	.LFE120
 8008 0060 00000000 		.4byte	.LFB121
 8009 0064 B4020000 		.4byte	.LFE121
 8010 0068 00000000 		.4byte	0x0
 8011 006c 00000000 		.4byte	0x0
 8012              		.section	.debug_str,"MS",%progbits,1
 8013              	.LASF169:
 8014 0000 67657465 		.ascii	"getenv\000"
 8014      6E7600
 8015              	.LASF7:
 8016 0007 6C6F6E67 		.ascii	"long int\000"
 8016      20696E74 
 8016      00
 8017              	.LASF247:
 8018 0010 6D616E75 		.ascii	"manufacturer\000"
 8018      66616374 
 8018      75726572 
 8018      00
 8019              	.LASF367:
 8020 001d 50574D54 		.ascii	"PWMTCR_PWM_ENABLE\000"
 8020      43525F50 
 8020      574D5F45 
 8020      4E41424C 
 8020      4500
 8021              	.LASF165:
 8022 002f 61746F66 		.ascii	"atof\000"
 8022      00
 8023              	.LASF287:
 8024 0034 6373645F 		.ascii	"csd_read_bl_len\000"
 8024      72656164 
 8024      5F626C5F 
 8024      6C656E00 
 8025              	.LASF260:
 8026 0044 72657370 		.ascii	"response\000"
 8026      6F6E7365 
 8026      00
 8027              	.LASF359:
 8028 004d 50574D45 		.ascii	"PWMENA1\000"
 8028      4E413100 
 8029              	.LASF275:
 8030 0055 696E7465 		.ascii	"interval\000"
 8030      7276616C 
 8030      00
 8031              	.LASF361:
 8032 005e 50574D45 		.ascii	"PWMENA3\000"
 8032      4E413300 
 8033              	.LASF167:
 8034 0066 61746F6C 		.ascii	"atol\000"
 8034      00
 8035              	.LASF143:
 8036 006b 67657463 		.ascii	"getc\000"
 8036      00
 8037              	.LASF364:
 8038 0070 50574D45 		.ascii	"PWMENA6\000"
 8038      4E413600 
 8039              	.LASF151:
ARM GAS  /tmp/ccX0J2UF.s 			page 162


 8040 0078 73657476 		.ascii	"setvbuf\000"
 8040      62756600 
 8041              	.LASF259:
 8042 0080 75617274 		.ascii	"uart\000"
 8042      00
 8043              	.LASF194:
 8044 0085 5F5F6578 		.ascii	"__extra_2\000"
 8044      7472615F 
 8044      3200
 8045              	.LASF197:
 8046 008f 6D6B7469 		.ascii	"mktime\000"
 8046      6D6500
 8047              	.LASF147:
 8048 0096 72656D6F 		.ascii	"remove\000"
 8048      766500
 8049              	.LASF39:
 8050 009d 5F6F6E5F 		.ascii	"_on_exit_args\000"
 8050      65786974 
 8050      5F617267 
 8050      7300
 8051              	.LASF253:
 8052 00ab 63617061 		.ascii	"capacity\000"
 8052      63697479 
 8052      00
 8053              	.LASF191:
 8054 00b4 746D5F79 		.ascii	"tm_yday\000"
 8054      64617900 
 8055              	.LASF77:
 8056 00bc 5F776374 		.ascii	"_wctomb_state\000"
 8056      6F6D625F 
 8056      73746174 
 8056      6500
 8057              	.LASF144:
 8058 00ca 67657473 		.ascii	"gets\000"
 8058      00
 8059              	.LASF326:
 8060 00cf 54784D43 		.ascii	"TxMCR_INT_ON_MR0\000"
 8060      525F494E 
 8060      545F4F4E 
 8060      5F4D5230 
 8060      00
 8061              	.LASF319:
 8062 00e0 49324378 		.ascii	"I2CxCONSET_AA\000"
 8062      434F4E53 
 8062      45545F41 
 8062      4100
 8063              	.LASF211:
 8064 00ee 62756666 		.ascii	"buffer\000"
 8064      657200
 8065              	.LASF311:
 8066 00f5 53535053 		.ascii	"SSPSR_RNE\000"
 8066      525F524E 
 8066      4500
 8067              	.LASF303:
 8068 00ff 56494356 		.ascii	"VICVectCntl_ENABLE\000"
 8068      65637443 
 8068      6E746C5F 
ARM GAS  /tmp/ccX0J2UF.s 			page 163


 8068      454E4142 
 8068      4C4500
 8069              	.LASF79:
 8070 0112 5F736967 		.ascii	"_signal_buf\000"
 8070      6E616C5F 
 8070      62756600 
 8071              	.LASF171:
 8072 011e 6D626C65 		.ascii	"mblen\000"
 8072      6E00
 8073              	.LASF14:
 8074 0124 756E7369 		.ascii	"unsigned int\000"
 8074      676E6564 
 8074      20696E74 
 8074      00
 8075              	.LASF352:
 8076 0131 4C455230 		.ascii	"LER0_EN\000"
 8076      5F454E00 
 8077              	.LASF250:
 8078 0139 73657269 		.ascii	"serial\000"
 8078      616C00
 8079              	.LASF386:
 8080 0140 53446F66 		.ascii	"SDoff\000"
 8080      6600
 8081              	.LASF377:
 8082 0146 5F5F676E 		.ascii	"__gnu_cxx\000"
 8082      755F6378 
 8082      7800
 8083              	.LASF53:
 8084 0150 5F6C6266 		.ascii	"_lbfsize\000"
 8084      73697A65 
 8084      00
 8085              	.LASF51:
 8086 0159 5F666C61 		.ascii	"_flags\000"
 8086      677300
 8087              	.LASF230:
 8088 0160 5F5A4E38 		.ascii	"_ZN8UARTBase5ClearEv\000"
 8088      55415254 
 8088      42617365 
 8088      35436C65 
 8088      61724576 
 8089              	.LASF61:
 8090 0175 5F626C6B 		.ascii	"_blksize\000"
 8090      73697A65 
 8090      00
 8091              	.LASF90:
 8092 017e 5F657272 		.ascii	"_errno\000"
 8092      6E6F00
 8093              	.LASF173:
 8094 0185 77636861 		.ascii	"wchar_t\000"
 8094      725F7400 
 8095              	.LASF290:
 8096 018d 666F726D 		.ascii	"format_card\000"
 8096      61745F63 
 8096      61726400 
 8097              	.LASF157:
 8098 0199 73747265 		.ascii	"strerror\000"
 8098      72726F72 
ARM GAS  /tmp/ccX0J2UF.s 			page 164


 8098      00
 8099              	.LASF309:
 8100 01a2 53535053 		.ascii	"SSPSR_TFE\000"
 8100      525F5446 
 8100      4500
 8101              	.LASF26:
 8102 01ac 5F736967 		.ascii	"_sign\000"
 8102      6E00
 8103              	.LASF293:
 8104 01b2 6D795F62 		.ascii	"my_buff\000"
 8104      75666600 
 8105              	.LASF187:
 8106 01ba 746D5F6D 		.ascii	"tm_mday\000"
 8106      64617900 
 8107              	.LASF282:
 8108 01c2 5F5A3133 		.ascii	"_Z13sd_raw_lockedv\000"
 8108      73645F72 
 8108      61775F6C 
 8108      6F636B65 
 8108      647600
 8109              	.LASF65:
 8110 01d5 5F6D6273 		.ascii	"_mbstate\000"
 8110      74617465 
 8110      00
 8111              	.LASF342:
 8112 01de 54784343 		.ascii	"TxCCR_CAP2RE\000"
 8112      525F4341 
 8112      50325245 
 8112      00
 8113              	.LASF55:
 8114 01eb 5F726561 		.ascii	"_read\000"
 8114      6400
 8115              	.LASF74:
 8116 01f1 5F723438 		.ascii	"_r48\000"
 8116      00
 8117              	.LASF23:
 8118 01f6 5F5F554C 		.ascii	"__ULong\000"
 8118      6F6E6700 
 8119              	.LASF81:
 8120 01fe 5F6D6272 		.ascii	"_mbrlen_state\000"
 8120      6C656E5F 
 8120      73746174 
 8120      6500
 8121              	.LASF155:
 8122 020c 756E6765 		.ascii	"ungetc\000"
 8122      746300
 8123              	.LASF92:
 8124 0213 5F737464 		.ascii	"_stdout\000"
 8124      6F757400 
 8125              	.LASF16:
 8126 021b 5F66706F 		.ascii	"_fpos_t\000"
 8126      735F7400 
 8127              	.LASF369:
 8128 0223 57444D4F 		.ascii	"WDMOD_WDRESET\000"
 8128      445F5744 
 8128      52455345 
 8128      5400
ARM GAS  /tmp/ccX0J2UF.s 			page 165


 8129              	.LASF46:
 8130 0231 5F666E73 		.ascii	"_fns\000"
 8130      00
 8131              	.LASF245:
 8132 0236 5F5A4E35 		.ascii	"_ZN5UART09WriteLineEPKcz\000"
 8132      55415254 
 8132      30395772 
 8132      6974654C 
 8132      696E6545 
 8133              	.LASF54:
 8134 024f 5F636F6F 		.ascii	"_cookie\000"
 8134      6B696500 
 8135              	.LASF220:
 8136 0257 42617564 		.ascii	"BaudRate1200\000"
 8136      52617465 
 8136      31323030 
 8136      00
 8137              	.LASF354:
 8138 0264 4C455232 		.ascii	"LER2_EN\000"
 8138      5F454E00 
 8139              	.LASF255:
 8140 026c 666C6167 		.ascii	"flag_write_protect\000"
 8140      5F777269 
 8140      74655F70 
 8140      726F7465 
 8140      637400
 8141              	.LASF334:
 8142 027f 54784952 		.ascii	"TxIR_CR2_FLAG\000"
 8142      5F435232 
 8142      5F464C41 
 8142      4700
 8143              	.LASF36:
 8144 028d 5F5F746D 		.ascii	"__tm_wday\000"
 8144      5F776461 
 8144      7900
 8145              	.LASF329:
 8146 0297 54784952 		.ascii	"TxIR_MR1_FLAG\000"
 8146      5F4D5231 
 8146      5F464C41 
 8146      4700
 8147              	.LASF100:
 8148 02a5 5F726573 		.ascii	"_result\000"
 8148      756C7400 
 8149              	.LASF219:
 8150 02ad 55415254 		.ascii	"UARTBase\000"
 8150      42617365 
 8150      00
 8151              	.LASF8:
 8152 02b6 75696E74 		.ascii	"uint32_t\000"
 8152      33325F74 
 8152      00
 8153              	.LASF32:
 8154 02bf 5F5F746D 		.ascii	"__tm_hour\000"
 8154      5F686F75 
 8154      7200
 8155              	.LASF203:
 8156 02c9 73747266 		.ascii	"strftime\000"
ARM GAS  /tmp/ccX0J2UF.s 			page 166


 8156      74696D65 
 8156      00
 8157              	.LASF174:
 8158 02d2 6D62746F 		.ascii	"mbtowc\000"
 8158      776300
 8159              	.LASF188:
 8160 02d9 746D5F6D 		.ascii	"tm_mon\000"
 8160      6F6E00
 8161              	.LASF129:
 8162 02e0 66706F73 		.ascii	"fpos_t\000"
 8162      5F7400
 8163              	.LASF382:
 8164 02e7 5F5A3131 		.ascii	"_Z11sd_raw_initv\000"
 8164      73645F72 
 8164      61775F69 
 8164      6E697476 
 8164      00
 8165              	.LASF20:
 8166 02f8 5F5F636F 		.ascii	"__count\000"
 8166      756E7400 
 8167              	.LASF216:
 8168 0300 5F5A4E34 		.ascii	"_ZN4FIFO7HasDataEv\000"
 8168      4649464F 
 8168      37486173 
 8168      44617461 
 8168      457600
 8169              	.LASF12:
 8170 0313 666C6F61 		.ascii	"float\000"
 8170      7400
 8171              	.LASF378:
 8172 0319 42617564 		.ascii	"BaudRate\000"
 8172      52617465 
 8172      00
 8173              	.LASF270:
 8174 0322 626C6F63 		.ascii	"block_offset\000"
 8174      6B5F6F66 
 8174      66736574 
 8174      00
 8175              	.LASF31:
 8176 032f 5F5F746D 		.ascii	"__tm_min\000"
 8176      5F6D696E 
 8176      00
 8177              	.LASF87:
 8178 0338 5F6E6578 		.ascii	"_nextf\000"
 8178      746600
 8179              	.LASF198:
 8180 033f 74696D65 		.ascii	"time\000"
 8180      00
 8181              	.LASF279:
 8182 0344 77726974 		.ascii	"write_length\000"
 8182      655F6C65 
 8182      6E677468 
 8182      00
 8183              	.LASF83:
 8184 0351 5F6D6273 		.ascii	"_mbsrtowcs_state\000"
 8184      72746F77 
 8184      63735F73 
ARM GAS  /tmp/ccX0J2UF.s 			page 167


 8184      74617465 
 8184      00
 8185              	.LASF277:
 8186 0362 73645F72 		.ascii	"sd_raw_write\000"
 8186      61775F77 
 8186      72697465 
 8186      00
 8187              	.LASF376:
 8188 036f 2F686F6D 		.ascii	"/home/elijah/projects/arm7_app\000"
 8188      652F656C 
 8188      696A6168 
 8188      2F70726F 
 8188      6A656374 
 8189              	.LASF291:
 8190 038e 5F5A3131 		.ascii	"_Z11format_cardc\000"
 8190      666F726D 
 8190      61745F63 
 8190      61726463 
 8190      00
 8191              	.LASF206:
 8192 039f 4649464F 		.ascii	"FIFOBufferMask\000"
 8192      42756666 
 8192      65724D61 
 8192      736B00
 8193              	.LASF11:
 8194 03ae 6C6F6E67 		.ascii	"long long unsigned int\000"
 8194      206C6F6E 
 8194      6720756E 
 8194      7369676E 
 8194      65642069 
 8195              	.LASF70:
 8196 03c5 5F617363 		.ascii	"_asctime_buf\000"
 8196      74696D65 
 8196      5F627566 
 8196      00
 8197              	.LASF320:
 8198 03d2 49324378 		.ascii	"I2CxCONSET_SI\000"
 8198      434F4E53 
 8198      45545F53 
 8198      4900
 8199              	.LASF50:
 8200 03e0 5F5F7346 		.ascii	"__sFILE\000"
 8200      494C4500 
 8201              	.LASF27:
 8202 03e8 5F776473 		.ascii	"_wds\000"
 8202      00
 8203              	.LASF209:
 8204 03ed 68656164 		.ascii	"head\000"
 8204      00
 8205              	.LASF116:
 8206 03f2 5F72616E 		.ascii	"_rand48\000"
 8206      64343800 
 8207              	.LASF196:
 8208 03fa 64696666 		.ascii	"difftime\000"
 8208      74696D65 
 8208      00
 8209              	.LASF183:
ARM GAS  /tmp/ccX0J2UF.s 			page 168


 8210 0403 7763746F 		.ascii	"wctomb\000"
 8210      6D6200
 8211              	.LASF332:
 8212 040a 54784952 		.ascii	"TxIR_CR0_FLAG\000"
 8212      5F435230 
 8212      5F464C41 
 8212      4700
 8213              	.LASF200:
 8214 0418 6374696D 		.ascii	"ctime\000"
 8214      6500
 8215              	.LASF368:
 8216 041e 57444D4F 		.ascii	"WDMOD_WDEN\000"
 8216      445F5744 
 8216      454E00
 8217              	.LASF112:
 8218 0429 5F5F4649 		.ascii	"__FILE\000"
 8218      4C4500
 8219              	.LASF273:
 8220 0430 73645F72 		.ascii	"sd_raw_read_interval\000"
 8220      61775F72 
 8220      6561645F 
 8220      696E7465 
 8220      7276616C 
 8221              	.LASF62:
 8222 0445 5F6F6666 		.ascii	"_offset\000"
 8222      73657400 
 8223              	.LASF59:
 8224 044d 5F756275 		.ascii	"_ubuf\000"
 8224      6600
 8225              	.LASF305:
 8226 0453 55494952 		.ascii	"UIIR_ID_MASK\000"
 8226      5F49445F 
 8226      4D41534B 
 8226      00
 8227              	.LASF222:
 8228 0460 42617564 		.ascii	"BaudRate4800\000"
 8228      52617465 
 8228      34383030 
 8228      00
 8229              	.LASF126:
 8230 046d 636C6F63 		.ascii	"clock_t\000"
 8230      6B5F7400 
 8231              	.LASF327:
 8232 0475 54784D43 		.ascii	"TxMCR_RESET_ON_MR0\000"
 8232      525F5245 
 8232      5345545F 
 8232      4F4E5F4D 
 8232      523000
 8233              	.LASF227:
 8234 0488 42617564 		.ascii	"BaudRate115200\000"
 8234      52617465 
 8234      31313532 
 8234      303000
 8235              	.LASF95:
 8236 0497 5F656D65 		.ascii	"_emergency\000"
 8236      7267656E 
 8236      637900
ARM GAS  /tmp/ccX0J2UF.s 			page 169


 8237              	.LASF257:
 8238 04a2 666F726D 		.ascii	"format\000"
 8238      617400
 8239              	.LASF307:
 8240 04a9 554C5352 		.ascii	"ULSR_RDR\000"
 8240      5F524452 
 8240      00
 8241              	.LASF314:
 8242 04b2 53535043 		.ascii	"SSPCR0_CPHA\000"
 8242      52305F43 
 8242      50484100 
 8243              	.LASF207:
 8244 04be 5F5A4E34 		.ascii	"_ZN4FIFO14FIFOBufferSizeE\000"
 8244      4649464F 
 8244      31344649 
 8244      464F4275 
 8244      66666572 
 8245              	.LASF271:
 8246 04d8 72656164 		.ascii	"read_length\000"
 8246      5F6C656E 
 8246      67746800 
 8247              	.LASF123:
 8248 04e4 5F5F676E 		.ascii	"__gnuc_va_list\000"
 8248      75635F76 
 8248      615F6C69 
 8248      737400
 8249              	.LASF246:
 8250 04f3 73645F72 		.ascii	"sd_raw_info\000"
 8250      61775F69 
 8250      6E666F00 
 8251              	.LASF308:
 8252 04ff 5353454C 		.ascii	"SSEL1\000"
 8252      3100
 8253              	.LASF122:
 8254 0505 73697A65 		.ascii	"size_t\000"
 8254      5F7400
 8255              	.LASF178:
 8256 050c 73747274 		.ascii	"strtod\000"
 8256      6F6400
 8257              	.LASF177:
 8258 0513 7372616E 		.ascii	"srand\000"
 8258      6400
 8259              	.LASF265:
 8260 0519 5F5A3136 		.ascii	"_Z16sd_raw_availablev\000"
 8260      73645F72 
 8260      61775F61 
 8260      7661696C 
 8260      61626C65 
 8261              	.LASF267:
 8262 052f 6F666673 		.ascii	"offset\000"
 8262      657400
 8263              	.LASF30:
 8264 0536 5F5F746D 		.ascii	"__tm_sec\000"
 8264      5F736563 
 8264      00
 8265              	.LASF205:
 8266 053f 4649464F 		.ascii	"FIFOBufferSize\000"
ARM GAS  /tmp/ccX0J2UF.s 			page 170


 8266      42756666 
 8266      65725369 
 8266      7A6500
 8267              	.LASF2:
 8268 054e 626F6F6C 		.ascii	"bool_t\000"
 8268      5F7400
 8269              	.LASF105:
 8270 0555 5F637674 		.ascii	"_cvtbuf\000"
 8270      62756600 
 8271              	.LASF158:
 8272 055d 73747274 		.ascii	"strtok\000"
 8272      6F6B00
 8273              	.LASF37:
 8274 0564 5F5F746D 		.ascii	"__tm_yday\000"
 8274      5F796461 
 8274      7900
 8275              	.LASF21:
 8276 056e 5F5F7661 		.ascii	"__value\000"
 8276      6C756500 
 8277              	.LASF94:
 8278 0576 5F696E63 		.ascii	"_inc\000"
 8278      00
 8279              	.LASF45:
 8280 057b 5F696E64 		.ascii	"_ind\000"
 8280      00
 8281              	.LASF336:
 8282 0580 54784343 		.ascii	"TxCCR_CAP0RE\000"
 8282      525F4341 
 8282      50305245 
 8282      00
 8283              	.LASF168:
 8284 058d 62736561 		.ascii	"bsearch\000"
 8284      72636800 
 8285              	.LASF242:
 8286 0595 57726974 		.ascii	"WriteChar\000"
 8286      65436861 
 8286      7200
 8287              	.LASF343:
 8288 059f 54784343 		.ascii	"TxCCR_CAP2FE\000"
 8288      525F4341 
 8288      50324645 
 8288      00
 8289              	.LASF256:
 8290 05ac 666C6167 		.ascii	"flag_write_protect_temp\000"
 8290      5F777269 
 8290      74655F70 
 8290      726F7465 
 8290      63745F74 
 8291              	.LASF241:
 8292 05c4 5F5A4E35 		.ascii	"_ZN5UART05WriteEPKc\000"
 8292      55415254 
 8292      30355772 
 8292      69746545 
 8292      504B6300 
 8293              	.LASF24:
 8294 05d8 5F6E6578 		.ascii	"_next\000"
 8294      7400
ARM GAS  /tmp/ccX0J2UF.s 			page 171


 8295              	.LASF145:
 8296 05de 636C6561 		.ascii	"clearerr\000"
 8296      72657272 
 8296      00
 8297              	.LASF130:
 8298 05e7 66636C6F 		.ascii	"fclose\000"
 8298      736500
 8299              	.LASF223:
 8300 05ee 42617564 		.ascii	"BaudRate9600\000"
 8300      52617465 
 8300      39363030 
 8300      00
 8301              	.LASF213:
 8302 05fb 436C6561 		.ascii	"Clear\000"
 8302      7200
 8303              	.LASF317:
 8304 0601 49324378 		.ascii	"I2CxCONCLR_STAC\000"
 8304      434F4E43 
 8304      4C525F53 
 8304      54414300 
 8305              	.LASF323:
 8306 0611 49324378 		.ascii	"I2CxCONSET_I2EN\000"
 8306      434F4E53 
 8306      45545F49 
 8306      32454E00 
 8307              	.LASF139:
 8308 0621 6672656F 		.ascii	"freopen\000"
 8308      70656E00 
 8309              	.LASF356:
 8310 0629 4C455234 		.ascii	"LER4_EN\000"
 8310      5F454E00 
 8311              	.LASF195:
 8312 0631 636C6F63 		.ascii	"clock\000"
 8312      6B00
 8313              	.LASF208:
 8314 0637 5F5A4E34 		.ascii	"_ZN4FIFO14FIFOBufferMaskE\000"
 8314      4649464F 
 8314      31344649 
 8314      464F4275 
 8314      66666572 
 8315              	.LASF156:
 8316 0651 73747263 		.ascii	"strcoll\000"
 8316      6F6C6C00 
 8317              	.LASF102:
 8318 0659 5F703573 		.ascii	"_p5s\000"
 8318      00
 8319              	.LASF236:
 8320 065e 5F5A4E35 		.ascii	"_ZN5UART06EnableEN8UARTBase8BaudRateE\000"
 8320      55415254 
 8320      3036456E 
 8320      61626C65 
 8320      454E3855 
 8321              	.LASF322:
 8322 0684 49324378 		.ascii	"I2CxCONSET_STA\000"
 8322      434F4E53 
 8322      45545F53 
 8322      544100
ARM GAS  /tmp/ccX0J2UF.s 			page 172


 8323              	.LASF215:
 8324 0693 52656164 		.ascii	"Read\000"
 8324      00
 8325              	.LASF85:
 8326 0698 5F776373 		.ascii	"_wcsrtombs_state\000"
 8326      72746F6D 
 8326      62735F73 
 8326      74617465 
 8326      00
 8327              	.LASF75:
 8328 06a9 5F6D626C 		.ascii	"_mblen_state\000"
 8328      656E5F73 
 8328      74617465 
 8328      00
 8329              	.LASF285:
 8330 06b6 5F5A3135 		.ascii	"_Z15sd_raw_get_infoP11sd_raw_info\000"
 8330      73645F72 
 8330      61775F67 
 8330      65745F69 
 8330      6E666F50 
 8331              	.LASF381:
 8332 06d8 5F5A4E35 		.ascii	"_ZN5UART011GetInstanceEv\000"
 8332      55415254 
 8332      30313147 
 8332      6574496E 
 8332      7374616E 
 8333              	.LASF111:
 8334 06f1 63686172 		.ascii	"char\000"
 8334      00
 8335              	.LASF237:
 8336 06f6 49734368 		.ascii	"IsCharReady\000"
 8336      61725265 
 8336      61647900 
 8337              	.LASF33:
 8338 0702 5F5F746D 		.ascii	"__tm_mday\000"
 8338      5F6D6461 
 8338      7900
 8339              	.LASF159:
 8340 070c 73747278 		.ascii	"strxfrm\000"
 8340      66726D00 
 8341              	.LASF108:
 8342 0714 5F736967 		.ascii	"_sig_func\000"
 8342      5F66756E 
 8342      6300
 8343              	.LASF82:
 8344 071e 5F6D6272 		.ascii	"_mbrtowc_state\000"
 8344      746F7763 
 8344      5F737461 
 8344      746500
 8345              	.LASF107:
 8346 072d 5F617465 		.ascii	"_atexit0\000"
 8346      78697430 
 8346      00
 8347              	.LASF321:
 8348 0736 49324378 		.ascii	"I2CxCONSET_STO\000"
 8348      434F4E53 
 8348      45545F53 
ARM GAS  /tmp/ccX0J2UF.s 			page 173


 8348      544F00
 8349              	.LASF189:
 8350 0745 746D5F79 		.ascii	"tm_year\000"
 8350      65617200 
 8351              	.LASF254:
 8352 074d 666C6167 		.ascii	"flag_copy\000"
 8352      5F636F70 
 8352      7900
 8353              	.LASF249:
 8354 0757 72657669 		.ascii	"revision\000"
 8354      73696F6E 
 8354      00
 8355              	.LASF233:
 8356 0760 5F5A4E34 		.ascii	"_ZN4FIFO5ClearEv\000"
 8356      4649464F 
 8356      35436C65 
 8356      61724576 
 8356      00
 8357              	.LASF101:
 8358 0771 5F726573 		.ascii	"_result_k\000"
 8358      756C745F 
 8358      6B00
 8359              	.LASF10:
 8360 077b 6C6F6E67 		.ascii	"long long int\000"
 8360      206C6F6E 
 8360      6720696E 
 8360      7400
 8361              	.LASF294:
 8362 0789 5649435F 		.ascii	"VIC_USB_Intr\000"
 8362      5553425F 
 8362      496E7472 
 8362      00
 8363              	.LASF18:
 8364 0796 5F5F7763 		.ascii	"__wch\000"
 8364      6800
 8365              	.LASF225:
 8366 079c 42617564 		.ascii	"BaudRate38400\000"
 8366      52617465 
 8366      33383430 
 8366      3000
 8367              	.LASF3:
 8368 07aa 75696E74 		.ascii	"uint8_t\000"
 8368      385F7400 
 8369              	.LASF387:
 8370 07b2 5F5A3553 		.ascii	"_Z5SDoffv\000"
 8370      446F6666 
 8370      7600
 8371              	.LASF243:
 8372 07bc 5F5A4E35 		.ascii	"_ZN5UART09WriteCharEh\000"
 8372      55415254 
 8372      30395772 
 8372      69746543 
 8372      68617245 
 8373              	.LASF269:
 8374 07d2 626C6F63 		.ascii	"block_address\000"
 8374      6B5F6164 
 8374      64726573 
ARM GAS  /tmp/ccX0J2UF.s 			page 174


 8374      7300
 8375              	.LASF162:
 8376 07e0 71756F74 		.ascii	"quot\000"
 8376      00
 8377              	.LASF127:
 8378 07e5 74696D65 		.ascii	"time_t\000"
 8378      5F7400
 8379              	.LASF331:
 8380 07ec 54784952 		.ascii	"TxIR_MR3_FLAG\000"
 8380      5F4D5233 
 8380      5F464C41 
 8380      4700
 8381              	.LASF202:
 8382 07fa 6C6F6361 		.ascii	"localtime\000"
 8382      6C74696D 
 8382      6500
 8383              	.LASF98:
 8384 0804 5F5F7364 		.ascii	"__sdidinit\000"
 8384      6964696E 
 8384      697400
 8385              	.LASF148:
 8386 080f 72656E61 		.ascii	"rename\000"
 8386      6D6500
 8387              	.LASF251:
 8388 0816 6D616E75 		.ascii	"manufacturing_year\000"
 8388      66616374 
 8388      7572696E 
 8388      675F7965 
 8388      617200
 8389              	.LASF176:
 8390 0829 72616E64 		.ascii	"rand\000"
 8390      00
 8391              	.LASF152:
 8392 082e 67657463 		.ascii	"getchar\000"
 8392      68617200 
 8393              	.LASF199:
 8394 0836 61736374 		.ascii	"asctime\000"
 8394      696D6500 
 8395              	.LASF204:
 8396 083e 76615F6C 		.ascii	"va_list\000"
 8396      69737400 
 8397              	.LASF91:
 8398 0846 5F737464 		.ascii	"_stdin\000"
 8398      696E00
 8399              	.LASF154:
 8400 084d 746D706E 		.ascii	"tmpnam\000"
 8400      616D00
 8401              	.LASF150:
 8402 0854 73657462 		.ascii	"setbuf\000"
 8402      756600
 8403              	.LASF146:
 8404 085b 70657272 		.ascii	"perror\000"
 8404      6F7200
 8405              	.LASF313:
 8406 0862 53535043 		.ascii	"SSPCR0_CPOL\000"
 8406      52305F43 
 8406      504F4C00 
ARM GAS  /tmp/ccX0J2UF.s 			page 175


 8407              	.LASF48:
 8408 086e 5F626173 		.ascii	"_base\000"
 8408      6500
 8409              	.LASF103:
 8410 0874 5F667265 		.ascii	"_freelist\000"
 8410      656C6973 
 8410      7400
 8411              	.LASF118:
 8412 087e 5F6D756C 		.ascii	"_mult\000"
 8412      7400
 8413              	.LASF119:
 8414 0884 5F616464 		.ascii	"_add\000"
 8414      00
 8415              	.LASF261:
 8416 0889 73645F72 		.ascii	"sd_raw_init\000"
 8416      61775F69 
 8416      6E697400 
 8417              	.LASF84:
 8418 0895 5F776372 		.ascii	"_wcrtomb_state\000"
 8418      746F6D62 
 8418      5F737461 
 8418      746500
 8419              	.LASF0:
 8420 08a4 626F6F6C 		.ascii	"bool\000"
 8420      00
 8421              	.LASF125:
 8422 08a9 5F5F6170 		.ascii	"__ap\000"
 8422      00
 8423              	.LASF374:
 8424 08ae 474E5520 		.ascii	"GNU C++ 4.5.2\000"
 8424      432B2B20 
 8424      342E352E 
 8424      3200
 8425              	.LASF304:
 8426 08bc 55494552 		.ascii	"UIER_ERBFI\000"
 8426      5F455242 
 8426      464900
 8427              	.LASF358:
 8428 08c7 4C455236 		.ascii	"LER6_EN\000"
 8428      5F454E00 
 8429              	.LASF140:
 8430 08cf 66736565 		.ascii	"fseek\000"
 8430      6B00
 8431              	.LASF221:
 8432 08d5 42617564 		.ascii	"BaudRate2400\000"
 8432      52617465 
 8432      32343030 
 8432      00
 8433              	.LASF170:
 8434 08e2 6C646976 		.ascii	"ldiv\000"
 8434      00
 8435              	.LASF99:
 8436 08e7 5F5F636C 		.ascii	"__cleanup\000"
 8436      65616E75 
 8436      7000
 8437              	.LASF160:
 8438 08f1 5F6D6273 		.ascii	"_mbstate_t\000"
ARM GAS  /tmp/ccX0J2UF.s 			page 176


 8438      74617465 
 8438      5F7400
 8439              	.LASF133:
 8440 08fc 66666C75 		.ascii	"fflush\000"
 8440      736800
 8441              	.LASF121:
 8442 0903 70747264 		.ascii	"ptrdiff_t\000"
 8442      6966665F 
 8442      7400
 8443              	.LASF298:
 8444 090d 5649435F 		.ascii	"VIC_Channel_Timer0\000"
 8444      4368616E 
 8444      6E656C5F 
 8444      54696D65 
 8444      723000
 8445              	.LASF299:
 8446 0920 5649435F 		.ascii	"VIC_Channel_Timer1\000"
 8446      4368616E 
 8446      6E656C5F 
 8446      54696D65 
 8446      723100
 8447              	.LASF238:
 8448 0933 5F5A4E35 		.ascii	"_ZN5UART011IsCharReadyEv\000"
 8448      55415254 
 8448      30313149 
 8448      73436861 
 8448      72526561 
 8449              	.LASF22:
 8450 094c 5F666C6F 		.ascii	"_flock_t\000"
 8450      636B5F74 
 8450      00
 8451              	.LASF141:
 8452 0955 66736574 		.ascii	"fsetpos\000"
 8452      706F7300 
 8453              	.LASF263:
 8454 095d 636F6D6D 		.ascii	"command\000"
 8454      616E6400 
 8455              	.LASF38:
 8456 0965 5F5F746D 		.ascii	"__tm_isdst\000"
 8456      5F697364 
 8456      737400
 8457              	.LASF297:
 8458 0970 4343525F 		.ascii	"CCR_CLKSRC_32KHZ\000"
 8458      434C4B53 
 8458      52435F33 
 8458      324B485A 
 8458      00
 8459              	.LASF286:
 8460 0981 696E666F 		.ascii	"info\000"
 8460      00
 8461              	.LASF212:
 8462 0986 4649464F 		.ascii	"FIFO\000"
 8462      00
 8463              	.LASF142:
 8464 098b 6674656C 		.ascii	"ftell\000"
 8464      6C00
 8465              	.LASF365:
ARM GAS  /tmp/ccX0J2UF.s 			page 177


 8466 0991 50574D54 		.ascii	"PWMTCR_COUNTER_ENABLE\000"
 8466      43525F43 
 8466      4F554E54 
 8466      45525F45 
 8466      4E41424C 
 8467              	.LASF318:
 8468 09a7 49324378 		.ascii	"I2CxCONCLR_I2ENC\000"
 8468      434F4E43 
 8468      4C525F49 
 8468      32454E43 
 8468      00
 8469              	.LASF86:
 8470 09b8 5F685F65 		.ascii	"_h_errno\000"
 8470      72726E6F 
 8470      00
 8471              	.LASF300:
 8472 09c1 5649435F 		.ascii	"VIC_Channel_UART0\000"
 8472      4368616E 
 8472      6E656C5F 
 8472      55415254 
 8472      3000
 8473              	.LASF301:
 8474 09d3 5649435F 		.ascii	"VIC_Channel_UART1\000"
 8474      4368616E 
 8474      6E656C5F 
 8474      55415254 
 8474      3100
 8475              	.LASF134:
 8476 09e5 66676574 		.ascii	"fgetc\000"
 8476      6300
 8477              	.LASF264:
 8478 09eb 73645F72 		.ascii	"sd_raw_read\000"
 8478      61775F72 
 8478      65616400 
 8479              	.LASF137:
 8480 09f7 666F7065 		.ascii	"fopen\000"
 8480      6E00
 8481              	.LASF272:
 8482 09fd 63616368 		.ascii	"cache\000"
 8482      6500
 8483              	.LASF217:
 8484 0a03 5F5A4E34 		.ascii	"_ZN4FIFO4ReadEv\000"
 8484      4649464F 
 8484      34526561 
 8484      64457600 
 8485              	.LASF136:
 8486 0a13 66676574 		.ascii	"fgets\000"
 8486      7300
 8487              	.LASF292:
 8488 0a19 6D616B65 		.ascii	"make_sure\000"
 8488      5F737572 
 8488      6500
 8489              	.LASF34:
 8490 0a23 5F5F746D 		.ascii	"__tm_mon\000"
 8490      5F6D6F6E 
 8490      00
 8491              	.LASF234:
ARM GAS  /tmp/ccX0J2UF.s 			page 178


 8492 0a2c 5F5A4E35 		.ascii	"_ZN5UART07DisableEv\000"
 8492      55415254 
 8492      30374469 
 8492      7361626C 
 8492      65457600 
 8493              	.LASF278:
 8494 0a40 5F5A3132 		.ascii	"_Z12sd_raw_writejPKht\000"
 8494      73645F72 
 8494      61775F77 
 8494      72697465 
 8494      6A504B68 
 8495              	.LASF345:
 8496 0a56 54784343 		.ascii	"TxCCR_CAP3RE\000"
 8496      525F4341 
 8496      50335245 
 8496      00
 8497              	.LASF120:
 8498 0a63 6C6F6E67 		.ascii	"long double\000"
 8498      20646F75 
 8498      626C6500 
 8499              	.LASF338:
 8500 0a6f 54784343 		.ascii	"TxCCR_CAP0I\000"
 8500      525F4341 
 8500      50304900 
 8501              	.LASF56:
 8502 0a7b 5F777269 		.ascii	"_write\000"
 8502      746500
 8503              	.LASF310:
 8504 0a82 53535053 		.ascii	"SSPSR_TNF\000"
 8504      525F544E 
 8504      4600
 8505              	.LASF72:
 8506 0a8c 5F67616D 		.ascii	"_gamma_signgam\000"
 8506      6D615F73 
 8506      69676E67 
 8506      616D00
 8507              	.LASF328:
 8508 0a9b 54784952 		.ascii	"TxIR_MR0_FLAG\000"
 8508      5F4D5230 
 8508      5F464C41 
 8508      4700
 8509              	.LASF348:
 8510 0aa9 41447843 		.ascii	"ADxCR_PDN\000"
 8510      525F5044 
 8510      4E00
 8511              	.LASF73:
 8512 0ab3 5F72616E 		.ascii	"_rand_next\000"
 8512      645F6E65 
 8512      787400
 8513              	.LASF333:
 8514 0abe 54784952 		.ascii	"TxIR_CR1_FLAG\000"
 8514      5F435231 
 8514      5F464C41 
 8514      4700
 8515              	.LASF371:
 8516 0acc 7261775F 		.ascii	"raw_block\000"
 8516      626C6F63 
ARM GAS  /tmp/ccX0J2UF.s 			page 179


 8516      6B00
 8517              	.LASF353:
 8518 0ad6 4C455231 		.ascii	"LER1_EN\000"
 8518      5F454E00 
 8519              	.LASF44:
 8520 0ade 5F617465 		.ascii	"_atexit\000"
 8520      78697400 
 8521              	.LASF67:
 8522 0ae6 5F726565 		.ascii	"_reent\000"
 8522      6E7400
 8523              	.LASF192:
 8524 0aed 746D5F69 		.ascii	"tm_isdst\000"
 8524      73647374 
 8524      00
 8525              	.LASF280:
 8526 0af6 73645F72 		.ascii	"sd_raw_locked\000"
 8526      61775F6C 
 8526      6F636B65 
 8526      6400
 8527              	.LASF229:
 8528 0b04 5F5A4E34 		.ascii	"_ZN4FIFO5WriteEh\000"
 8528      4649464F 
 8528      35577269 
 8528      74654568 
 8528      00
 8529              	.LASF325:
 8530 0b15 54785443 		.ascii	"TxTCR_COUNTER_RESET\000"
 8530      525F434F 
 8530      554E5445 
 8530      525F5245 
 8530      53455400 
 8531              	.LASF341:
 8532 0b29 54784343 		.ascii	"TxCCR_CAP1I\000"
 8532      525F4341 
 8532      50314900 
 8533              	.LASF5:
 8534 0b35 73686F72 		.ascii	"short int\000"
 8534      7420696E 
 8534      7400
 8535              	.LASF214:
 8536 0b3f 48617344 		.ascii	"HasData\000"
 8536      61746100 
 8537              	.LASF28:
 8538 0b47 5F426967 		.ascii	"_Bigint\000"
 8538      696E7400 
 8539              	.LASF172:
 8540 0b4f 6D627374 		.ascii	"mbstowcs\000"
 8540      6F776373 
 8540      00
 8541              	.LASF268:
 8542 0b58 6C656E67 		.ascii	"length\000"
 8542      746800
 8543              	.LASF138:
 8544 0b5f 66726561 		.ascii	"fread\000"
 8544      6400
 8545              	.LASF350:
 8546 0b65 41447847 		.ascii	"ADxGDR_DONE\000"
ARM GAS  /tmp/ccX0J2UF.s 			page 180


 8546      44525F44 
 8546      4F4E4500 
 8547              	.LASF110:
 8548 0b71 5F5F7366 		.ascii	"__sf\000"
 8548      00
 8549              	.LASF164:
 8550 0b76 61746578 		.ascii	"atexit\000"
 8550      697400
 8551              	.LASF316:
 8552 0b7d 49324378 		.ascii	"I2CxCONCLR_SI\000"
 8552      434F4E43 
 8552      4C525F53 
 8552      4900
 8553              	.LASF385:
 8554 0b8b 73645F72 		.ascii	"sd_raw_send_command_r1\000"
 8554      61775F73 
 8554      656E645F 
 8554      636F6D6D 
 8554      616E645F 
 8555              	.LASF296:
 8556 0ba2 4343525F 		.ascii	"CCR_CTCRST\000"
 8556      43544352 
 8556      535400
 8557              	.LASF351:
 8558 0bad 50574D4D 		.ascii	"PWMMR0R\000"
 8558      52305200 
 8559              	.LASF97:
 8560 0bb5 5F637572 		.ascii	"_current_locale\000"
 8560      72656E74 
 8560      5F6C6F63 
 8560      616C6500 
 8561              	.LASF372:
 8562 0bc5 7261775F 		.ascii	"raw_block_address\000"
 8562      626C6F63 
 8562      6B5F6164 
 8562      64726573 
 8562      7300
 8563              	.LASF201:
 8564 0bd7 676D7469 		.ascii	"gmtime\000"
 8564      6D6500
 8565              	.LASF63:
 8566 0bde 5F646174 		.ascii	"_data\000"
 8566      6100
 8567              	.LASF19:
 8568 0be4 5F5F7763 		.ascii	"__wchb\000"
 8568      686200
 8569              	.LASF274:
 8570 0beb 5F5A3230 		.ascii	"_Z20sd_raw_read_intervaljPhttPFhS_jPvES0_\000"
 8570      73645F72 
 8570      61775F72 
 8570      6561645F 
 8570      696E7465 
 8571              	.LASF35:
 8572 0c15 5F5F746D 		.ascii	"__tm_year\000"
 8572      5F796561 
 8572      7200
 8573              	.LASF337:
ARM GAS  /tmp/ccX0J2UF.s 			page 181


 8574 0c1f 54784343 		.ascii	"TxCCR_CAP0FE\000"
 8574      525F4341 
 8574      50304645 
 8574      00
 8575              	.LASF52:
 8576 0c2c 5F66696C 		.ascii	"_file\000"
 8576      6500
 8577              	.LASF330:
 8578 0c32 54784952 		.ascii	"TxIR_MR2_FLAG\000"
 8578      5F4D5232 
 8578      5F464C41 
 8578      4700
 8579              	.LASF339:
 8580 0c40 54784343 		.ascii	"TxCCR_CAP1RE\000"
 8580      525F4341 
 8580      50315245 
 8580      00
 8581              	.LASF302:
 8582 0c4d 5649435F 		.ascii	"VIC_Channel_USB\000"
 8582      4368616E 
 8582      6E656C5F 
 8582      55534200 
 8583              	.LASF295:
 8584 0c5d 4343525F 		.ascii	"CCR_CLKEN\000"
 8584      434C4B45 
 8584      4E00
 8585              	.LASF163:
 8586 0c67 6C646976 		.ascii	"ldiv_t\000"
 8586      5F7400
 8587              	.LASF71:
 8588 0c6e 5F6C6F63 		.ascii	"_localtime_buf\000"
 8588      616C7469 
 8588      6D655F62 
 8588      756600
 8589              	.LASF346:
 8590 0c7d 54784343 		.ascii	"TxCCR_CAP3FE\000"
 8590      525F4341 
 8590      50334645 
 8590      00
 8591              	.LASF132:
 8592 0c8a 66657272 		.ascii	"ferror\000"
 8592      6F7200
 8593              	.LASF89:
 8594 0c91 5F756E75 		.ascii	"_unused\000"
 8594      73656400 
 8595              	.LASF106:
 8596 0c99 5F6E6577 		.ascii	"_new\000"
 8596      00
 8597              	.LASF104:
 8598 0c9e 5F637674 		.ascii	"_cvtlen\000"
 8598      6C656E00 
 8599              	.LASF25:
 8600 0ca6 5F6D6178 		.ascii	"_maxwds\000"
 8600      77647300 
 8601              	.LASF78:
 8602 0cae 5F6C3634 		.ascii	"_l64a_buf\000"
 8602      615F6275 
ARM GAS  /tmp/ccX0J2UF.s 			page 182


 8602      6600
 8603              	.LASF96:
 8604 0cb8 5F637572 		.ascii	"_current_category\000"
 8604      72656E74 
 8604      5F636174 
 8604      65676F72 
 8604      7900
 8605              	.LASF344:
 8606 0cca 54784343 		.ascii	"TxCCR_CAP2I\000"
 8606      525F4341 
 8606      50324900 
 8607              	.LASF218:
 8608 0cd6 57726974 		.ascii	"Write\000"
 8608      6500
 8609              	.LASF324:
 8610 0cdc 54785443 		.ascii	"TxTCR_COUNTER_ENABLE\000"
 8610      525F434F 
 8610      554E5445 
 8610      525F454E 
 8610      41424C45 
 8611              	.LASF240:
 8612 0cf1 5F5A4E35 		.ascii	"_ZN5UART08ReadCharEv\000"
 8612      55415254 
 8612      30385265 
 8612      61644368 
 8612      61724576 
 8613              	.LASF244:
 8614 0d06 57726974 		.ascii	"WriteLine\000"
 8614      654C696E 
 8614      6500
 8615              	.LASF29:
 8616 0d10 5F5F746D 		.ascii	"__tm\000"
 8616      00
 8617              	.LASF315:
 8618 0d15 49324378 		.ascii	"I2CxCONCLR_AA\000"
 8618      434F4E43 
 8618      4C525F41 
 8618      4100
 8619              	.LASF124:
 8620 0d23 5F5F7661 		.ascii	"__va_list\000"
 8620      5F6C6973 
 8620      7400
 8621              	.LASF64:
 8622 0d2d 5F6C6F63 		.ascii	"_lock\000"
 8622      6B00
 8623              	.LASF180:
 8624 0d33 73747274 		.ascii	"strtoul\000"
 8624      6F756C00 
 8625              	.LASF9:
 8626 0d3b 6C6F6E67 		.ascii	"long unsigned int\000"
 8626      20756E73 
 8626      69676E65 
 8626      6420696E 
 8626      7400
 8627              	.LASF114:
 8628 0d4d 5F6E696F 		.ascii	"_niobs\000"
 8628      627300
ARM GAS  /tmp/ccX0J2UF.s 			page 183


 8629              	.LASF17:
 8630 0d54 77696E74 		.ascii	"wint_t\000"
 8630      5F7400
 8631              	.LASF262:
 8632 0d5b 73645F72 		.ascii	"sd_raw_available\000"
 8632      61775F61 
 8632      7661696C 
 8632      61626C65 
 8632      00
 8633              	.LASF375:
 8634 0d6c 73645F72 		.ascii	"sd_raw.cpp\000"
 8634      61772E63 
 8634      707000
 8635              	.LASF383:
 8636 0d77 73645F72 		.ascii	"sd_raw_send_byte\000"
 8636      61775F73 
 8636      656E645F 
 8636      62797465 
 8636      00
 8637              	.LASF355:
 8638 0d88 4C455233 		.ascii	"LER3_EN\000"
 8638      5F454E00 
 8639              	.LASF41:
 8640 0d90 5F64736F 		.ascii	"_dso_handle\000"
 8640      5F68616E 
 8640      646C6500 
 8641              	.LASF185:
 8642 0d9c 746D5F6D 		.ascii	"tm_min\000"
 8642      696E00
 8643              	.LASF360:
 8644 0da3 50574D45 		.ascii	"PWMENA2\000"
 8644      4E413200 
 8645              	.LASF335:
 8646 0dab 54784952 		.ascii	"TxIR_CR3_FLAG\000"
 8646      5F435233 
 8646      5F464C41 
 8646      4700
 8647              	.LASF239:
 8648 0db9 52656164 		.ascii	"ReadChar\000"
 8648      43686172 
 8648      00
 8649              	.LASF362:
 8650 0dc2 50574D45 		.ascii	"PWMENA4\000"
 8650      4E413400 
 8651              	.LASF363:
 8652 0dca 50574D45 		.ascii	"PWMENA5\000"
 8652      4E413500 
 8653              	.LASF347:
 8654 0dd2 54784343 		.ascii	"TxCCR_CAP3I\000"
 8654      525F4341 
 8654      50334900 
 8655              	.LASF193:
 8656 0dde 5F5F6578 		.ascii	"__extra_1\000"
 8656      7472615F 
 8656      3100
 8657              	.LASF58:
 8658 0de8 5F636C6F 		.ascii	"_close\000"
ARM GAS  /tmp/ccX0J2UF.s 			page 184


 8658      736500
 8659              	.LASF4:
 8660 0def 756E7369 		.ascii	"unsigned char\000"
 8660      676E6564 
 8660      20636861 
 8660      7200
 8661              	.LASF384:
 8662 0dfd 73645F72 		.ascii	"sd_raw_rec_byte\000"
 8662      61775F72 
 8662      65635F62 
 8662      79746500 
 8663              	.LASF153:
 8664 0e0d 746D7066 		.ascii	"tmpfile\000"
 8664      696C6500 
 8665              	.LASF258:
 8666 0e15 73645F72 		.ascii	"sd_raw_interval_handler\000"
 8666      61775F69 
 8666      6E746572 
 8666      76616C5F 
 8666      68616E64 
 8667              	.LASF312:
 8668 0e2d 53535053 		.ascii	"SSPSR_BSY\000"
 8668      525F4253 
 8668      5900
 8669              	.LASF15:
 8670 0e37 5F4C4F43 		.ascii	"_LOCK_RECURSIVE_T\000"
 8670      4B5F5245 
 8670      43555253 
 8670      4956455F 
 8670      5400
 8671              	.LASF210:
 8672 0e49 7461696C 		.ascii	"tail\000"
 8672      00
 8673              	.LASF131:
 8674 0e4e 66656F66 		.ascii	"feof\000"
 8674      00
 8675              	.LASF186:
 8676 0e53 746D5F68 		.ascii	"tm_hour\000"
 8676      6F757200 
 8677              	.LASF182:
 8678 0e5b 77637374 		.ascii	"wcstombs\000"
 8678      6F6D6273 
 8678      00
 8679              	.LASF179:
 8680 0e64 73747274 		.ascii	"strtol\000"
 8680      6F6C00
 8681              	.LASF228:
 8682 0e6b 6669666F 		.ascii	"fifo\000"
 8682      00
 8683              	.LASF373:
 8684 0e70 7261775F 		.ascii	"raw_block_written\000"
 8684      626C6F63 
 8684      6B5F7772 
 8684      69747465 
 8684      6E00
 8685              	.LASF47:
 8686 0e82 5F5F7362 		.ascii	"__sbuf\000"
ARM GAS  /tmp/ccX0J2UF.s 			page 185


 8686      756600
 8687              	.LASF161:
 8688 0e89 6469765F 		.ascii	"div_t\000"
 8688      7400
 8689              	.LASF276:
 8690 0e8f 63616C6C 		.ascii	"callback\000"
 8690      6261636B 
 8690      00
 8691              	.LASF113:
 8692 0e98 5F676C75 		.ascii	"_glue\000"
 8692      6500
 8693              	.LASF380:
 8694 0e9e 47657449 		.ascii	"GetInstance\000"
 8694      6E737461 
 8694      6E636500 
 8695              	.LASF190:
 8696 0eaa 746D5F77 		.ascii	"tm_wday\000"
 8696      64617900 
 8697              	.LASF289:
 8698 0eb2 6373645F 		.ascii	"csd_c_size\000"
 8698      635F7369 
 8698      7A6500
 8699              	.LASF109:
 8700 0ebd 5F5F7367 		.ascii	"__sglue\000"
 8700      6C756500 
 8701              	.LASF80:
 8702 0ec5 5F676574 		.ascii	"_getdate_err\000"
 8702      64617465 
 8702      5F657272 
 8702      00
 8703              	.LASF69:
 8704 0ed2 5F737472 		.ascii	"_strtok_last\000"
 8704      746F6B5F 
 8704      6C617374 
 8704      00
 8705              	.LASF76:
 8706 0edf 5F6D6274 		.ascii	"_mbtowc_state\000"
 8706      6F77635F 
 8706      73746174 
 8706      6500
 8707              	.LASF149:
 8708 0eed 72657769 		.ascii	"rewind\000"
 8708      6E6400
 8709              	.LASF349:
 8710 0ef4 41447843 		.ascii	"ADxCR_START_NOW\000"
 8710      525F5354 
 8710      4152545F 
 8710      4E4F5700 
 8711              	.LASF284:
 8712 0f04 73645F72 		.ascii	"sd_raw_get_info\000"
 8712      61775F67 
 8712      65745F69 
 8712      6E666F00 
 8713              	.LASF40:
 8714 0f14 5F666E61 		.ascii	"_fnargs\000"
 8714      72677300 
 8715              	.LASF235:
ARM GAS  /tmp/ccX0J2UF.s 			page 186


 8716 0f1c 456E6162 		.ascii	"Enable\000"
 8716      6C6500
 8717              	.LASF1:
 8718 0f23 7369676E 		.ascii	"signed char\000"
 8718      65642063 
 8718      68617200 
 8719              	.LASF231:
 8720 0f2f 55415254 		.ascii	"UART0\000"
 8720      3000
 8721              	.LASF6:
 8722 0f35 73686F72 		.ascii	"short unsigned int\000"
 8722      7420756E 
 8722      7369676E 
 8722      65642069 
 8722      6E7400
 8723              	.LASF184:
 8724 0f48 746D5F73 		.ascii	"tm_sec\000"
 8724      656300
 8725              	.LASF232:
 8726 0f4f 44697361 		.ascii	"Disable\000"
 8726      626C6500 
 8727              	.LASF166:
 8728 0f57 61746F69 		.ascii	"atoi\000"
 8728      00
 8729              	.LASF370:
 8730 0f5c 4849445F 		.ascii	"HID_MESSAGE_ID_SYSTEM_DEBUG\000"
 8730      4D455353 
 8730      4147455F 
 8730      49445F53 
 8730      59535445 
 8731              	.LASF224:
 8732 0f78 42617564 		.ascii	"BaudRate19200\000"
 8732      52617465 
 8732      31393230 
 8732      3000
 8733              	.LASF42:
 8734 0f86 5F666E74 		.ascii	"_fntypes\000"
 8734      79706573 
 8734      00
 8735              	.LASF283:
 8736 0f8f 5F5A3131 		.ascii	"_Z11sd_raw_syncv\000"
 8736      73645F72 
 8736      61775F73 
 8736      796E6376 
 8736      00
 8737              	.LASF135:
 8738 0fa0 66676574 		.ascii	"fgetpos\000"
 8738      706F7300 
 8739              	.LASF49:
 8740 0fa8 5F73697A 		.ascii	"_size\000"
 8740      6500
 8741              	.LASF13:
 8742 0fae 646F7562 		.ascii	"double\000"
 8742      6C6500
 8743              	.LASF248:
 8744 0fb5 70726F64 		.ascii	"product\000"
 8744      75637400 
ARM GAS  /tmp/ccX0J2UF.s 			page 187


 8745              	.LASF366:
 8746 0fbd 50574D54 		.ascii	"PWMTCR_RESET\000"
 8746      43525F52 
 8746      45534554 
 8746      00
 8747              	.LASF252:
 8748 0fca 6D616E75 		.ascii	"manufacturing_month\000"
 8748      66616374 
 8748      7572696E 
 8748      675F6D6F 
 8748      6E746800 
 8749              	.LASF340:
 8750 0fde 54784343 		.ascii	"TxCCR_CAP1FE\000"
 8750      525F4341 
 8750      50314645 
 8750      00
 8751              	.LASF306:
 8752 0feb 55494952 		.ascii	"UIIR_RDA_INT\000"
 8752      5F524441 
 8752      5F494E54 
 8752      00
 8753              	.LASF60:
 8754 0ff8 5F6E6275 		.ascii	"_nbuf\000"
 8754      6600
 8755              	.LASF68:
 8756 0ffe 5F756E75 		.ascii	"_unused_rand\000"
 8756      7365645F 
 8756      72616E64 
 8756      00
 8757              	.LASF181:
 8758 100b 73797374 		.ascii	"system\000"
 8758      656D00
 8759              	.LASF281:
 8760 1012 73645F72 		.ascii	"sd_raw_sync\000"
 8760      61775F73 
 8760      796E6300 
 8761              	.LASF357:
 8762 101e 4C455235 		.ascii	"LER5_EN\000"
 8762      5F454E00 
 8763              	.LASF128:
 8764 1026 46494C45 		.ascii	"FILE\000"
 8764      00
 8765              	.LASF379:
 8766 102b 5F5A4E35 		.ascii	"_ZN5UART03ISREv\000"
 8766      55415254 
 8766      30334953 
 8766      52457600 
 8767              	.LASF266:
 8768 103b 5F5A3131 		.ascii	"_Z11sd_raw_readjPht\000"
 8768      73645F72 
 8768      61775F72 
 8768      6561646A 
 8768      50687400 
 8769              	.LASF66:
 8770 104f 5F666C61 		.ascii	"_flags2\000"
 8770      67733200 
 8771              	.LASF43:
ARM GAS  /tmp/ccX0J2UF.s 			page 188


 8772 1057 5F69735F 		.ascii	"_is_cxa\000"
 8772      63786100 
 8773              	.LASF226:
 8774 105f 42617564 		.ascii	"BaudRate57600\000"
 8774      52617465 
 8774      35373630 
 8774      3000
 8775              	.LASF117:
 8776 106d 5F736565 		.ascii	"_seed\000"
 8776      6400
 8777              	.LASF288:
 8778 1073 6373645F 		.ascii	"csd_c_size_mult\000"
 8778      635F7369 
 8778      7A655F6D 
 8778      756C7400 
 8779              	.LASF57:
 8780 1083 5F736565 		.ascii	"_seek\000"
 8780      6B00
 8781              	.LASF93:
 8782 1089 5F737464 		.ascii	"_stderr\000"
 8782      65727200 
 8783              	.LASF88:
 8784 1091 5F6E6D61 		.ascii	"_nmalloc\000"
 8784      6C6C6F63 
 8784      00
 8785              	.LASF115:
 8786 109a 5F696F62 		.ascii	"_iobs\000"
 8786      7300
 8787              	.LASF175:
 8788 10a0 71736F72 		.ascii	"qsort\000"
 8788      7400
 8789              		.ident	"GCC: (Sourcery G++ Lite 2011.03-42) 4.5.2"
ARM GAS  /tmp/ccX0J2UF.s 			page 189


DEFINED SYMBOLS
                            *ABS*:00000000 sd_raw.cpp
     /tmp/ccX0J2UF.s:56     .bss:00000000 $d
     /tmp/ccX0J2UF.s:57     .bss:00000000 _ZL9raw_block
     /tmp/ccX0J2UF.s:60     .bss:00000200 _ZL17raw_block_address
     /tmp/ccX0J2UF.s:62     .bss:00000204 _ZL17raw_block_written
     /tmp/ccX0J2UF.s:65     .rodata:00000000 $d
     /tmp/ccX0J2UF.s:81     .text._Z11sd_raw_initv:00000000 $a
     /tmp/ccX0J2UF.s:84     .text._Z11sd_raw_initv:00000000 _Z11sd_raw_initv
     /tmp/ccX0J2UF.s:388    .text._Z16sd_raw_availablev:00000000 _Z16sd_raw_availablev
     /tmp/ccX0J2UF.s:529    .text._ZL15sd_raw_rec_bytev:00000000 _ZL15sd_raw_rec_bytev
     /tmp/ccX0J2UF.s:574    .text._ZL22sd_raw_send_command_r1hj:00000000 _ZL22sd_raw_send_command_r1hj
     /tmp/ccX0J2UF.s:684    .text._Z11sd_raw_readjPht:00000000 _Z11sd_raw_readjPht
     /tmp/ccX0J2UF.s:362    .text._Z11sd_raw_initv:0000031c $d
     /tmp/ccX0J2UF.s:385    .text._Z16sd_raw_availablev:00000000 $a
     /tmp/ccX0J2UF.s:454    .text._Z16sd_raw_availablev:000000a4 $d
     /tmp/ccX0J2UF.s:461    .text._Z13sd_raw_lockedv:00000000 $a
     /tmp/ccX0J2UF.s:464    .text._Z13sd_raw_lockedv:00000000 _Z13sd_raw_lockedv
     /tmp/ccX0J2UF.s:481    .text._ZL16sd_raw_send_byteh:00000000 $a
     /tmp/ccX0J2UF.s:483    .text._ZL16sd_raw_send_byteh:00000000 _ZL16sd_raw_send_byteh
     /tmp/ccX0J2UF.s:521    .text._ZL16sd_raw_send_byteh:00000050 $d
     /tmp/ccX0J2UF.s:527    .text._ZL15sd_raw_rec_bytev:00000000 $a
     /tmp/ccX0J2UF.s:566    .text._ZL15sd_raw_rec_bytev:00000050 $d
     /tmp/ccX0J2UF.s:572    .text._ZL22sd_raw_send_command_r1hj:00000000 $a
     /tmp/ccX0J2UF.s:681    .text._Z11sd_raw_readjPht:00000000 $a
     /tmp/ccX0J2UF.s:1034   .text._Z12sd_raw_writejPKht:00000000 _Z12sd_raw_writejPKht
     /tmp/ccX0J2UF.s:909    .text._Z11sd_raw_readjPht:00000274 $d
     /tmp/ccX0J2UF.s:919    .text._Z20sd_raw_read_intervaljPhttPFhS_jPvES0_:00000000 $a
     /tmp/ccX0J2UF.s:922    .text._Z20sd_raw_read_intervaljPhttPFhS_jPvES0_:00000000 _Z20sd_raw_read_intervaljPhttPFhS_jPvES0_
     /tmp/ccX0J2UF.s:1031   .text._Z12sd_raw_writejPKht:00000000 $a
     /tmp/ccX0J2UF.s:1296   .text._Z12sd_raw_writejPKht:000002ec $d
     /tmp/ccX0J2UF.s:1306   .text._Z11sd_raw_syncv:00000000 $a
     /tmp/ccX0J2UF.s:1309   .text._Z11sd_raw_syncv:00000000 _Z11sd_raw_syncv
     /tmp/ccX0J2UF.s:1358   .text._Z11sd_raw_syncv:00000068 $d
     /tmp/ccX0J2UF.s:1365   .text._Z15sd_raw_get_infoP11sd_raw_info:00000000 $a
     /tmp/ccX0J2UF.s:1368   .text._Z15sd_raw_get_infoP11sd_raw_info:00000000 _Z15sd_raw_get_infoP11sd_raw_info
     /tmp/ccX0J2UF.s:1469   .text._Z15sd_raw_get_infoP11sd_raw_info:000000f8 $d
     /tmp/ccX0J2UF.s:1486   .text._Z15sd_raw_get_infoP11sd_raw_info:00000134 $a
     /tmp/ccX0J2UF.s:1642   .text._Z15sd_raw_get_infoP11sd_raw_info:000002f8 $d
     /tmp/ccX0J2UF.s:1654   .text._Z15sd_raw_get_infoP11sd_raw_info:00000320 $a
     /tmp/ccX0J2UF.s:1805   .text._Z15sd_raw_get_infoP11sd_raw_info:000004c8 $d
     /tmp/ccX0J2UF.s:1811   .text._Z5SDoffv:00000000 $a
     /tmp/ccX0J2UF.s:1814   .text._Z5SDoffv:00000000 _Z5SDoffv
     /tmp/ccX0J2UF.s:1839   .text._Z5SDoffv:0000002c $d
     /tmp/ccX0J2UF.s:1845   .text._Z11format_cardc:00000000 $a
     /tmp/ccX0J2UF.s:1848   .text._Z11format_cardc:00000000 _Z11format_cardc
     /tmp/ccX0J2UF.s:2108   .text._Z11format_cardc:000002ac $d
     /tmp/ccX0J2UF.s:2117   .rodata:00000068 _ZL12VIC_USB_Intr
     /tmp/ccX0J2UF.s:2122   .rodata:0000006c _ZL9CCR_CLKEN
     /tmp/ccX0J2UF.s:2127   .rodata:00000070 _ZL10CCR_CTCRST
     /tmp/ccX0J2UF.s:2132   .rodata:00000074 _ZL16CCR_CLKSRC_32KHZ
     /tmp/ccX0J2UF.s:2137   .rodata:00000078 _ZL18VIC_Channel_Timer0
     /tmp/ccX0J2UF.s:2142   .rodata:0000007c _ZL18VIC_Channel_Timer1
     /tmp/ccX0J2UF.s:2147   .rodata:00000080 _ZL17VIC_Channel_UART0
     /tmp/ccX0J2UF.s:2152   .rodata:00000084 _ZL17VIC_Channel_UART1
     /tmp/ccX0J2UF.s:2157   .rodata:00000088 _ZL15VIC_Channel_USB
     /tmp/ccX0J2UF.s:2162   .rodata:0000008c _ZL18VICVectCntl_ENABLE
ARM GAS  /tmp/ccX0J2UF.s 			page 190


     /tmp/ccX0J2UF.s:2167   .rodata:00000090 _ZL10UIER_ERBFI
     /tmp/ccX0J2UF.s:2172   .rodata:00000094 _ZL12UIIR_ID_MASK
     /tmp/ccX0J2UF.s:2177   .rodata:00000098 _ZL12UIIR_RDA_INT
     /tmp/ccX0J2UF.s:2182   .rodata:0000009c _ZL8ULSR_RDR
     /tmp/ccX0J2UF.s:2187   .rodata:000000a0 _ZL5SSEL1
     /tmp/ccX0J2UF.s:2192   .rodata:000000a4 _ZL9SSPSR_TFE
     /tmp/ccX0J2UF.s:2197   .rodata:000000a8 _ZL9SSPSR_TNF
     /tmp/ccX0J2UF.s:2202   .rodata:000000ac _ZL9SSPSR_RNE
     /tmp/ccX0J2UF.s:2207   .rodata:000000b0 _ZL9SSPSR_BSY
     /tmp/ccX0J2UF.s:2212   .rodata:000000b4 _ZL11SSPCR0_CPOL
     /tmp/ccX0J2UF.s:2217   .rodata:000000b8 _ZL11SSPCR0_CPHA
     /tmp/ccX0J2UF.s:2222   .rodata:000000bc _ZL13I2CxCONCLR_AA
     /tmp/ccX0J2UF.s:2227   .rodata:000000c0 _ZL13I2CxCONCLR_SI
     /tmp/ccX0J2UF.s:2232   .rodata:000000c4 _ZL15I2CxCONCLR_STAC
     /tmp/ccX0J2UF.s:2237   .rodata:000000c8 _ZL16I2CxCONCLR_I2ENC
     /tmp/ccX0J2UF.s:2242   .rodata:000000cc _ZL13I2CxCONSET_AA
     /tmp/ccX0J2UF.s:2247   .rodata:000000d0 _ZL13I2CxCONSET_SI
     /tmp/ccX0J2UF.s:2252   .rodata:000000d4 _ZL14I2CxCONSET_STO
     /tmp/ccX0J2UF.s:2257   .rodata:000000d8 _ZL14I2CxCONSET_STA
     /tmp/ccX0J2UF.s:2262   .rodata:000000dc _ZL15I2CxCONSET_I2EN
     /tmp/ccX0J2UF.s:2267   .rodata:000000e0 _ZL20TxTCR_COUNTER_ENABLE
     /tmp/ccX0J2UF.s:2272   .rodata:000000e4 _ZL19TxTCR_COUNTER_RESET
     /tmp/ccX0J2UF.s:2277   .rodata:000000e8 _ZL16TxMCR_INT_ON_MR0
     /tmp/ccX0J2UF.s:2282   .rodata:000000ec _ZL18TxMCR_RESET_ON_MR0
     /tmp/ccX0J2UF.s:2287   .rodata:000000f0 _ZL13TxIR_MR0_FLAG
     /tmp/ccX0J2UF.s:2292   .rodata:000000f4 _ZL13TxIR_MR1_FLAG
     /tmp/ccX0J2UF.s:2297   .rodata:000000f8 _ZL13TxIR_MR2_FLAG
     /tmp/ccX0J2UF.s:2302   .rodata:000000fc _ZL13TxIR_MR3_FLAG
     /tmp/ccX0J2UF.s:2307   .rodata:00000100 _ZL13TxIR_CR0_FLAG
     /tmp/ccX0J2UF.s:2312   .rodata:00000104 _ZL13TxIR_CR1_FLAG
     /tmp/ccX0J2UF.s:2317   .rodata:00000108 _ZL13TxIR_CR2_FLAG
     /tmp/ccX0J2UF.s:2322   .rodata:0000010c _ZL13TxIR_CR3_FLAG
     /tmp/ccX0J2UF.s:2327   .rodata:00000110 _ZL12TxCCR_CAP0RE
     /tmp/ccX0J2UF.s:2332   .rodata:00000114 _ZL12TxCCR_CAP0FE
     /tmp/ccX0J2UF.s:2337   .rodata:00000118 _ZL11TxCCR_CAP0I
     /tmp/ccX0J2UF.s:2342   .rodata:0000011c _ZL12TxCCR_CAP1RE
     /tmp/ccX0J2UF.s:2347   .rodata:00000120 _ZL12TxCCR_CAP1FE
     /tmp/ccX0J2UF.s:2352   .rodata:00000124 _ZL11TxCCR_CAP1I
     /tmp/ccX0J2UF.s:2357   .rodata:00000128 _ZL12TxCCR_CAP2RE
     /tmp/ccX0J2UF.s:2362   .rodata:0000012c _ZL12TxCCR_CAP2FE
     /tmp/ccX0J2UF.s:2367   .rodata:00000130 _ZL11TxCCR_CAP2I
     /tmp/ccX0J2UF.s:2372   .rodata:00000134 _ZL12TxCCR_CAP3RE
     /tmp/ccX0J2UF.s:2377   .rodata:00000138 _ZL12TxCCR_CAP3FE
     /tmp/ccX0J2UF.s:2382   .rodata:0000013c _ZL11TxCCR_CAP3I
     /tmp/ccX0J2UF.s:2387   .rodata:00000140 _ZL9ADxCR_PDN
     /tmp/ccX0J2UF.s:2392   .rodata:00000144 _ZL15ADxCR_START_NOW
     /tmp/ccX0J2UF.s:2397   .rodata:00000148 _ZL11ADxGDR_DONE
     /tmp/ccX0J2UF.s:2402   .rodata:0000014c _ZL7PWMMR0R
     /tmp/ccX0J2UF.s:2407   .rodata:00000150 _ZL7LER0_EN
     /tmp/ccX0J2UF.s:2412   .rodata:00000154 _ZL7LER1_EN
     /tmp/ccX0J2UF.s:2417   .rodata:00000158 _ZL7LER2_EN
     /tmp/ccX0J2UF.s:2422   .rodata:0000015c _ZL7LER3_EN
     /tmp/ccX0J2UF.s:2427   .rodata:00000160 _ZL7LER4_EN
     /tmp/ccX0J2UF.s:2432   .rodata:00000164 _ZL7LER5_EN
     /tmp/ccX0J2UF.s:2437   .rodata:00000168 _ZL7LER6_EN
     /tmp/ccX0J2UF.s:2442   .rodata:0000016c _ZL7PWMENA1
     /tmp/ccX0J2UF.s:2447   .rodata:00000170 _ZL7PWMENA2
ARM GAS  /tmp/ccX0J2UF.s 			page 191


     /tmp/ccX0J2UF.s:2452   .rodata:00000174 _ZL7PWMENA3
     /tmp/ccX0J2UF.s:2457   .rodata:00000178 _ZL7PWMENA4
     /tmp/ccX0J2UF.s:2462   .rodata:0000017c _ZL7PWMENA5
     /tmp/ccX0J2UF.s:2467   .rodata:00000180 _ZL7PWMENA6
     /tmp/ccX0J2UF.s:2472   .rodata:00000184 _ZL21PWMTCR_COUNTER_ENABLE
     /tmp/ccX0J2UF.s:2477   .rodata:00000188 _ZL12PWMTCR_RESET
     /tmp/ccX0J2UF.s:2482   .rodata:0000018c _ZL17PWMTCR_PWM_ENABLE
     /tmp/ccX0J2UF.s:2487   .rodata:00000190 _ZL10WDMOD_WDEN
     /tmp/ccX0J2UF.s:2492   .rodata:00000194 _ZL13WDMOD_WDRESET
     /tmp/ccX0J2UF.s:2497   .rodata:00000198 _ZL27HID_MESSAGE_ID_SYSTEM_DEBUG
                     .debug_frame:00000010 $d

UNDEFINED SYMBOLS
_ZN5UART011GetInstanceEv
_ZN5UART09WriteLineEPKcz
memcpy
memset
