ARM GAS  /tmp/ccX0J2UF.s 			page 1


   1              		.cpu arm7tdmi
   2              		.fpu softvfp
   3              		.eabi_attribute 20, 1
   4              		.eabi_attribute 21, 1
   5              		.eabi_attribute 23, 3
   6              		.eabi_attribute 24, 1
   7              		.eabi_attribute 25, 1
   8              		.eabi_attribute 26, 1
   9              		.eabi_attribute 30, 6
  10              		.eabi_attribute 18, 4
  11              		.file	"sd_raw.cpp"
  12              	@ GNU C++ (Sourcery G++ Lite 2011.03-42) version 4.5.2 (arm-none-eabi)
  13              	@	compiled by GNU C version 4.3.2, GMP version 4.3.2, MPFR version 2.4.2, MPC version 0.8.1
  14              	@ GGC heuristics: --param ggc-min-expand=100 --param ggc-min-heapsize=131072
  15              	@ options passed:  -I . -I../arm/arm7lib -iprefix
  16              	@ /home/elijah/CodeSourcery/Sourcery_G++_Lite/bin/../lib/gcc/arm-none-eabi/4.5.2/
  17              	@ -isysroot
  18              	@ /home/elijah/CodeSourcery/Sourcery_G++_Lite/bin/../arm-none-eabi -MD
  19              	@ sd_raw.d -MF .dep/sd_raw.o.d -MP -MQ sd_raw.o -D__USES_INITFINI__
  20              	@ -D__CS_SOURCERYGXX_MAJ__=2011 -D__CS_SOURCERYGXX_MIN__=3
  21              	@ -D__CS_SOURCERYGXX_REV__=42 sd_raw.cpp -mcpu=arm7tdmi -auxbase-strip
  22              	@ sd_raw.o -gdwarf-2 -O0 -Wall -fno-rtti -fno-exceptions
  23              	@ -fomit-frame-pointer -ffunction-sections -fverbose-asm
  24              	@ options enabled:  -falign-loops -fargument-alias -fauto-inc-dec
  25              	@ -fbranch-count-reg -fcommon -fdelete-null-pointer-checks -fdwarf2-cfi-asm
  26              	@ -fearly-inlining -feliminate-unused-debug-types -ffunction-cse
  27              	@ -ffunction-sections -fgcse-lm -fident -finline-functions-called-once
  28              	@ -fira-share-save-slots -fira-share-spill-slots -fivopts
  29              	@ -fkeep-static-consts -fleading-underscore -fmath-errno
  30              	@ -fmerge-debug-strings -fmove-loop-invariants -fomit-frame-pointer
  31              	@ -fpeephole -fpromote-loop-indices -freg-struct-return
  32              	@ -fsched-critical-path-heuristic -fsched-dep-count-heuristic
  33              	@ -fsched-group-heuristic -fsched-interblock -fsched-last-insn-heuristic
  34              	@ -fsched-rank-heuristic -fsched-spec -fsched-spec-insn-heuristic
  35              	@ -fsched-stalled-insns-dep -fshow-column -fsigned-zeros
  36              	@ -fsplit-ivs-in-unroller -fstrict-volatile-bitfields -ftrapping-math
  37              	@ -ftree-cselim -ftree-forwprop -ftree-loop-im -ftree-loop-ivcanon
  38              	@ -ftree-loop-optimize -ftree-parallelize-loops= -ftree-phiprop -ftree-pta
  39              	@ -ftree-reassoc -ftree-scev-cprop -ftree-slp-vectorize
  40              	@ -ftree-vect-loop-version -funit-at-a-time -fverbose-asm
  41              	@ -fzero-initialized-in-bss -mlittle-endian -msched-prolog
  42              	@ -mthumb-interwork
  43              	
  50 0000 BF060000 		.text
  50      02009203 
  50      00000201 
  50      FB0E0D00 
  50      01010101 
  51              	.Ltext0:
  52              	@ Compiler executable checksum: cfdaeede3ac8e9b2b599068efabc405c
  53              	
ARM GAS  /tmp/ccX0J2UF.s 			page 2


  54              		.cfi_sections	.debug_frame
  55              		.bss
  56              		.align	2
  57              	_ZL9raw_block:
  58 0000 00000000 		.space	512
  58      00000000 
  58      00000000 
  58      00000000 
  58      00000000 
  59              		.align	2
  60              	_ZL17raw_block_address:
  61 0200 00000000 		.space	4
  62              	_ZL17raw_block_written:
  63 0204 00       		.space	1
  64 0205 000000   		.section	.rodata
  65              		.align	2
  66              	.LC0:
  67 0000 53442052 		.ascii	"SD RAW NOT AVAILABLE\012\015\000"
  67      4157204E 
  67      4F542041 
  67      5641494C 
  67      41424C45 
  68 0017 00       		.align	2
  69              	.LC1:
  70 0018 0A0D7265 		.ascii	"\012\015response: %d\012\015\000"
  70      73706F6E 
  70      73653A20 
  70      25640A0D 
  70      00
  71 0029 000000   		.align	2
  72              	.LC2:
  73 002c 69203D20 		.ascii	"i = 0x7fff\012\015\000"
  73      30783766 
  73      66660A0D 
  73      00
  74 0039 000000   		.align	2
  75              	.LC3:
  76 003c 424C4F43 		.ascii	"BLOCK SIZE SET ERR \012\015\000"
  76      4B205349 
  76      5A452053 
  76      45542045 
  76      5252200A 
  77 0052 0000     		.align	2
  78              	.LC4:
  79 0054 73645F72 		.ascii	"sd_raw_read borks\012\015\000"
  79      61775F72 
  79      65616420 
  79      626F726B 
  79      730A0D00 
  80              		.section	.text._Z11sd_raw_initv,"ax",%progbits
  81              		.align	2
  82              		.global	_Z11sd_raw_initv
  83              		.type	_Z11sd_raw_initv, %function
  84              	_Z11sd_raw_initv:
  85              	.LFB109:
  86              		.file 1 "sd_raw.cpp"
   1:sd_raw.cpp    **** 
ARM GAS  /tmp/ccX0J2UF.s 			page 3


   2:sd_raw.cpp    **** /* This program is free software; you can redistribute it and/or modify
   3:sd_raw.cpp    ****  * it under the terms of the GNU General Public License version 2 as
   4:sd_raw.cpp    ****  * published by the Free Software Foundation.
   5:sd_raw.cpp    ****  */
   6:sd_raw.cpp    **** 
   7:sd_raw.cpp    **** #include "main.h"
   8:sd_raw.cpp    **** 
   9:sd_raw.cpp    **** /*
  10:sd_raw.cpp    **** #include <string.h>
  11:sd_raw.cpp    **** #include "sd_raw.h"
  12:sd_raw.cpp    **** #include "LPC214x.h"
  13:sd_raw.cpp    **** */
  14:sd_raw.cpp    **** 
  15:sd_raw.cpp    **** /**
  16:sd_raw.cpp    ****  * \addtogroup sd_raw MMC/SD card raw access
  17:sd_raw.cpp    ****  *
  18:sd_raw.cpp    ****  * This module implements read and write access to MMC and
  19:sd_raw.cpp    ****  * SD cards. It serves as a low-level driver for the higher
  20:sd_raw.cpp    ****  * level modules such as partition and file system access.
  21:sd_raw.cpp    ****  *
  22:sd_raw.cpp    ****  * @{
  23:sd_raw.cpp    ****  */
  24:sd_raw.cpp    **** /**
  25:sd_raw.cpp    ****  * \file
  26:sd_raw.cpp    ****  * MMC/SD raw access implementation.
  27:sd_raw.cpp    ****  *
  28:sd_raw.cpp    ****  * \author Roland Riegel
  29:sd_raw.cpp    ****  */
  30:sd_raw.cpp    **** 
  31:sd_raw.cpp    **** /**
  32:sd_raw.cpp    ****  * \addtogroup sd_raw_config MMC/SD configuration
  33:sd_raw.cpp    ****  * Preprocessor defines to configure the MMC/SD support.
  34:sd_raw.cpp    ****  */
  35:sd_raw.cpp    **** 
  36:sd_raw.cpp    **** /**
  37:sd_raw.cpp    ****  * @}
  38:sd_raw.cpp    ****  */
  39:sd_raw.cpp    **** 
  40:sd_raw.cpp    **** /* commands available in SPI mode */
  41:sd_raw.cpp    **** 
  42:sd_raw.cpp    **** /* CMD0: response R1 */
  43:sd_raw.cpp    **** #define CMD_GO_IDLE_STATE 0x00
  44:sd_raw.cpp    **** /* CMD1: response R1 */
  45:sd_raw.cpp    **** #define CMD_SEND_OP_COND 0x01
  46:sd_raw.cpp    **** /* CMD9: response R1 */
  47:sd_raw.cpp    **** #define CMD_SEND_CSD 0x09
  48:sd_raw.cpp    **** /* CMD10: response R1 */
  49:sd_raw.cpp    **** #define CMD_SEND_CID 0x0a
  50:sd_raw.cpp    **** /* CMD12: response R1 */
  51:sd_raw.cpp    **** #define CMD_STOP_TRANSMISSION 0x0c
  52:sd_raw.cpp    **** /* CMD13: response R2 */
  53:sd_raw.cpp    **** #define CMD_SEND_STATUS 0x0d
  54:sd_raw.cpp    **** /* CMD16: arg0[31:0]: block length, response R1 */
  55:sd_raw.cpp    **** #define CMD_SET_BLOCKLEN 0x10
  56:sd_raw.cpp    **** /* CMD17: arg0[31:0]: data address, response R1 */
  57:sd_raw.cpp    **** #define CMD_READ_SINGLE_BLOCK 0x11
  58:sd_raw.cpp    **** /* CMD18: arg0[31:0]: data address, response R1 */
ARM GAS  /tmp/ccX0J2UF.s 			page 4


  59:sd_raw.cpp    **** #define CMD_READ_MULTIPLE_BLOCK 0x12
  60:sd_raw.cpp    **** /* CMD24: arg0[31:0]: data address, response R1 */
  61:sd_raw.cpp    **** #define CMD_WRITE_SINGLE_BLOCK 0x18
  62:sd_raw.cpp    **** /* CMD25: arg0[31:0]: data address, response R1 */
  63:sd_raw.cpp    **** #define CMD_WRITE_MULTIPLE_BLOCK 0x19
  64:sd_raw.cpp    **** /* CMD27: response R1 */
  65:sd_raw.cpp    **** #define CMD_PROGRAM_CSD 0x1b
  66:sd_raw.cpp    **** /* CMD28: arg0[31:0]: data address, response R1b */
  67:sd_raw.cpp    **** #define CMD_SET_WRITE_PROT 0x1c
  68:sd_raw.cpp    **** /* CMD29: arg0[31:0]: data address, response R1b */
  69:sd_raw.cpp    **** #define CMD_CLR_WRITE_PROT 0x1d
  70:sd_raw.cpp    **** /* CMD30: arg0[31:0]: write protect data address, response R1 */
  71:sd_raw.cpp    **** #define CMD_SEND_WRITE_PROT 0x1e
  72:sd_raw.cpp    **** /* CMD32: arg0[31:0]: data address, response R1 */
  73:sd_raw.cpp    **** #define CMD_TAG_SECTOR_START 0x20
  74:sd_raw.cpp    **** /* CMD33: arg0[31:0]: data address, response R1 */
  75:sd_raw.cpp    **** #define CMD_TAG_SECTOR_END 0x21
  76:sd_raw.cpp    **** /* CMD34: arg0[31:0]: data address, response R1 */
  77:sd_raw.cpp    **** #define CMD_UNTAG_SECTOR 0x22
  78:sd_raw.cpp    **** /* CMD35: arg0[31:0]: data address, response R1 */
  79:sd_raw.cpp    **** #define CMD_TAG_ERASE_GROUP_START 0x23
  80:sd_raw.cpp    **** /* CMD36: arg0[31:0]: data address, response R1 */
  81:sd_raw.cpp    **** #define CMD_TAG_ERASE_GROUP_END 0x24
  82:sd_raw.cpp    **** /* CMD37: arg0[31:0]: data address, response R1 */
  83:sd_raw.cpp    **** #define CMD_UNTAG_ERASE_GROUP 0x25
  84:sd_raw.cpp    **** /* CMD38: arg0[31:0]: stuff bits, response R1b */
  85:sd_raw.cpp    **** #define CMD_ERASE 0x26
  86:sd_raw.cpp    **** /* CMD42: arg0[31:0]: stuff bits, response R1b */
  87:sd_raw.cpp    **** #define CMD_LOCK_UNLOCK 0x2a
  88:sd_raw.cpp    **** /* CMD58: response R3 */
  89:sd_raw.cpp    **** #define CMD_READ_OCR 0x3a
  90:sd_raw.cpp    **** /* CMD59: arg0[31:1]: stuff bits, arg0[0:0]: crc option, response R1 */
  91:sd_raw.cpp    **** #define CMD_CRC_ON_OFF 0x3b
  92:sd_raw.cpp    **** 
  93:sd_raw.cpp    **** /* command responses */
  94:sd_raw.cpp    **** /* R1: size 1 byte */
  95:sd_raw.cpp    **** #define R1_IDLE_STATE 0
  96:sd_raw.cpp    **** #define R1_ERASE_RESET 1
  97:sd_raw.cpp    **** #define R1_ILL_COMMAND 2
  98:sd_raw.cpp    **** #define R1_COM_CRC_ERR 3
  99:sd_raw.cpp    **** #define R1_ERASE_SEQ_ERR 4
 100:sd_raw.cpp    **** #define R1_ADDR_ERR 5
 101:sd_raw.cpp    **** #define R1_PARAM_ERR 6
 102:sd_raw.cpp    **** /* R1b: equals R1, additional busy bytes */
 103:sd_raw.cpp    **** /* R2: size 2 bytes */
 104:sd_raw.cpp    **** #define R2_CARD_LOCKED 0
 105:sd_raw.cpp    **** #define R2_WP_ERASE_SKIP 1
 106:sd_raw.cpp    **** #define R2_ERR 2
 107:sd_raw.cpp    **** #define R2_CARD_ERR 3
 108:sd_raw.cpp    **** #define R2_CARD_ECC_FAIL 4
 109:sd_raw.cpp    **** #define R2_WP_VIOLATION 5
 110:sd_raw.cpp    **** #define R2_INVAL_ERASE 6
 111:sd_raw.cpp    **** #define R2_OUT_OF_RANGE 7
 112:sd_raw.cpp    **** #define R2_CSD_OVERWRITE 7
 113:sd_raw.cpp    **** #define R2_IDLE_STATE (R1_IDLE_STATE + 8)
 114:sd_raw.cpp    **** #define R2_ERASE_RESET (R1_ERASE_RESET + 8)
 115:sd_raw.cpp    **** #define R2_ILL_COMMAND (R1_ILL_COMMAND + 8)
ARM GAS  /tmp/ccX0J2UF.s 			page 5


 116:sd_raw.cpp    **** #define R2_COM_CRC_ERR (R1_COM_CRC_ERR + 8)
 117:sd_raw.cpp    **** #define R2_ERASE_SEQ_ERR (R1_ERASE_SEQ_ERR + 8)
 118:sd_raw.cpp    **** #define R2_ADDR_ERR (R1_ADDR_ERR + 8)
 119:sd_raw.cpp    **** #define R2_PARAM_ERR (R1_PARAM_ERR + 8)
 120:sd_raw.cpp    **** /* R3: size 5 bytes */
 121:sd_raw.cpp    **** #define R3_OCR_MASK (0xffffffffUL)
 122:sd_raw.cpp    **** #define R3_IDLE_STATE (R1_IDLE_STATE + 32)
 123:sd_raw.cpp    **** #define R3_ERASE_RESET (R1_ERASE_RESET + 32)
 124:sd_raw.cpp    **** #define R3_ILL_COMMAND (R1_ILL_COMMAND + 32)
 125:sd_raw.cpp    **** #define R3_COM_CRC_ERR (R1_COM_CRC_ERR + 32)
 126:sd_raw.cpp    **** #define R3_ERASE_SEQ_ERR (R1_ERASE_SEQ_ERR + 32)
 127:sd_raw.cpp    **** #define R3_ADDR_ERR (R1_ADDR_ERR + 32)
 128:sd_raw.cpp    **** #define R3_PARAM_ERR (R1_PARAM_ERR + 32)
 129:sd_raw.cpp    **** /* Data Response: size 1 byte */
 130:sd_raw.cpp    **** #define DR_STATUS_MASK 0x0e
 131:sd_raw.cpp    **** #define DR_STATUS_ACCEPTED 0x05
 132:sd_raw.cpp    **** #define DR_STATUS_CRC_ERR 0x0a
 133:sd_raw.cpp    **** #define DR_STATUS_WRITE_ERR 0x0c
 134:sd_raw.cpp    **** 
 135:sd_raw.cpp    **** #if !SD_RAW_SAVE_RAM
 136:sd_raw.cpp    ****     
 137:sd_raw.cpp    ****     /* static data buffer for acceleration */
 138:sd_raw.cpp    ****     static unsigned char raw_block[512];
 139:sd_raw.cpp    ****     /* offset where the data within raw_block lies on the card */
 140:sd_raw.cpp    ****     static unsigned int raw_block_address;
 141:sd_raw.cpp    ****     #if SD_RAW_WRITE_BUFFERING
 142:sd_raw.cpp    ****     /* flag to remember if raw_block was written to the card */
 143:sd_raw.cpp    ****     static unsigned char raw_block_written;
 144:sd_raw.cpp    **** #endif
 145:sd_raw.cpp    **** 
 146:sd_raw.cpp    **** #endif
 147:sd_raw.cpp    **** 
 148:sd_raw.cpp    **** /* private helper functions */
 149:sd_raw.cpp    **** static void sd_raw_send_byte(unsigned char b);
 150:sd_raw.cpp    **** static unsigned char sd_raw_rec_byte(void);
 151:sd_raw.cpp    **** static unsigned char sd_raw_send_command_r1(unsigned char command, unsigned int arg);
 152:sd_raw.cpp    **** //static unsigned short sd_raw_send_command_r2(unsigned char command, unsigned int arg);
 153:sd_raw.cpp    **** 
 154:sd_raw.cpp    **** /**
 155:sd_raw.cpp    ****  * \ingroup sd_raw
 156:sd_raw.cpp    ****  * Initializes memory card communication.
 157:sd_raw.cpp    ****  *
 158:sd_raw.cpp    ****  * \returns 0 on failure, 1 on success.
 159:sd_raw.cpp    ****  */
 160:sd_raw.cpp    **** unsigned char sd_raw_init()
 161:sd_raw.cpp    **** {
  87              		.loc 1 161 0
  88              		.cfi_startproc
  89              		@ Function supports interworking.
  90              		@ args = 0, pretend = 0, frame = 16
  91              		@ frame_needed = 0, uses_anonymous_args = 0
  92 0000 04E02DE5 		str	lr, [sp, #-4]!	@,
  93              	.LCFI0:
  94              		.cfi_def_cfa_offset 4
  95 0004 14D04DE2 		sub	sp, sp, #20	@,,
  96              	.LCFI1:
  97              		.cfi_def_cfa_offset 24
ARM GAS  /tmp/ccX0J2UF.s 			page 6


  98              	.LBB2:
 162:sd_raw.cpp    **** 	UART0 * uart = UART0::GetInstance();
  99              		.loc 1 162 0
 100              		.cfi_offset 14, -4
 101 0008 FEFFFFEB 		bl	_ZN5UART011GetInstanceEv	@
 102 000c 08008DE5 		str	r0, [sp, #8]	@, uart
 163:sd_raw.cpp    **** 
 164:sd_raw.cpp    ****     /* enable inputs for reading card status */
 165:sd_raw.cpp    ****     /*    configure_pin_available();*/
 166:sd_raw.cpp    ****     /*    configure_pin_locked();*/
 167:sd_raw.cpp    **** 
 168:sd_raw.cpp    ****     /* enable outputs for MOSI, SCK, SS, input for MISO */
 169:sd_raw.cpp    ****     configure_pin_ss();
 103              		.loc 1 169 0
 104 0010 04339FE5 		ldr	r3, .L16	@ D.10836,
 105 0014 00239FE5 		ldr	r2, .L16	@ D.10837,
 106 0018 002092E5 		ldr	r2, [r2, #0]	@ D.10838,* D.10837
 107 001c 012682E3 		orr	r2, r2, #1048576	@ D.10839, D.10838,
 108 0020 002083E5 		str	r2, [r3, #0]	@ D.10839,* D.10836
 170:sd_raw.cpp    ****     configure_pin_mosi();
 109              		.loc 1 170 0
 110 0024 F4329FE5 		ldr	r3, .L16+4	@ D.10840,
 111 0028 F0229FE5 		ldr	r2, .L16+4	@ D.10841,
 112 002c 002092E5 		ldr	r2, [r2, #0]	@ D.10842,* D.10841
 113 0030 802082E3 		orr	r2, r2, #128	@ D.10843, D.10842,
 114 0034 002083E5 		str	r2, [r3, #0]	@ D.10843,* D.10840
 171:sd_raw.cpp    ****     configure_pin_miso();
 115              		.loc 1 171 0
 116 0038 E0329FE5 		ldr	r3, .L16+4	@ D.10844,
 117 003c DC229FE5 		ldr	r2, .L16+4	@ D.10845,
 118 0040 002092E5 		ldr	r2, [r2, #0]	@ D.10846,* D.10845
 119 0044 202082E3 		orr	r2, r2, #32	@ D.10847, D.10846,
 120 0048 002083E5 		str	r2, [r3, #0]	@ D.10847,* D.10844
 172:sd_raw.cpp    ****     configure_pin_sck();
 121              		.loc 1 172 0
 122 004c CC329FE5 		ldr	r3, .L16+4	@ D.10848,
 123 0050 C8229FE5 		ldr	r2, .L16+4	@ D.10849,
 124 0054 002092E5 		ldr	r2, [r2, #0]	@ D.10850,* D.10849
 125 0058 082082E3 		orr	r2, r2, #8	@ D.10851, D.10850,
 126 005c 002083E5 		str	r2, [r3, #0]	@ D.10851,* D.10848
 173:sd_raw.cpp    **** 
 174:sd_raw.cpp    ****     unselect_card();
 127              		.loc 1 174 0
 128 0060 BC329FE5 		ldr	r3, .L16+8	@ D.10852,
 129 0064 B8229FE5 		ldr	r2, .L16+8	@ D.10853,
 130 0068 002092E5 		ldr	r2, [r2, #0]	@ D.10854,* D.10853
 131 006c 012682E3 		orr	r2, r2, #1048576	@ D.10855, D.10854,
 132 0070 002083E5 		str	r2, [r3, #0]	@ D.10855,* D.10852
 175:sd_raw.cpp    **** 
 176:sd_raw.cpp    ****     /* initialize SPI with lowest frequency; max. 400kHz during identification mode of card */
 177:sd_raw.cpp    ****     //S0SPCCR = 150;  /* Set frequency to 400kHz */
 178:sd_raw.cpp    ****     //S0SPCR = 0x38;
 179:sd_raw.cpp    ****     SSPCR0 = 0x0E07;  // 8 bits/transfer, SPI mode, CPOL CPHA, SCR,
 133              		.loc 1 179 0
 134 0074 AC329FE5 		ldr	r3, .L16+12	@ D.10856,
 135 0078 AC229FE5 		ldr	r2, .L16+16	@ tmp200,
 136 007c B020C3E1 		strh	r2, [r3, #0]	@ movhi	@ tmp199,* D.10856
ARM GAS  /tmp/ccX0J2UF.s 			page 7


 180:sd_raw.cpp    ****     SSPCPSR = 0x04;
 137              		.loc 1 180 0
 138 0080 A8329FE5 		ldr	r3, .L16+20	@ D.10857,
 139 0084 0420A0E3 		mov	r2, #4	@ tmp201,
 140 0088 0020C3E5 		strb	r2, [r3, #0]	@ tmp202,* D.10857
 181:sd_raw.cpp    ****     SSPCR1 = 0x02;
 141              		.loc 1 181 0
 142 008c A0329FE5 		ldr	r3, .L16+24	@ D.10858,
 143 0090 0220A0E3 		mov	r2, #2	@ tmp203,
 144 0094 0020C3E5 		strb	r2, [r3, #0]	@ tmp204,* D.10858
 182:sd_raw.cpp    **** 
 183:sd_raw.cpp    **** 
 184:sd_raw.cpp    **** 
 185:sd_raw.cpp    ****     /* initialization procedure */
 186:sd_raw.cpp    **** 
 187:sd_raw.cpp    ****     if(!sd_raw_available())
 145              		.loc 1 187 0
 146 0098 FEFFFFEB 		bl	_Z16sd_raw_availablev	@
 147 009c 0030A0E1 		mov	r3, r0	@ tmp205,
 148 00a0 000053E3 		cmp	r3, #0	@ D.10860,
 149 00a4 0030A013 		movne	r3, #0	@, tmp207
 150 00a8 0130A003 		moveq	r3, #1	@, tmp207
 151 00ac FF3003E2 		and	r3, r3, #255	@ retval.29, tmp206,
 152 00b0 000053E3 		cmp	r3, #0	@ retval.29,
 153 00b4 0400000A 		beq	.L2	@,
 188:sd_raw.cpp    ****     {
 189:sd_raw.cpp    ****         uart->WriteLine("SD RAW NOT AVAILABLE\n\r");
 154              		.loc 1 189 0
 155 00b8 08009DE5 		ldr	r0, [sp, #8]	@, uart
 156 00bc 74129FE5 		ldr	r1, .L16+28	@,
 157 00c0 FEFFFFEB 		bl	_ZN5UART09WriteLineEPKcz	@
 190:sd_raw.cpp    ****         return 0;
 158              		.loc 1 190 0
 159 00c4 0030A0E3 		mov	r3, #0	@ D.10863,
 160 00c8 8F0000EA 		b	.L3	@
 161              	.L2:
 191:sd_raw.cpp    ****     }
 192:sd_raw.cpp    ****     configure_pin_ss();
 162              		.loc 1 192 0
 163 00cc 48329FE5 		ldr	r3, .L16	@ D.10864,
 164 00d0 44229FE5 		ldr	r2, .L16	@ D.10865,
 165 00d4 002092E5 		ldr	r2, [r2, #0]	@ D.10866,* D.10865
 166 00d8 012682E3 		orr	r2, r2, #1048576	@ D.10867, D.10866,
 167 00dc 002083E5 		str	r2, [r3, #0]	@ D.10867,* D.10864
 193:sd_raw.cpp    ****     unselect_card();
 168              		.loc 1 193 0
 169 00e0 3C329FE5 		ldr	r3, .L16+8	@ D.10868,
 170 00e4 38229FE5 		ldr	r2, .L16+8	@ D.10869,
 171 00e8 002092E5 		ldr	r2, [r2, #0]	@ D.10870,* D.10869
 172 00ec 012682E3 		orr	r2, r2, #1048576	@ D.10871, D.10870,
 173 00f0 002083E5 		str	r2, [r3, #0]	@ D.10871,* D.10868
 194:sd_raw.cpp    **** 
 195:sd_raw.cpp    ****     unsigned short i;
 196:sd_raw.cpp    ****     /* card needs 74 cycles minimum to start up */
 197:sd_raw.cpp    ****     for(i = 0; i < 10; ++i)
 174              		.loc 1 197 0
 175 00f4 0030A0E3 		mov	r3, #0	@ tmp209,
ARM GAS  /tmp/ccX0J2UF.s 			page 8


 176 00f8 BE30CDE1 		strh	r3, [sp, #14]	@ movhi	@ tmp208, i
 177 00fc 030000EA 		b	.L4	@
 178              	.L5:
 198:sd_raw.cpp    ****     {
 199:sd_raw.cpp    ****         /* wait 8 clock cycles */
 200:sd_raw.cpp    ****         sd_raw_rec_byte();
 179              		.loc 1 200 0 discriminator 2
 180 0100 FEFFFFEB 		bl	_ZL15sd_raw_rec_bytev	@
 197:sd_raw.cpp    ****     for(i = 0; i < 10; ++i)
 181              		.loc 1 197 0 discriminator 2
 182 0104 BE30DDE1 		ldrh	r3, [sp, #14]	@ movhi	@ tmp210, i
 183 0108 013083E2 		add	r3, r3, #1	@ tmp211, tmp210,
 184 010c BE30CDE1 		strh	r3, [sp, #14]	@ movhi	@ tmp211, i
 185              	.L4:
 197:sd_raw.cpp    ****     for(i = 0; i < 10; ++i)
 186              		.loc 1 197 0 is_stmt 0 discriminator 1
 187 0110 BE30DDE1 		ldrh	r3, [sp, #14]	@ tmp213, i
 188 0114 090053E3 		cmp	r3, #9	@ tmp213,
 189 0118 0030A083 		movhi	r3, #0	@, tmp214
 190 011c 0130A093 		movls	r3, #1	@, tmp214
 191 0120 FF3003E2 		and	r3, r3, #255	@ D.10875, tmp212,
 192 0124 000053E3 		cmp	r3, #0	@ D.10875,
 193 0128 F4FFFF1A 		bne	.L5	@,
 201:sd_raw.cpp    ****     }
 202:sd_raw.cpp    **** 
 203:sd_raw.cpp    ****     /* address card */
 204:sd_raw.cpp    ****     select_card();
 194              		.loc 1 204 0 is_stmt 1
 195 012c 08329FE5 		ldr	r3, .L16+32	@ D.10877,
 196 0130 04229FE5 		ldr	r2, .L16+32	@ D.10878,
 197 0134 002092E5 		ldr	r2, [r2, #0]	@ D.10879,* D.10878
 198 0138 012682E3 		orr	r2, r2, #1048576	@ D.10880, D.10879,
 199 013c 002083E5 		str	r2, [r3, #0]	@ D.10880,* D.10877
 205:sd_raw.cpp    **** 
 206:sd_raw.cpp    ****     /* reset card */
 207:sd_raw.cpp    ****     unsigned char response;
 208:sd_raw.cpp    ****     for(i = 0; ; ++i)
 200              		.loc 1 208 0
 201 0140 0030A0E3 		mov	r3, #0	@ tmp216,
 202 0144 BE30CDE1 		strh	r3, [sp, #14]	@ movhi	@ tmp215, i
 203              	.L9:
 209:sd_raw.cpp    ****     {
 210:sd_raw.cpp    ****         response = sd_raw_send_command_r1(CMD_GO_IDLE_STATE, 0);
 204              		.loc 1 210 0
 205 0148 0000A0E3 		mov	r0, #0	@,
 206 014c 0010A0E3 		mov	r1, #0	@,
 207 0150 FEFFFFEB 		bl	_ZL22sd_raw_send_command_r1hj	@
 208 0154 0030A0E1 		mov	r3, r0	@ tmp217,
 209 0158 0730CDE5 		strb	r3, [sp, #7]	@ tmp218, response
 211:sd_raw.cpp    ****         if(response == (1 << R1_IDLE_STATE))
 210              		.loc 1 211 0
 211 015c 0730DDE5 		ldrb	r3, [sp, #7]	@ zero_extendqisi2	@ tmp219, response
 212 0160 010053E3 		cmp	r3, #1	@ tmp219,
 213 0164 0200001A 		bne	.L6	@,
 212:sd_raw.cpp    ****             break;
 213:sd_raw.cpp    **** 
 214:sd_raw.cpp    ****         if(i == 0x1ff)
ARM GAS  /tmp/ccX0J2UF.s 			page 9


 215:sd_raw.cpp    ****         {
 216:sd_raw.cpp    ****         	uart->WriteLine("\n\rresponse: %d\n\r",response);
 217:sd_raw.cpp    ****             unselect_card();
 218:sd_raw.cpp    ****             return 0;
 219:sd_raw.cpp    ****         }
 220:sd_raw.cpp    ****     }
 221:sd_raw.cpp    **** 
 222:sd_raw.cpp    ****     /* wait for card to get ready */
 223:sd_raw.cpp    ****     for(i = 0; ; ++i)
 214              		.loc 1 223 0
 215 0168 0030A0E3 		mov	r3, #0	@ tmp221,
 216 016c BE30CDE1 		strh	r3, [sp, #14]	@ movhi	@ tmp220, i
 217 0170 130000EA 		b	.L7	@
 218              	.L6:
 214:sd_raw.cpp    ****         if(i == 0x1ff)
 219              		.loc 1 214 0
 220 0174 BE20DDE1 		ldrh	r2, [sp, #14]	@ tmp222, i
 221 0178 C0319FE5 		ldr	r3, .L16+36	@ tmp223,
 222 017c 030052E1 		cmp	r2, r3	@ tmp222, tmp223
 223 0180 0B00001A 		bne	.L8	@,
 216:sd_raw.cpp    ****         	uart->WriteLine("\n\rresponse: %d\n\r",response);
 224              		.loc 1 216 0
 225 0184 0730DDE5 		ldrb	r3, [sp, #7]	@ zero_extendqisi2	@ D.10888, response
 226 0188 08009DE5 		ldr	r0, [sp, #8]	@, uart
 227 018c B0119FE5 		ldr	r1, .L16+40	@,
 228 0190 0320A0E1 		mov	r2, r3	@, D.10888
 229 0194 FEFFFFEB 		bl	_ZN5UART09WriteLineEPKcz	@
 217:sd_raw.cpp    ****             unselect_card();
 230              		.loc 1 217 0
 231 0198 84319FE5 		ldr	r3, .L16+8	@ D.10889,
 232 019c 80219FE5 		ldr	r2, .L16+8	@ D.10890,
 233 01a0 002092E5 		ldr	r2, [r2, #0]	@ D.10891,* D.10890
 234 01a4 012682E3 		orr	r2, r2, #1048576	@ D.10892, D.10891,
 235 01a8 002083E5 		str	r2, [r3, #0]	@ D.10892,* D.10889
 218:sd_raw.cpp    ****             return 0;
 236              		.loc 1 218 0
 237 01ac 0030A0E3 		mov	r3, #0	@ D.10863,
 238 01b0 550000EA 		b	.L3	@
 239              	.L8:
 208:sd_raw.cpp    ****     for(i = 0; ; ++i)
 240              		.loc 1 208 0
 241 01b4 BE30DDE1 		ldrh	r3, [sp, #14]	@ movhi	@ tmp224, i
 242 01b8 013083E2 		add	r3, r3, #1	@ tmp225, tmp224,
 243 01bc BE30CDE1 		strh	r3, [sp, #14]	@ movhi	@ tmp225, i
 244 01c0 E0FFFFEA 		b	.L9	@
 245              	.L7:
 224:sd_raw.cpp    ****     {
 225:sd_raw.cpp    ****         response = sd_raw_send_command_r1(CMD_SEND_OP_COND, 0);
 246              		.loc 1 225 0
 247 01c4 0100A0E3 		mov	r0, #1	@,
 248 01c8 0010A0E3 		mov	r1, #0	@,
 249 01cc FEFFFFEB 		bl	_ZL22sd_raw_send_command_r1hj	@
 250 01d0 0030A0E1 		mov	r3, r0	@ tmp226,
 251 01d4 0730CDE5 		strb	r3, [sp, #7]	@ tmp227, response
 226:sd_raw.cpp    ****         if(!(response & (1 << R1_IDLE_STATE)))
 252              		.loc 1 226 0
 253 01d8 0730DDE5 		ldrb	r3, [sp, #7]	@ zero_extendqisi2	@ D.10896, response
ARM GAS  /tmp/ccX0J2UF.s 			page 10


 254 01dc 013003E2 		and	r3, r3, #1	@ D.10897, D.10896,
 255 01e0 FF3003E2 		and	r3, r3, #255	@ D.10898, D.10897,
 256 01e4 013023E2 		eor	r3, r3, #1	@ tmp228, D.10898,
 257 01e8 FF3003E2 		and	r3, r3, #255	@ D.10899, tmp228,
 258 01ec 000053E3 		cmp	r3, #0	@ D.10899,
 259 01f0 0A00000A 		beq	.L10	@,
 227:sd_raw.cpp    ****             break;
 228:sd_raw.cpp    **** 
 229:sd_raw.cpp    ****         if(i == 0x7fff)
 230:sd_raw.cpp    ****         {
 231:sd_raw.cpp    ****             unselect_card();
 232:sd_raw.cpp    ****             uart->WriteLine("i = 0x7fff\n\r");
 233:sd_raw.cpp    ****             return 0;
 234:sd_raw.cpp    ****         }
 235:sd_raw.cpp    ****     }
 236:sd_raw.cpp    **** 
 237:sd_raw.cpp    ****     /* set block size to 512 bytes */
 238:sd_raw.cpp    ****     if(sd_raw_send_command_r1(CMD_SET_BLOCKLEN, 512))
 260              		.loc 1 238 0
 261 01f4 1000A0E3 		mov	r0, #16	@,
 262 01f8 021CA0E3 		mov	r1, #512	@,
 263 01fc FEFFFFEB 		bl	_ZL22sd_raw_send_command_r1hj	@
 264 0200 0030A0E1 		mov	r3, r0	@ tmp229,
 265 0204 000053E3 		cmp	r3, #0	@ D.10909,
 266 0208 0030A003 		moveq	r3, #0	@, tmp231
 267 020c 0130A013 		movne	r3, #1	@, tmp231
 268 0210 FF3003E2 		and	r3, r3, #255	@ retval.30, tmp230,
 269 0214 000053E3 		cmp	r3, #0	@ retval.30,
 270 0218 1200001A 		bne	.L11	@,
 271 021c 1B0000EA 		b	.L15	@
 272              	.L10:
 229:sd_raw.cpp    ****         if(i == 0x7fff)
 273              		.loc 1 229 0
 274 0220 BE20DDE1 		ldrh	r2, [sp, #14]	@ tmp232, i
 275 0224 1C319FE5 		ldr	r3, .L16+44	@ tmp233,
 276 0228 030052E1 		cmp	r2, r3	@ tmp232, tmp233
 277 022c 0900001A 		bne	.L13	@,
 231:sd_raw.cpp    ****             unselect_card();
 278              		.loc 1 231 0
 279 0230 EC309FE5 		ldr	r3, .L16+8	@ D.10904,
 280 0234 E8209FE5 		ldr	r2, .L16+8	@ D.10905,
 281 0238 002092E5 		ldr	r2, [r2, #0]	@ D.10906,* D.10905
 282 023c 012682E3 		orr	r2, r2, #1048576	@ D.10907, D.10906,
 283 0240 002083E5 		str	r2, [r3, #0]	@ D.10907,* D.10904
 232:sd_raw.cpp    ****             uart->WriteLine("i = 0x7fff\n\r");
 284              		.loc 1 232 0
 285 0244 08009DE5 		ldr	r0, [sp, #8]	@, uart
 286 0248 FC109FE5 		ldr	r1, .L16+48	@,
 287 024c FEFFFFEB 		bl	_ZN5UART09WriteLineEPKcz	@
 233:sd_raw.cpp    ****             return 0;
 288              		.loc 1 233 0
 289 0250 0030A0E3 		mov	r3, #0	@ D.10863,
 290 0254 2C0000EA 		b	.L3	@
 291              	.L13:
 223:sd_raw.cpp    ****     for(i = 0; ; ++i)
 292              		.loc 1 223 0
 293 0258 BE30DDE1 		ldrh	r3, [sp, #14]	@ movhi	@ tmp234, i
ARM GAS  /tmp/ccX0J2UF.s 			page 11


 294 025c 013083E2 		add	r3, r3, #1	@ tmp235, tmp234,
 295 0260 BE30CDE1 		strh	r3, [sp, #14]	@ movhi	@ tmp235, i
 296 0264 D6FFFFEA 		b	.L7	@
 297              	.L11:
 239:sd_raw.cpp    ****     {
 240:sd_raw.cpp    ****         unselect_card();
 298              		.loc 1 240 0
 299 0268 B4309FE5 		ldr	r3, .L16+8	@ D.10912,
 300 026c B0209FE5 		ldr	r2, .L16+8	@ D.10913,
 301 0270 002092E5 		ldr	r2, [r2, #0]	@ D.10914,* D.10913
 302 0274 012682E3 		orr	r2, r2, #1048576	@ D.10915, D.10914,
 303 0278 002083E5 		str	r2, [r3, #0]	@ D.10915,* D.10912
 241:sd_raw.cpp    ****         uart->WriteLine("BLOCK SIZE SET ERR \n\r");
 304              		.loc 1 241 0
 305 027c 08009DE5 		ldr	r0, [sp, #8]	@, uart
 306 0280 C8109FE5 		ldr	r1, .L16+52	@,
 307 0284 FEFFFFEB 		bl	_ZN5UART09WriteLineEPKcz	@
 242:sd_raw.cpp    ****         return 0;
 308              		.loc 1 242 0
 309 0288 0030A0E3 		mov	r3, #0	@ D.10863,
 310 028c 1E0000EA 		b	.L3	@
 311              	.L15:
 243:sd_raw.cpp    ****     }
 244:sd_raw.cpp    **** 
 245:sd_raw.cpp    ****     /* deaddress card */
 246:sd_raw.cpp    ****     unselect_card();
 312              		.loc 1 246 0
 313 0290 8C309FE5 		ldr	r3, .L16+8	@ D.10916,
 314 0294 88209FE5 		ldr	r2, .L16+8	@ D.10917,
 315 0298 002092E5 		ldr	r2, [r2, #0]	@ D.10918,* D.10917
 316 029c 012682E3 		orr	r2, r2, #1048576	@ D.10919, D.10918,
 317 02a0 002083E5 		str	r2, [r3, #0]	@ D.10919,* D.10916
 247:sd_raw.cpp    **** 
 248:sd_raw.cpp    ****     /* switch to highest SPI frequency possible */
 249:sd_raw.cpp    ****     //S0SPCCR = 60; /* ~1MHz-- potentially can be faster */
 250:sd_raw.cpp    ****     SSPCR0 = 0x0507;
 318              		.loc 1 250 0
 319 02a4 7C309FE5 		ldr	r3, .L16+12	@ D.10920,
 320 02a8 A4209FE5 		ldr	r2, .L16+56	@ tmp237,
 321 02ac B020C3E1 		strh	r2, [r3, #0]	@ movhi	@ tmp236,* D.10920
 251:sd_raw.cpp    **** 
 252:sd_raw.cpp    ****     #if !SD_RAW_SAVE_RAM
 253:sd_raw.cpp    ****         /* the first block is likely to be accessed first, so precache it here */
 254:sd_raw.cpp    ****         raw_block_address = 0xffffffff;
 322              		.loc 1 254 0
 323 02b0 A0309FE5 		ldr	r3, .L16+60	@ tmp238,
 324 02b4 0020E0E3 		mvn	r2, #0	@ tmp239,
 325 02b8 002083E5 		str	r2, [r3, #0]	@ tmp239, raw_block_address
 255:sd_raw.cpp    ****         #if SD_RAW_WRITE_BUFFERING
 256:sd_raw.cpp    ****         raw_block_written = 1;
 326              		.loc 1 256 0
 327 02bc 98309FE5 		ldr	r3, .L16+64	@ tmp240,
 328 02c0 0120A0E3 		mov	r2, #1	@ tmp241,
 329 02c4 0020C3E5 		strb	r2, [r3, #0]	@ tmp242, raw_block_written
 257:sd_raw.cpp    ****     #endif
 258:sd_raw.cpp    ****     if(!sd_raw_read(0, raw_block, sizeof(raw_block)))
 330              		.loc 1 258 0
ARM GAS  /tmp/ccX0J2UF.s 			page 12


 331 02c8 0000A0E3 		mov	r0, #0	@,
 332 02cc 8C109FE5 		ldr	r1, .L16+68	@,
 333 02d0 022CA0E3 		mov	r2, #512	@,
 334 02d4 FEFFFFEB 		bl	_Z11sd_raw_readjPht	@
 335 02d8 0030A0E1 		mov	r3, r0	@ tmp243,
 336 02dc 000053E3 		cmp	r3, #0	@ D.10922,
 337 02e0 0030A013 		movne	r3, #0	@, tmp245
 338 02e4 0130A003 		moveq	r3, #1	@, tmp245
 339 02e8 FF3003E2 		and	r3, r3, #255	@ retval.31, tmp244,
 340 02ec 000053E3 		cmp	r3, #0	@ retval.31,
 341 02f0 0400000A 		beq	.L14	@,
 259:sd_raw.cpp    ****     {
 260:sd_raw.cpp    ****     	uart->WriteLine("sd_raw_read borks\n\r");
 342              		.loc 1 260 0
 343 02f4 08009DE5 		ldr	r0, [sp, #8]	@, uart
 344 02f8 64109FE5 		ldr	r1, .L16+72	@,
 345 02fc FEFFFFEB 		bl	_ZN5UART09WriteLineEPKcz	@
 261:sd_raw.cpp    ****         return 0;
 346              		.loc 1 261 0
 347 0300 0030A0E3 		mov	r3, #0	@ D.10863,
 348 0304 000000EA 		b	.L3	@
 349              	.L14:
 262:sd_raw.cpp    ****     }
 263:sd_raw.cpp    ****     #endif
 264:sd_raw.cpp    **** 
 265:sd_raw.cpp    ****     return 1;
 350              		.loc 1 265 0
 351 0308 0130A0E3 		mov	r3, #1	@ D.10863,
 352              	.L3:
 353              	.LBE2:
 266:sd_raw.cpp    **** }
 354              		.loc 1 266 0
 355 030c 0300A0E1 		mov	r0, r3	@, <retval>
 356 0310 14D08DE2 		add	sp, sp, #20	@,,
 357 0314 04E09DE4 		ldr	lr, [sp], #4
 358 0318 1EFF2FE1 		bx	lr
 359              	.L17:
 360              		.align	2
 361              	.L16:
 362 031c 00C0FF3F 		.word	1073725440
 363 0320 04C002E0 		.word	-536690684
 364 0324 18C0FF3F 		.word	1073725464
 365 0328 008006E0 		.word	-536444928
 366 032c 070E0000 		.word	3591
 367 0330 108006E0 		.word	-536444912
 368 0334 048006E0 		.word	-536444924
 369 0338 00000000 		.word	.LC0
 370 033c 1CC0FF3F 		.word	1073725468
 371 0340 FF010000 		.word	511
 372 0344 18000000 		.word	.LC1
 373 0348 FF7F0000 		.word	32767
 374 034c 2C000000 		.word	.LC2
 375 0350 3C000000 		.word	.LC3
 376 0354 07050000 		.word	1287
 377 0358 00020000 		.word	_ZL17raw_block_address
 378 035c 04020000 		.word	_ZL17raw_block_written
 379 0360 00000000 		.word	_ZL9raw_block
ARM GAS  /tmp/ccX0J2UF.s 			page 13


 380 0364 54000000 		.word	.LC4
 381              		.cfi_endproc
 382              	.LFE109:
 383              		.size	_Z11sd_raw_initv, .-_Z11sd_raw_initv
 384              		.section	.text._Z16sd_raw_availablev,"ax",%progbits
 385              		.align	2
 386              		.global	_Z16sd_raw_availablev
 387              		.type	_Z16sd_raw_availablev, %function
 388              	_Z16sd_raw_availablev:
 389              	.LFB110:
 267:sd_raw.cpp    **** 
 268:sd_raw.cpp    **** /**
 269:sd_raw.cpp    ****  * \ingroup sd_raw
 270:sd_raw.cpp    ****  * Checks wether a memory card is located in the slot.
 271:sd_raw.cpp    ****  *
 272:sd_raw.cpp    ****  * \returns 1 if the card is available, 0 if it is not.
 273:sd_raw.cpp    ****  */
 274:sd_raw.cpp    **** unsigned char sd_raw_available()
 275:sd_raw.cpp    **** {
 390              		.loc 1 275 0
 391              		.cfi_startproc
 392              		@ Function supports interworking.
 393              		@ args = 0, pretend = 0, frame = 8
 394              		@ frame_needed = 0, uses_anonymous_args = 0
 395              		@ link register save eliminated.
 396 0000 08D04DE2 		sub	sp, sp, #8	@,,
 397              	.LCFI2:
 398              		.cfi_def_cfa_offset 8
 399              	.LBB3:
 276:sd_raw.cpp    ****     unsigned int i;
 277:sd_raw.cpp    ****     configure_pin_available();
 400              		.loc 1 277 0
 401 0004 98309FE5 		ldr	r3, .L21	@ D.10817,
 402 0008 94209FE5 		ldr	r2, .L21	@ D.10818,
 403 000c 002092E5 		ldr	r2, [r2, #0]	@ D.10819,* D.10818
 404 0010 0126C2E3 		bic	r2, r2, #1048576	@ D.10820, D.10819,
 405 0014 002083E5 		str	r2, [r3, #0]	@ D.10820,* D.10817
 278:sd_raw.cpp    ****     for(i=0;i<100000;i++);
 406              		.loc 1 278 0
 407 0018 0030A0E3 		mov	r3, #0	@ tmp148,
 408 001c 04308DE5 		str	r3, [sp, #4]	@ tmp148, i
 409 0020 020000EA 		b	.L19	@
 410              	.L20:
 411              		.loc 1 278 0 is_stmt 0 discriminator 2
 412 0024 04309DE5 		ldr	r3, [sp, #4]	@ tmp149, i
 413 0028 013083E2 		add	r3, r3, #1	@ tmp150, tmp149,
 414 002c 04308DE5 		str	r3, [sp, #4]	@ tmp150, i
 415              	.L19:
 416              		.loc 1 278 0 discriminator 1
 417 0030 04209DE5 		ldr	r2, [sp, #4]	@ tmp152, i
 418 0034 6C309FE5 		ldr	r3, .L21+4	@ tmp154,
 419 0038 030052E1 		cmp	r2, r3	@ tmp152, tmp154
 420 003c 0030A083 		movhi	r3, #0	@, tmp153
 421 0040 0130A093 		movls	r3, #1	@, tmp153
 422 0044 FF3003E2 		and	r3, r3, #255	@ D.10824, tmp151,
 423 0048 000053E3 		cmp	r3, #0	@ D.10824,
 424 004c F4FFFF1A 		bne	.L20	@,
ARM GAS  /tmp/ccX0J2UF.s 			page 14


 279:sd_raw.cpp    ****     i = get_pin_available();
 425              		.loc 1 279 0 is_stmt 1
 426 0050 54309FE5 		ldr	r3, .L21+8	@ D.10826,
 427 0054 003093E5 		ldr	r3, [r3, #0]	@ D.10827,* D.10826
 428 0058 013603E2 		and	r3, r3, #1048576	@ D.10828, D.10827,
 429 005c 233AA0E1 		mov	r3, r3, lsr #20	@ D.10829, D.10828,
 430 0060 000053E3 		cmp	r3, #0	@ D.10829,
 431 0064 0030A013 		movne	r3, #0	@, tmp155
 432 0068 0130A003 		moveq	r3, #1	@, tmp155
 433 006c 04308DE5 		str	r3, [sp, #4]	@ tmp155, i
 280:sd_raw.cpp    ****     configure_pin_ss();
 434              		.loc 1 280 0
 435 0070 2C309FE5 		ldr	r3, .L21	@ D.10830,
 436 0074 28209FE5 		ldr	r2, .L21	@ D.10831,
 437 0078 002092E5 		ldr	r2, [r2, #0]	@ D.10832,* D.10831
 438 007c 012682E3 		orr	r2, r2, #1048576	@ D.10833, D.10832,
 439 0080 002083E5 		str	r2, [r3, #0]	@ D.10833,* D.10830
 281:sd_raw.cpp    ****     return i == 0x00;
 440              		.loc 1 281 0
 441 0084 04309DE5 		ldr	r3, [sp, #4]	@ tmp157, i
 442 0088 000053E3 		cmp	r3, #0	@ tmp157,
 443 008c 0030A013 		movne	r3, #0	@, tmp158
 444 0090 0130A003 		moveq	r3, #1	@, tmp158
 445 0094 FF3003E2 		and	r3, r3, #255	@ D.10834, tmp156,
 446              	.LBE3:
 282:sd_raw.cpp    **** }
 447              		.loc 1 282 0
 448 0098 0300A0E1 		mov	r0, r3	@, <retval>
 449 009c 08D08DE2 		add	sp, sp, #8	@,,
 450 00a0 1EFF2FE1 		bx	lr
 451              	.L22:
 452              		.align	2
 453              	.L21:
 454 00a4 00C0FF3F 		.word	1073725440
 455 00a8 9F860100 		.word	99999
 456 00ac 14C0FF3F 		.word	1073725460
 457              		.cfi_endproc
 458              	.LFE110:
 459              		.size	_Z16sd_raw_availablev, .-_Z16sd_raw_availablev
 460              		.section	.text._Z13sd_raw_lockedv,"ax",%progbits
 461              		.align	2
 462              		.global	_Z13sd_raw_lockedv
 463              		.type	_Z13sd_raw_lockedv, %function
 464              	_Z13sd_raw_lockedv:
 465              	.LFB111:
 283:sd_raw.cpp    **** 
 284:sd_raw.cpp    **** /**
 285:sd_raw.cpp    ****  * \ingroup sd_raw
 286:sd_raw.cpp    ****  * Checks wether the memory card is locked for write access.
 287:sd_raw.cpp    ****  *
 288:sd_raw.cpp    ****  * \returns 1 if the card is locked, 0 if it is not.
 289:sd_raw.cpp    ****  */
 290:sd_raw.cpp    **** unsigned char sd_raw_locked()
 291:sd_raw.cpp    **** {
 466              		.loc 1 291 0
 467              		.cfi_startproc
 468              		@ Function supports interworking.
ARM GAS  /tmp/ccX0J2UF.s 			page 15


 469              		@ args = 0, pretend = 0, frame = 0
 470              		@ frame_needed = 0, uses_anonymous_args = 0
 471              		@ link register save eliminated.
 292:sd_raw.cpp    ****     return get_pin_locked() == 0x00;
 472              		.loc 1 292 0
 473 0000 0130A0E3 		mov	r3, #1	@ D.10815,
 293:sd_raw.cpp    **** }
 474              		.loc 1 293 0
 475 0004 0300A0E1 		mov	r0, r3	@, <retval>
 476 0008 1EFF2FE1 		bx	lr	@
 477              		.cfi_endproc
 478              	.LFE111:
 479              		.size	_Z13sd_raw_lockedv, .-_Z13sd_raw_lockedv
 480              		.section	.text._ZL16sd_raw_send_byteh,"ax",%progbits
 481              		.align	2
 482              		.type	_ZL16sd_raw_send_byteh, %function
 483              	_ZL16sd_raw_send_byteh:
 484              	.LFB112:
 294:sd_raw.cpp    **** 
 295:sd_raw.cpp    **** /**
 296:sd_raw.cpp    ****  * \ingroup sd_raw
 297:sd_raw.cpp    ****  * Sends a raw byte to the memory card.
 298:sd_raw.cpp    ****  *
 299:sd_raw.cpp    ****  * \param[in] b The byte to sent.
 300:sd_raw.cpp    ****  * \see sd_raw_rec_byte
 301:sd_raw.cpp    ****  */
 302:sd_raw.cpp    **** void sd_raw_send_byte(unsigned char b)
 303:sd_raw.cpp    **** {
 485              		.loc 1 303 0
 486              		.cfi_startproc
 487              		@ Function supports interworking.
 488              		@ args = 0, pretend = 0, frame = 8
 489              		@ frame_needed = 0, uses_anonymous_args = 0
 490              		@ link register save eliminated.
 491 0000 08D04DE2 		sub	sp, sp, #8	@,,
 492              	.LCFI3:
 493              		.cfi_def_cfa_offset 8
 494 0004 0030A0E1 		mov	r3, r0	@ tmp141, b
 495 0008 0730CDE5 		strb	r3, [sp, #7]	@ tmp142, b
 304:sd_raw.cpp    ****     SSPDR = b;
 496              		.loc 1 304 0
 497 000c 3C309FE5 		ldr	r3, .L26	@ D.10804,
 498 0010 0720DDE5 		ldrb	r2, [sp, #7]	@ zero_extendqisi2	@ tmp144, b
 499 0014 0228A0E1 		mov	r2, r2, asl #16	@ tmp145, tmp143,
 500 0018 2228A0E1 		mov	r2, r2, lsr #16	@ D.10805, tmp145,
 501 001c B020C3E1 		strh	r2, [r3, #0]	@ movhi	@ D.10805,* D.10804
 305:sd_raw.cpp    ****     //S0SPDR = b;
 306:sd_raw.cpp    ****     /* wait for byte to be shifted out */
 307:sd_raw.cpp    ****     //while(!(S0SPSR & 0x80));
 308:sd_raw.cpp    ****     // while TX FIFO not empty...
 309:sd_raw.cpp    ****     while(!(SSPSR & 0x01));
 502              		.loc 1 309 0
 503 0020 0000A0E1 		mov	r0, r0	@ nop
 504              	.L25:
 505              		.loc 1 309 0 is_stmt 0 discriminator 1
 506 0024 28309FE5 		ldr	r3, .L26+4	@ D.10810,
 507 0028 0030D3E5 		ldrb	r3, [r3, #0]	@ tmp146,* D.10810
ARM GAS  /tmp/ccX0J2UF.s 			page 16


 508 002c FF3003E2 		and	r3, r3, #255	@ D.10811, tmp146,
 509 0030 013003E2 		and	r3, r3, #1	@ D.10813, D.10812,
 510 0034 FF3003E2 		and	r3, r3, #255	@ D.10814, D.10813,
 511 0038 013023E2 		eor	r3, r3, #1	@ tmp147, D.10814,
 512 003c FF3003E2 		and	r3, r3, #255	@ retval.28, tmp147,
 513 0040 000053E3 		cmp	r3, #0	@ retval.28,
 514 0044 F6FFFF1A 		bne	.L25	@,
 310:sd_raw.cpp    **** }
 515              		.loc 1 310 0 is_stmt 1
 516 0048 08D08DE2 		add	sp, sp, #8	@,,
 517 004c 1EFF2FE1 		bx	lr
 518              	.L27:
 519              		.align	2
 520              	.L26:
 521 0050 088006E0 		.word	-536444920
 522 0054 0C8006E0 		.word	-536444916
 523              		.cfi_endproc
 524              	.LFE112:
 525              		.size	_ZL16sd_raw_send_byteh, .-_ZL16sd_raw_send_byteh
 526              		.section	.text._ZL15sd_raw_rec_bytev,"ax",%progbits
 527              		.align	2
 528              		.type	_ZL15sd_raw_rec_bytev, %function
 529              	_ZL15sd_raw_rec_bytev:
 530              	.LFB113:
 311:sd_raw.cpp    **** 
 312:sd_raw.cpp    **** /**
 313:sd_raw.cpp    ****  * \ingroup sd_raw
 314:sd_raw.cpp    ****  * Receives a raw byte from the memory card.
 315:sd_raw.cpp    ****  *
 316:sd_raw.cpp    ****  * \returns The byte which should be read.
 317:sd_raw.cpp    ****  * \see sd_raw_send_byte
 318:sd_raw.cpp    ****  */
 319:sd_raw.cpp    **** unsigned char sd_raw_rec_byte(void)
 320:sd_raw.cpp    **** {
 531              		.loc 1 320 0
 532              		.cfi_startproc
 533              		@ Function supports interworking.
 534              		@ args = 0, pretend = 0, frame = 0
 535              		@ frame_needed = 0, uses_anonymous_args = 0
 536              		@ link register save eliminated.
 321:sd_raw.cpp    ****     /* send dummy data for receiving some */
 322:sd_raw.cpp    ****     //S0SPDR = 0xff;
 323:sd_raw.cpp    **** 	SSPDR = 0xff;
 537              		.loc 1 323 0
 538 0000 48309FE5 		ldr	r3, .L30	@ D.10790,
 539 0004 FF20A0E3 		mov	r2, #255	@ tmp145,
 540 0008 B020C3E1 		strh	r2, [r3, #0]	@ movhi	@ tmp144,* D.10790
 324:sd_raw.cpp    ****     //while(!(S0SPSR & 0x80));
 325:sd_raw.cpp    ****     while(!(SSPSR & 0x01));
 541              		.loc 1 325 0
 542 000c 0000A0E1 		mov	r0, r0	@ nop
 543              	.L29:
 544              		.loc 1 325 0 is_stmt 0 discriminator 1
 545 0010 3C309FE5 		ldr	r3, .L30+4	@ D.10795,
 546 0014 0030D3E5 		ldrb	r3, [r3, #0]	@ tmp146,* D.10795
 547 0018 FF3003E2 		and	r3, r3, #255	@ D.10796, tmp146,
 548 001c 013003E2 		and	r3, r3, #1	@ D.10798, D.10797,
ARM GAS  /tmp/ccX0J2UF.s 			page 17


 549 0020 FF3003E2 		and	r3, r3, #255	@ D.10799, D.10798,
 550 0024 013023E2 		eor	r3, r3, #1	@ tmp147, D.10799,
 551 0028 FF3003E2 		and	r3, r3, #255	@ retval.27, tmp147,
 552 002c 000053E3 		cmp	r3, #0	@ retval.27,
 553 0030 F6FFFF1A 		bne	.L29	@,
 326:sd_raw.cpp    **** 
 327:sd_raw.cpp    ****     return SSPDR;
 554              		.loc 1 327 0 is_stmt 1
 555 0034 14309FE5 		ldr	r3, .L30	@ D.10801,
 556 0038 B030D3E1 		ldrh	r3, [r3, #0]	@ movhi	@ tmp148,* D.10801
 557 003c 0338A0E1 		mov	r3, r3, asl #16	@ tmp149, tmp148,
 558 0040 2338A0E1 		mov	r3, r3, lsr #16	@ D.10802, tmp149,
 559 0044 FF3003E2 		and	r3, r3, #255	@ D.10800, D.10802,
 328:sd_raw.cpp    **** }
 560              		.loc 1 328 0
 561 0048 0300A0E1 		mov	r0, r3	@, <retval>
 562 004c 1EFF2FE1 		bx	lr	@
 563              	.L31:
 564              		.align	2
 565              	.L30:
 566 0050 088006E0 		.word	-536444920
 567 0054 0C8006E0 		.word	-536444916
 568              		.cfi_endproc
 569              	.LFE113:
 570              		.size	_ZL15sd_raw_rec_bytev, .-_ZL15sd_raw_rec_bytev
 571              		.section	.text._ZL22sd_raw_send_command_r1hj,"ax",%progbits
 572              		.align	2
 573              		.type	_ZL22sd_raw_send_command_r1hj, %function
 574              	_ZL22sd_raw_send_command_r1hj:
 575              	.LFB114:
 329:sd_raw.cpp    **** 
 330:sd_raw.cpp    **** /**
 331:sd_raw.cpp    ****  * \ingroup sd_raw
 332:sd_raw.cpp    ****  * Send a command to the memory card which responses with a R1 response.
 333:sd_raw.cpp    ****  *
 334:sd_raw.cpp    ****  * \param[in] command The command to send.
 335:sd_raw.cpp    ****  * \param[in] arg The argument for command.
 336:sd_raw.cpp    ****  * \returns The command answer.
 337:sd_raw.cpp    ****  */
 338:sd_raw.cpp    **** unsigned char sd_raw_send_command_r1(unsigned char command, unsigned int arg)
 339:sd_raw.cpp    **** {
 576              		.loc 1 339 0
 577              		.cfi_startproc
 578              		@ Function supports interworking.
 579              		@ args = 0, pretend = 0, frame = 16
 580              		@ frame_needed = 0, uses_anonymous_args = 0
 581 0000 04E02DE5 		str	lr, [sp, #-4]!	@,
 582              	.LCFI4:
 583              		.cfi_def_cfa_offset 4
 584 0004 14D04DE2 		sub	sp, sp, #20	@,,
 585              	.LCFI5:
 586              		.cfi_def_cfa_offset 24
 587 0008 0030A0E1 		mov	r3, r0	@ tmp145, command
 588 000c 00108DE5 		str	r1, [sp, #0]	@ arg, arg
 589 0010 0730CDE5 		strb	r3, [sp, #7]	@ tmp146, command
 590              	.LBB4:
 340:sd_raw.cpp    ****     unsigned char response;
ARM GAS  /tmp/ccX0J2UF.s 			page 18


 341:sd_raw.cpp    ****     unsigned char i;
 342:sd_raw.cpp    **** 
 343:sd_raw.cpp    ****     /* wait some clock cycles */
 344:sd_raw.cpp    ****     sd_raw_rec_byte();
 591              		.loc 1 344 0
 592              		.cfi_offset 14, -4
 593 0014 FEFFFFEB 		bl	_ZL15sd_raw_rec_bytev	@
 345:sd_raw.cpp    **** 
 346:sd_raw.cpp    ****     /* send command via SPI */
 347:sd_raw.cpp    ****     sd_raw_send_byte(0x40 | command);
 594              		.loc 1 347 0
 595 0018 0730DDE5 		ldrb	r3, [sp, #7]	@ tmp147, command
 596 001c 403083E3 		orr	r3, r3, #64	@ tmp148, tmp147,
 597 0020 FF3003E2 		and	r3, r3, #255	@ D.10769, tmp148,
 598 0024 0300A0E1 		mov	r0, r3	@, D.10769
 599 0028 FEFFFFEB 		bl	_ZL16sd_raw_send_byteh	@
 348:sd_raw.cpp    ****     sd_raw_send_byte((arg >> 24) & 0xff);
 600              		.loc 1 348 0
 601 002c 00309DE5 		ldr	r3, [sp, #0]	@ tmp149, arg
 602 0030 233CA0E1 		mov	r3, r3, lsr #24	@ D.10770, tmp149,
 603 0034 FF3003E2 		and	r3, r3, #255	@ D.10771, D.10770,
 604 0038 0300A0E1 		mov	r0, r3	@, D.10771
 605 003c FEFFFFEB 		bl	_ZL16sd_raw_send_byteh	@
 349:sd_raw.cpp    ****     sd_raw_send_byte((arg >> 16) & 0xff);
 606              		.loc 1 349 0
 607 0040 00309DE5 		ldr	r3, [sp, #0]	@ tmp150, arg
 608 0044 2338A0E1 		mov	r3, r3, lsr #16	@ D.10772, tmp150,
 609 0048 FF3003E2 		and	r3, r3, #255	@ D.10773, D.10772,
 610 004c 0300A0E1 		mov	r0, r3	@, D.10773
 611 0050 FEFFFFEB 		bl	_ZL16sd_raw_send_byteh	@
 350:sd_raw.cpp    ****     sd_raw_send_byte((arg >> 8) & 0xff);
 612              		.loc 1 350 0
 613 0054 00309DE5 		ldr	r3, [sp, #0]	@ tmp151, arg
 614 0058 2334A0E1 		mov	r3, r3, lsr #8	@ D.10774, tmp151,
 615 005c FF3003E2 		and	r3, r3, #255	@ D.10775, D.10774,
 616 0060 0300A0E1 		mov	r0, r3	@, D.10775
 617 0064 FEFFFFEB 		bl	_ZL16sd_raw_send_byteh	@
 351:sd_raw.cpp    ****     sd_raw_send_byte((arg >> 0) & 0xff);
 618              		.loc 1 351 0
 619 0068 00309DE5 		ldr	r3, [sp, #0]	@ tmp152, arg
 620 006c FF3003E2 		and	r3, r3, #255	@ D.10776, tmp152,
 621 0070 0300A0E1 		mov	r0, r3	@, D.10776
 622 0074 FEFFFFEB 		bl	_ZL16sd_raw_send_byteh	@
 352:sd_raw.cpp    ****     sd_raw_send_byte((command == CMD_GO_IDLE_STATE) ? 0x95 : 0xff);
 623              		.loc 1 352 0
 624 0078 0730DDE5 		ldrb	r3, [sp, #7]	@ zero_extendqisi2	@ tmp153, command
 625 007c 000053E3 		cmp	r3, #0	@ tmp153,
 626 0080 0100001A 		bne	.L33	@,
 627              		.loc 1 352 0 is_stmt 0 discriminator 1
 628 0084 9530A0E3 		mov	r3, #149	@ iftmp.26,
 629 0088 000000EA 		b	.L34	@
 630              	.L33:
 631              		.loc 1 352 0 discriminator 2
 632 008c FF30A0E3 		mov	r3, #255	@ iftmp.26,
 633              	.L34:
 634              		.loc 1 352 0 discriminator 3
 635 0090 0300A0E1 		mov	r0, r3	@, iftmp.26
ARM GAS  /tmp/ccX0J2UF.s 			page 19


 636 0094 FEFFFFEB 		bl	_ZL16sd_raw_send_byteh	@
 353:sd_raw.cpp    **** 
 354:sd_raw.cpp    ****     /* receive response */
 355:sd_raw.cpp    ****     for(i = 0; i < 10; ++i)
 637              		.loc 1 355 0 is_stmt 1 discriminator 3
 638 0098 0030A0E3 		mov	r3, #0	@ tmp154,
 639 009c 0E30CDE5 		strb	r3, [sp, #14]	@ tmp155, i
 640 00a0 080000EA 		b	.L35	@
 641              	.L38:
 356:sd_raw.cpp    ****     {
 357:sd_raw.cpp    ****         response = sd_raw_rec_byte();
 642              		.loc 1 357 0
 643 00a4 FEFFFFEB 		bl	_ZL15sd_raw_rec_bytev	@
 644 00a8 0030A0E1 		mov	r3, r0	@ tmp156,
 645 00ac 0F30CDE5 		strb	r3, [sp, #15]	@ tmp157, response
 358:sd_raw.cpp    ****         if(response != 0xff)
 646              		.loc 1 358 0
 647 00b0 0F30DDE5 		ldrb	r3, [sp, #15]	@ zero_extendqisi2	@ tmp158, response
 648 00b4 FF0053E3 		cmp	r3, #255	@ tmp158,
 649 00b8 0A00001A 		bne	.L39	@,
 650              	.L36:
 355:sd_raw.cpp    ****     for(i = 0; i < 10; ++i)
 651              		.loc 1 355 0
 652 00bc 0E30DDE5 		ldrb	r3, [sp, #14]	@ tmp159, i
 653 00c0 013083E2 		add	r3, r3, #1	@ tmp160, tmp159,
 654 00c4 0E30CDE5 		strb	r3, [sp, #14]	@ tmp161, i
 655              	.L35:
 355:sd_raw.cpp    ****     for(i = 0; i < 10; ++i)
 656              		.loc 1 355 0 is_stmt 0 discriminator 1
 657 00c8 0E30DDE5 		ldrb	r3, [sp, #14]	@ zero_extendqisi2	@ tmp163, i
 658 00cc 090053E3 		cmp	r3, #9	@ tmp163,
 659 00d0 0030A083 		movhi	r3, #0	@, tmp164
 660 00d4 0130A093 		movls	r3, #1	@, tmp164
 661 00d8 FF3003E2 		and	r3, r3, #255	@ D.10784, tmp162,
 662 00dc 000053E3 		cmp	r3, #0	@ D.10784,
 663 00e0 EFFFFF1A 		bne	.L38	@,
 664 00e4 000000EA 		b	.L37	@
 665              	.L39:
 359:sd_raw.cpp    ****             break;
 666              		.loc 1 359 0 is_stmt 1
 667 00e8 0000A0E1 		mov	r0, r0	@ nop
 668              	.L37:
 360:sd_raw.cpp    ****     }
 361:sd_raw.cpp    **** 
 362:sd_raw.cpp    ****     return response;
 669              		.loc 1 362 0
 670 00ec 0F30DDE5 		ldrb	r3, [sp, #15]	@ zero_extendqisi2	@ D.10788, response
 671              	.LBE4:
 363:sd_raw.cpp    **** }
 672              		.loc 1 363 0
 673 00f0 0300A0E1 		mov	r0, r3	@, <retval>
 674 00f4 14D08DE2 		add	sp, sp, #20	@,,
 675 00f8 04E09DE4 		ldr	lr, [sp], #4
 676 00fc 1EFF2FE1 		bx	lr
 677              		.cfi_endproc
 678              	.LFE114:
 679              		.size	_ZL22sd_raw_send_command_r1hj, .-_ZL22sd_raw_send_command_r1hj
ARM GAS  /tmp/ccX0J2UF.s 			page 20


 680              		.section	.text._Z11sd_raw_readjPht,"ax",%progbits
 681              		.align	2
 682              		.global	_Z11sd_raw_readjPht
 683              		.type	_Z11sd_raw_readjPht, %function
 684              	_Z11sd_raw_readjPht:
 685              	.LFB115:
 364:sd_raw.cpp    **** 
 365:sd_raw.cpp    **** /**
 366:sd_raw.cpp    ****  * \ingroup sd_raw
 367:sd_raw.cpp    ****  * Send a command to the memory card which responses with a R2 response.
 368:sd_raw.cpp    ****  *
 369:sd_raw.cpp    ****  * \param[in] command The command to send.
 370:sd_raw.cpp    ****  * \param[in] arg The argument for command.
 371:sd_raw.cpp    ****  * \returns The command answer.
 372:sd_raw.cpp    ****  */
 373:sd_raw.cpp    **** /*
 374:sd_raw.cpp    **** unsigned short sd_raw_send_command_r2(unsigned char command, unsigned int arg)
 375:sd_raw.cpp    **** {
 376:sd_raw.cpp    ****     unsigned short response;
 377:sd_raw.cpp    ****     unsigned char i;
 378:sd_raw.cpp    **** 
 379:sd_raw.cpp    ****     // wait some clock cycles
 380:sd_raw.cpp    ****     sd_raw_rec_byte();
 381:sd_raw.cpp    **** 
 382:sd_raw.cpp    ****     // send command via SPI
 383:sd_raw.cpp    ****     sd_raw_send_byte(0x40 | command);
 384:sd_raw.cpp    ****     sd_raw_send_byte((arg >> 24) & 0xff);
 385:sd_raw.cpp    ****     sd_raw_send_byte((arg >> 16) & 0xff);
 386:sd_raw.cpp    ****     sd_raw_send_byte((arg >> 8) & 0xff);
 387:sd_raw.cpp    ****     sd_raw_send_byte((arg >> 0) & 0xff);
 388:sd_raw.cpp    ****     sd_raw_send_byte(command == CMD_GO_IDLE_STATE ? 0x95 : 0xff);
 389:sd_raw.cpp    **** 
 390:sd_raw.cpp    ****     // receive response
 391:sd_raw.cpp    ****     for(i = 0; i < 10; ++i)
 392:sd_raw.cpp    ****     {
 393:sd_raw.cpp    ****         response = sd_raw_rec_byte();
 394:sd_raw.cpp    ****         if(response != 0xff)
 395:sd_raw.cpp    ****             break;
 396:sd_raw.cpp    ****     }
 397:sd_raw.cpp    ****     response <<= 8;
 398:sd_raw.cpp    ****     response |= sd_raw_rec_byte();
 399:sd_raw.cpp    **** 
 400:sd_raw.cpp    ****     return response;
 401:sd_raw.cpp    **** }
 402:sd_raw.cpp    **** */
 403:sd_raw.cpp    **** 
 404:sd_raw.cpp    **** /**
 405:sd_raw.cpp    ****  * \ingroup sd_raw
 406:sd_raw.cpp    ****  * Reads raw data from the card.
 407:sd_raw.cpp    ****  *
 408:sd_raw.cpp    ****  * \param[in] offset The offset from which to read.
 409:sd_raw.cpp    ****  * \param[out] buffer The buffer into which to write the data.
 410:sd_raw.cpp    ****  * \param[in] length The number of bytes to read.
 411:sd_raw.cpp    ****  * \returns 0 on failure, 1 on success.
 412:sd_raw.cpp    ****  * \see sd_raw_read_interval, sd_raw_write
 413:sd_raw.cpp    ****  */
 414:sd_raw.cpp    **** unsigned char sd_raw_read(unsigned int offset, unsigned char* buffer, unsigned short length)
ARM GAS  /tmp/ccX0J2UF.s 			page 21


 415:sd_raw.cpp    **** {
 686              		.loc 1 415 0
 687              		.cfi_startproc
 688              		@ Function supports interworking.
 689              		@ args = 0, pretend = 0, frame = 40
 690              		@ frame_needed = 0, uses_anonymous_args = 0
 691 0000 04E02DE5 		str	lr, [sp, #-4]!	@,
 692              	.LCFI6:
 693              		.cfi_def_cfa_offset 4
 694 0004 2CD04DE2 		sub	sp, sp, #44	@,,
 695              	.LCFI7:
 696              		.cfi_def_cfa_offset 48
 697 0008 0C008DE5 		str	r0, [sp, #12]	@ offset, offset
 698 000c 08108DE5 		str	r1, [sp, #8]	@ buffer, buffer
 699 0010 0230A0E1 		mov	r3, r2	@ tmp168, length
 700 0014 B630CDE1 		strh	r3, [sp, #6]	@ movhi	@ tmp168, length
 701              	.LBB5:
 416:sd_raw.cpp    ****     unsigned int block_address;
 417:sd_raw.cpp    ****     unsigned short block_offset;
 418:sd_raw.cpp    ****     unsigned short read_length;
 419:sd_raw.cpp    ****     while(length > 0)
 702              		.loc 1 419 0
 703 0018 890000EA 		b	.L41	@
 704              		.cfi_offset 14, -4
 705              	.L51:
 706              	.LBB6:
 420:sd_raw.cpp    ****     {
 421:sd_raw.cpp    ****         /* determine byte count to read at once */
 422:sd_raw.cpp    ****         block_address = offset & 0xfffffe00;
 707              		.loc 1 422 0
 708 001c 0C309DE5 		ldr	r3, [sp, #12]	@ tmp169, offset
 709 0020 7F3FC3E3 		bic	r3, r3, #508	@ tmp170, tmp169,
 710 0024 0330C3E3 		bic	r3, r3, #3	@ tmp170, tmp170,
 711 0028 18308DE5 		str	r3, [sp, #24]	@ tmp170, block_address
 423:sd_raw.cpp    ****         block_offset = offset & 0x01ff;
 712              		.loc 1 423 0
 713 002c 0C309DE5 		ldr	r3, [sp, #12]	@ tmp171, offset
 714 0030 0338A0E1 		mov	r3, r3, asl #16	@ tmp172, tmp171,
 715 0034 2338A0E1 		mov	r3, r3, lsr #16	@ D.10715, tmp172,
 716 0038 833BA0E1 		mov	r3, r3, asl #23	@ tmp173, D.10715,
 717 003c A33BA0E1 		mov	r3, r3, lsr #23	@ tmp173, tmp173,
 718 0040 B631CDE1 		strh	r3, [sp, #22]	@ movhi	@ tmp173, block_offset
 424:sd_raw.cpp    ****         read_length = 512 - block_offset; /* read up to block border */
 719              		.loc 1 424 0
 720 0044 B631DDE1 		ldrh	r3, [sp, #22]	@ movhi	@ tmp174, block_offset
 721 0048 023C63E2 		rsb	r3, r3, #512	@ tmp175, tmp174,
 722 004c B632CDE1 		strh	r3, [sp, #38]	@ movhi	@ tmp175, read_length
 425:sd_raw.cpp    ****         if(read_length > length)
 723              		.loc 1 425 0
 724 0050 B622DDE1 		ldrh	r2, [sp, #38]	@ tmp176, read_length
 725 0054 B630DDE1 		ldrh	r3, [sp, #6]	@ tmp177, length
 726 0058 030052E1 		cmp	r2, r3	@ tmp176, tmp177
 727 005c 0100009A 		bls	.L42	@,
 426:sd_raw.cpp    ****             read_length = length;
 728              		.loc 1 426 0
 729 0060 B630DDE1 		ldrh	r3, [sp, #6]	@ movhi	@ tmp178, length
 730 0064 B632CDE1 		strh	r3, [sp, #38]	@ movhi	@ tmp178, read_length
ARM GAS  /tmp/ccX0J2UF.s 			page 22


 731              	.L42:
 732              	.LBB7:
 427:sd_raw.cpp    **** 
 428:sd_raw.cpp    ****         #if !SD_RAW_SAVE_RAM
 429:sd_raw.cpp    ****             /* check if the requested data is cached */
 430:sd_raw.cpp    ****             if(block_address != raw_block_address)
 733              		.loc 1 430 0
 734 0068 04329FE5 		ldr	r3, .L53	@ tmp179,
 735 006c 003093E5 		ldr	r3, [r3, #0]	@ raw_block_address.20, raw_block_address
 736 0070 18209DE5 		ldr	r2, [sp, #24]	@ tmp180, block_address
 737 0074 030052E1 		cmp	r2, r3	@ tmp180, raw_block_address.20
 738 0078 6100000A 		beq	.L43	@,
 739              	.LBB8:
 431:sd_raw.cpp    ****             #endif
 432:sd_raw.cpp    ****         {
 433:sd_raw.cpp    ****             #if SD_RAW_WRITE_BUFFERING
 434:sd_raw.cpp    ****                 if(!raw_block_written)
 740              		.loc 1 434 0
 741 007c F4319FE5 		ldr	r3, .L53+4	@ tmp181,
 742 0080 0030D3E5 		ldrb	r3, [r3, #0]	@ zero_extendqisi2	@ raw_block_written.21, raw_block_written
 743 0084 000053E3 		cmp	r3, #0	@ raw_block_written.21,
 744 0088 0E00001A 		bne	.L44	@,
 435:sd_raw.cpp    ****                 {
 436:sd_raw.cpp    ****                     if(!sd_raw_write(raw_block_address, raw_block, sizeof(raw_block)))
 745              		.loc 1 436 0
 746 008c E0319FE5 		ldr	r3, .L53	@ tmp182,
 747 0090 003093E5 		ldr	r3, [r3, #0]	@ raw_block_address.23, raw_block_address
 748 0094 0300A0E1 		mov	r0, r3	@, raw_block_address.23
 749 0098 DC119FE5 		ldr	r1, .L53+8	@,
 750 009c 022CA0E3 		mov	r2, #512	@,
 751 00a0 FEFFFFEB 		bl	_Z12sd_raw_writejPKht	@
 752 00a4 0030A0E1 		mov	r3, r0	@ tmp183,
 753 00a8 000053E3 		cmp	r3, #0	@ D.10727,
 754 00ac 0030A013 		movne	r3, #0	@, tmp185
 755 00b0 0130A003 		moveq	r3, #1	@, tmp185
 756 00b4 FF3003E2 		and	r3, r3, #255	@ retval.22, tmp184,
 757 00b8 000053E3 		cmp	r3, #0	@ retval.22,
 758 00bc 0100000A 		beq	.L44	@,
 437:sd_raw.cpp    ****                         return 0;
 759              		.loc 1 437 0
 760 00c0 0030A0E3 		mov	r3, #0	@ D.10730,
 761 00c4 660000EA 		b	.L45	@
 762              	.L44:
 438:sd_raw.cpp    ****                 }
 439:sd_raw.cpp    ****             #endif
 440:sd_raw.cpp    **** 
 441:sd_raw.cpp    ****             /* address card */
 442:sd_raw.cpp    ****             select_card();
 763              		.loc 1 442 0
 764 00c8 B0319FE5 		ldr	r3, .L53+12	@ D.10732,
 765 00cc AC219FE5 		ldr	r2, .L53+12	@ D.10733,
 766 00d0 002092E5 		ldr	r2, [r2, #0]	@ D.10734,* D.10733
 767 00d4 012682E3 		orr	r2, r2, #1048576	@ D.10735, D.10734,
 768 00d8 002083E5 		str	r2, [r3, #0]	@ D.10735,* D.10732
 443:sd_raw.cpp    **** 
 444:sd_raw.cpp    ****             /* send single block request */
 445:sd_raw.cpp    ****             if(sd_raw_send_command_r1(CMD_READ_SINGLE_BLOCK, block_address))
ARM GAS  /tmp/ccX0J2UF.s 			page 23


 769              		.loc 1 445 0
 770 00dc 1100A0E3 		mov	r0, #17	@,
 771 00e0 18109DE5 		ldr	r1, [sp, #24]	@, block_address
 772 00e4 FEFFFFEB 		bl	_ZL22sd_raw_send_command_r1hj	@
 773 00e8 0030A0E1 		mov	r3, r0	@ tmp186,
 774 00ec 000053E3 		cmp	r3, #0	@ D.10737,
 775 00f0 0030A003 		moveq	r3, #0	@, tmp188
 776 00f4 0130A013 		movne	r3, #1	@, tmp188
 777 00f8 FF3003E2 		and	r3, r3, #255	@ retval.24, tmp187,
 778 00fc 000053E3 		cmp	r3, #0	@ retval.24,
 779 0100 0600000A 		beq	.L52	@,
 446:sd_raw.cpp    ****             {
 447:sd_raw.cpp    ****                 unselect_card();
 780              		.loc 1 447 0
 781 0104 78319FE5 		ldr	r3, .L53+16	@ D.10740,
 782 0108 74219FE5 		ldr	r2, .L53+16	@ D.10741,
 783 010c 002092E5 		ldr	r2, [r2, #0]	@ D.10742,* D.10741
 784 0110 012682E3 		orr	r2, r2, #1048576	@ D.10743, D.10742,
 785 0114 002083E5 		str	r2, [r3, #0]	@ D.10743,* D.10740
 448:sd_raw.cpp    ****                 return 0;
 786              		.loc 1 448 0
 787 0118 0030A0E3 		mov	r3, #0	@ D.10730,
 788 011c 500000EA 		b	.L45	@
 789              	.L52:
 449:sd_raw.cpp    ****             }
 450:sd_raw.cpp    **** 
 451:sd_raw.cpp    ****             /* wait for data block (start byte 0xfe) */
 452:sd_raw.cpp    ****             while(sd_raw_rec_byte() != 0xfe);
 790              		.loc 1 452 0
 791 0120 0000A0E1 		mov	r0, r0	@ nop
 792              	.L47:
 793              		.loc 1 452 0 is_stmt 0 discriminator 1
 794 0124 FEFFFFEB 		bl	_ZL15sd_raw_rec_bytev	@
 795 0128 0030A0E1 		mov	r3, r0	@ tmp189,
 796 012c FE0053E3 		cmp	r3, #254	@ D.10748,
 797 0130 0030A003 		moveq	r3, #0	@, tmp191
 798 0134 0130A013 		movne	r3, #1	@, tmp191
 799 0138 FF3003E2 		and	r3, r3, #255	@ retval.25, tmp190,
 800 013c 000053E3 		cmp	r3, #0	@ retval.25,
 801 0140 F7FFFF1A 		bne	.L47	@,
 453:sd_raw.cpp    **** 
 454:sd_raw.cpp    ****             #if SD_RAW_SAVE_RAM
 455:sd_raw.cpp    ****                 /* read byte block */
 456:sd_raw.cpp    ****                 unsigned short read_to = block_offset + read_length;
 457:sd_raw.cpp    ****                 for(unsigned short i = 0; i < 512; ++i)
 458:sd_raw.cpp    ****                 {
 459:sd_raw.cpp    ****                     unsigned char b = sd_raw_rec_byte();
 460:sd_raw.cpp    ****                     if(i >= block_offset && i < read_to)
 461:sd_raw.cpp    ****                         *buffer++ = b;
 462:sd_raw.cpp    ****                 }
 463:sd_raw.cpp    ****             #else
 464:sd_raw.cpp    ****                 /* read byte block */
 465:sd_raw.cpp    ****                 unsigned char* cache = raw_block;
 802              		.loc 1 465 0 is_stmt 1
 803 0144 30319FE5 		ldr	r3, .L53+8	@ tmp192,
 804 0148 20308DE5 		str	r3, [sp, #32]	@ tmp192, cache
 466:sd_raw.cpp    ****                 unsigned short i;
ARM GAS  /tmp/ccX0J2UF.s 			page 24


 467:sd_raw.cpp    ****                 for(i = 0; i < 512; ++i)
 805              		.loc 1 467 0
 806 014c 0030A0E3 		mov	r3, #0	@ tmp194,
 807 0150 BE31CDE1 		strh	r3, [sp, #30]	@ movhi	@ tmp193, i
 808 0154 0A0000EA 		b	.L48	@
 809              	.L49:
 468:sd_raw.cpp    ****                     *cache++ = sd_raw_rec_byte();
 810              		.loc 1 468 0 discriminator 2
 811 0158 FEFFFFEB 		bl	_ZL15sd_raw_rec_bytev	@
 812 015c 0030A0E1 		mov	r3, r0	@ tmp195,
 813 0160 0320A0E1 		mov	r2, r3	@ D.10754, tmp195
 814 0164 20309DE5 		ldr	r3, [sp, #32]	@ tmp196, cache
 815 0168 0020C3E5 		strb	r2, [r3, #0]	@ tmp197,
 816 016c 20309DE5 		ldr	r3, [sp, #32]	@ tmp198, cache
 817 0170 013083E2 		add	r3, r3, #1	@ tmp199, tmp198,
 818 0174 20308DE5 		str	r3, [sp, #32]	@ tmp199, cache
 467:sd_raw.cpp    ****                 for(i = 0; i < 512; ++i)
 819              		.loc 1 467 0 discriminator 2
 820 0178 BE31DDE1 		ldrh	r3, [sp, #30]	@ movhi	@ tmp200, i
 821 017c 013083E2 		add	r3, r3, #1	@ tmp201, tmp200,
 822 0180 BE31CDE1 		strh	r3, [sp, #30]	@ movhi	@ tmp201, i
 823              	.L48:
 467:sd_raw.cpp    ****                 for(i = 0; i < 512; ++i)
 824              		.loc 1 467 0 is_stmt 0 discriminator 1
 825 0184 BE21DDE1 		ldrh	r2, [sp, #30]	@ tmp203, i
 826 0188 F8309FE5 		ldr	r3, .L53+20	@ tmp205,
 827 018c 030052E1 		cmp	r2, r3	@ tmp203, tmp205
 828 0190 0030A083 		movhi	r3, #0	@, tmp204
 829 0194 0130A093 		movls	r3, #1	@, tmp204
 830 0198 FF3003E2 		and	r3, r3, #255	@ D.10752, tmp202,
 831 019c 000053E3 		cmp	r3, #0	@ D.10752,
 832 01a0 ECFFFF1A 		bne	.L49	@,
 469:sd_raw.cpp    ****                 raw_block_address = block_address;
 833              		.loc 1 469 0 is_stmt 1
 834 01a4 C8309FE5 		ldr	r3, .L53	@ tmp206,
 835 01a8 18209DE5 		ldr	r2, [sp, #24]	@ tmp207, block_address
 836 01ac 002083E5 		str	r2, [r3, #0]	@ tmp207, raw_block_address
 470:sd_raw.cpp    ****     
 471:sd_raw.cpp    ****                 memcpy(buffer, raw_block + block_offset, read_length);
 837              		.loc 1 471 0
 838 01b0 B621DDE1 		ldrh	r2, [sp, #22]	@ D.10755, block_offset
 839 01b4 C0309FE5 		ldr	r3, .L53+8	@ tmp208,
 840 01b8 032082E0 		add	r2, r2, r3	@ D.10756, D.10755, tmp208
 841 01bc B632DDE1 		ldrh	r3, [sp, #38]	@ D.10757, read_length
 842 01c0 08009DE5 		ldr	r0, [sp, #8]	@, buffer
 843 01c4 0210A0E1 		mov	r1, r2	@, D.10756
 844 01c8 0320A0E1 		mov	r2, r3	@, D.10757
 845 01cc FEFFFFEB 		bl	memcpy	@
 472:sd_raw.cpp    ****                 buffer += read_length;
 846              		.loc 1 472 0
 847 01d0 B632DDE1 		ldrh	r3, [sp, #38]	@ D.10758, read_length
 848 01d4 08209DE5 		ldr	r2, [sp, #8]	@ tmp209, buffer
 849 01d8 033082E0 		add	r3, r2, r3	@ tmp210, tmp209, D.10758
 850 01dc 08308DE5 		str	r3, [sp, #8]	@ tmp210, buffer
 473:sd_raw.cpp    ****             #endif
 474:sd_raw.cpp    **** 
 475:sd_raw.cpp    ****             /* read crc16 */
ARM GAS  /tmp/ccX0J2UF.s 			page 25


 476:sd_raw.cpp    ****             sd_raw_rec_byte();
 851              		.loc 1 476 0
 852 01e0 FEFFFFEB 		bl	_ZL15sd_raw_rec_bytev	@
 477:sd_raw.cpp    ****             sd_raw_rec_byte();
 853              		.loc 1 477 0
 854 01e4 FEFFFFEB 		bl	_ZL15sd_raw_rec_bytev	@
 478:sd_raw.cpp    **** 
 479:sd_raw.cpp    ****             /* deaddress card */
 480:sd_raw.cpp    ****             unselect_card();
 855              		.loc 1 480 0
 856 01e8 94309FE5 		ldr	r3, .L53+16	@ D.10759,
 857 01ec 90209FE5 		ldr	r2, .L53+16	@ D.10760,
 858 01f0 002092E5 		ldr	r2, [r2, #0]	@ D.10761,* D.10760
 859 01f4 012682E3 		orr	r2, r2, #1048576	@ D.10762, D.10761,
 860 01f8 002083E5 		str	r2, [r3, #0]	@ D.10762,* D.10759
 481:sd_raw.cpp    **** 
 482:sd_raw.cpp    ****             /* let card some time to finish */
 483:sd_raw.cpp    ****             sd_raw_rec_byte();
 861              		.loc 1 483 0
 862 01fc FEFFFFEB 		bl	_ZL15sd_raw_rec_bytev	@
 863 0200 070000EA 		b	.L50	@
 864              	.L43:
 865              	.LBE8:
 484:sd_raw.cpp    ****         }
 485:sd_raw.cpp    ****         #if !SD_RAW_SAVE_RAM
 486:sd_raw.cpp    ****             else
 487:sd_raw.cpp    ****             {
 488:sd_raw.cpp    ****                 /* use cached data */
 489:sd_raw.cpp    ****                 memcpy(buffer, raw_block + block_offset, read_length);
 866              		.loc 1 489 0
 867 0204 B621DDE1 		ldrh	r2, [sp, #22]	@ D.10764, block_offset
 868 0208 6C309FE5 		ldr	r3, .L53+8	@ tmp211,
 869 020c 032082E0 		add	r2, r2, r3	@ D.10765, D.10764, tmp211
 870 0210 B632DDE1 		ldrh	r3, [sp, #38]	@ D.10766, read_length
 871 0214 08009DE5 		ldr	r0, [sp, #8]	@, buffer
 872 0218 0210A0E1 		mov	r1, r2	@, D.10765
 873 021c 0320A0E1 		mov	r2, r3	@, D.10766
 874 0220 FEFFFFEB 		bl	memcpy	@
 875              	.L50:
 876              	.LBE7:
 490:sd_raw.cpp    ****             }
 491:sd_raw.cpp    ****         #endif
 492:sd_raw.cpp    **** 
 493:sd_raw.cpp    ****         length -= read_length;
 877              		.loc 1 493 0
 878 0224 B620DDE1 		ldrh	r2, [sp, #6]	@ movhi	@ tmp212, length
 879 0228 B632DDE1 		ldrh	r3, [sp, #38]	@ movhi	@ tmp213, read_length
 880 022c 023063E0 		rsb	r3, r3, r2	@ tmp214, tmp213, tmp212
 881 0230 B630CDE1 		strh	r3, [sp, #6]	@ movhi	@ tmp214, length
 494:sd_raw.cpp    ****         offset += read_length;
 882              		.loc 1 494 0
 883 0234 B632DDE1 		ldrh	r3, [sp, #38]	@ D.10767, read_length
 884 0238 0C209DE5 		ldr	r2, [sp, #12]	@ tmp215, offset
 885 023c 033082E0 		add	r3, r2, r3	@ tmp216, tmp215, D.10767
 886 0240 0C308DE5 		str	r3, [sp, #12]	@ tmp216, offset
 887              	.L41:
 888              	.LBE6:
ARM GAS  /tmp/ccX0J2UF.s 			page 26


 419:sd_raw.cpp    ****     while(length > 0)
 889              		.loc 1 419 0 discriminator 1
 890 0244 B630DDE1 		ldrh	r3, [sp, #6]	@ tmp218, length
 891 0248 000053E3 		cmp	r3, #0	@ tmp218,
 892 024c 0030A003 		moveq	r3, #0	@, tmp219
 893 0250 0130A013 		movne	r3, #1	@, tmp219
 894 0254 FF3003E2 		and	r3, r3, #255	@ D.10714, tmp217,
 895 0258 000053E3 		cmp	r3, #0	@ D.10714,
 896 025c 6EFFFF1A 		bne	.L51	@,
 495:sd_raw.cpp    ****     }
 496:sd_raw.cpp    **** 
 497:sd_raw.cpp    ****     return 1;
 897              		.loc 1 497 0
 898 0260 0130A0E3 		mov	r3, #1	@ D.10730,
 899              	.L45:
 900              	.LBE5:
 498:sd_raw.cpp    **** }
 901              		.loc 1 498 0
 902 0264 0300A0E1 		mov	r0, r3	@, <retval>
 903 0268 2CD08DE2 		add	sp, sp, #44	@,,
 904 026c 04E09DE4 		ldr	lr, [sp], #4
 905 0270 1EFF2FE1 		bx	lr
 906              	.L54:
 907              		.align	2
 908              	.L53:
 909 0274 00020000 		.word	_ZL17raw_block_address
 910 0278 04020000 		.word	_ZL17raw_block_written
 911 027c 00000000 		.word	_ZL9raw_block
 912 0280 1CC0FF3F 		.word	1073725468
 913 0284 18C0FF3F 		.word	1073725464
 914 0288 FF010000 		.word	511
 915              		.cfi_endproc
 916              	.LFE115:
 917              		.size	_Z11sd_raw_readjPht, .-_Z11sd_raw_readjPht
 918              		.section	.text._Z20sd_raw_read_intervaljPhttPFhS_jPvES0_,"ax",%progbits
 919              		.align	2
 920              		.global	_Z20sd_raw_read_intervaljPhttPFhS_jPvES0_
 921              		.type	_Z20sd_raw_read_intervaljPhttPFhS_jPvES0_, %function
 922              	_Z20sd_raw_read_intervaljPhttPFhS_jPvES0_:
 923              	.LFB116:
 499:sd_raw.cpp    **** 
 500:sd_raw.cpp    **** /**
 501:sd_raw.cpp    ****  * \ingroup sd_raw
 502:sd_raw.cpp    ****  * Continuously reads units of \c interval bytes and calls a callback function.
 503:sd_raw.cpp    ****  *
 504:sd_raw.cpp    ****  * This function starts reading at the specified offset. Every \c interval bytes,
 505:sd_raw.cpp    ****  * it calls the callback function with the associated data buffer.
 506:sd_raw.cpp    ****  *
 507:sd_raw.cpp    ****  * By returning zero, the callback may stop reading.
 508:sd_raw.cpp    ****  *
 509:sd_raw.cpp    ****  * \note Within the callback function, you can not start another read or
 510:sd_raw.cpp    ****  *       write operation.
 511:sd_raw.cpp    ****  * \note This function only works if the following conditions are met:
 512:sd_raw.cpp    ****  *       - (offset - (offset % 512)) % interval == 0
 513:sd_raw.cpp    ****  *       - length % interval == 0
 514:sd_raw.cpp    ****  *
 515:sd_raw.cpp    ****  * \param[in] offset Offset from which to start reading.
ARM GAS  /tmp/ccX0J2UF.s 			page 27


 516:sd_raw.cpp    ****  * \param[in] buffer Pointer to a buffer which is at least interval bytes in size.
 517:sd_raw.cpp    ****  * \param[in] interval Number of bytes to read before calling the callback function.
 518:sd_raw.cpp    ****  * \param[in] length Number of bytes to read altogether.
 519:sd_raw.cpp    ****  * \param[in] callback The function to call every interval bytes.
 520:sd_raw.cpp    ****  * \param[in] p An opaque pointer directly passed to the callback function.
 521:sd_raw.cpp    ****  * \returns 0 on failure, 1 on success
 522:sd_raw.cpp    ****  * \see sd_raw_read, sd_raw_write
 523:sd_raw.cpp    ****  */
 524:sd_raw.cpp    **** unsigned char sd_raw_read_interval(unsigned int offset, unsigned char* buffer, unsigned short inter
 525:sd_raw.cpp    **** {
 924              		.loc 1 525 0
 925              		.cfi_startproc
 926              		@ Function supports interworking.
 927              		@ args = 8, pretend = 0, frame = 16
 928              		@ frame_needed = 0, uses_anonymous_args = 0
 929 0000 04E02DE5 		str	lr, [sp, #-4]!	@,
 930              	.LCFI8:
 931              		.cfi_def_cfa_offset 4
 932 0004 14D04DE2 		sub	sp, sp, #20	@,,
 933              	.LCFI9:
 934              		.cfi_def_cfa_offset 24
 935 0008 0C008DE5 		str	r0, [sp, #12]	@ offset, offset
 936 000c 08108DE5 		str	r1, [sp, #8]	@ buffer, buffer
 937 0010 B620CDE1 		strh	r2, [sp, #6]	@ movhi	@ tmp141, interval
 938 0014 B430CDE1 		strh	r3, [sp, #4]	@ movhi	@ tmp142, length
 526:sd_raw.cpp    ****     if(!buffer || interval == 0 || length < interval || !callback)
 939              		.loc 1 526 0
 940 0018 08309DE5 		ldr	r3, [sp, #8]	@ tmp143, buffer
 941 001c 000053E3 		cmp	r3, #0	@ tmp143,
 942 0020 0900000A 		beq	.L56	@,
 943              		.cfi_offset 14, -4
 944              		.loc 1 526 0 is_stmt 0 discriminator 1
 945 0024 B630DDE1 		ldrh	r3, [sp, #6]	@ tmp144, interval
 946 0028 000053E3 		cmp	r3, #0	@ tmp144,
 947 002c 0600000A 		beq	.L56	@,
 948              		.loc 1 526 0 discriminator 2
 949 0030 B420DDE1 		ldrh	r2, [sp, #4]	@ tmp145, length
 950 0034 B630DDE1 		ldrh	r3, [sp, #6]	@ tmp146, interval
 951 0038 030052E1 		cmp	r2, r3	@ tmp145, tmp146
 952 003c 0200003A 		bcc	.L56	@,
 953              		.loc 1 526 0 discriminator 3
 954 0040 18309DE5 		ldr	r3, [sp, #24]	@ tmp147, callback
 955 0044 000053E3 		cmp	r3, #0	@ tmp147,
 956 0048 2400001A 		bne	.L59	@,
 957              	.L56:
 527:sd_raw.cpp    ****         return 0;
 958              		.loc 1 527 0 is_stmt 1
 959 004c 0030A0E3 		mov	r3, #0	@ D.10696,
 960 0050 2D0000EA 		b	.L58	@
 961              	.L63:
 528:sd_raw.cpp    **** 
 529:sd_raw.cpp    ****     #if !SD_RAW_SAVE_RAM
 530:sd_raw.cpp    ****         while(length >= interval)
 531:sd_raw.cpp    ****         {
 532:sd_raw.cpp    ****             /* as reading is now buffered, we directly
 533:sd_raw.cpp    ****                      * hand over the request to sd_raw_read()
 534:sd_raw.cpp    ****                      */
ARM GAS  /tmp/ccX0J2UF.s 			page 28


 535:sd_raw.cpp    ****             if(!sd_raw_read(offset, buffer, interval))
 962              		.loc 1 535 0
 963 0054 B630DDE1 		ldrh	r3, [sp, #6]	@ tmp148, interval
 964 0058 0C009DE5 		ldr	r0, [sp, #12]	@, offset
 965 005c 08109DE5 		ldr	r1, [sp, #8]	@, buffer
 966 0060 0320A0E1 		mov	r2, r3	@, tmp148
 967 0064 FEFFFFEB 		bl	_Z11sd_raw_readjPht	@
 968 0068 0030A0E1 		mov	r3, r0	@ tmp149,
 969 006c 000053E3 		cmp	r3, #0	@ D.10702,
 970 0070 0030A013 		movne	r3, #0	@, tmp151
 971 0074 0130A003 		moveq	r3, #1	@, tmp151
 972 0078 FF3003E2 		and	r3, r3, #255	@ retval.18, tmp150,
 973 007c 000053E3 		cmp	r3, #0	@ retval.18,
 974 0080 0100000A 		beq	.L60	@,
 536:sd_raw.cpp    ****                 return 0;
 975              		.loc 1 536 0
 976 0084 0030A0E3 		mov	r3, #0	@ D.10696,
 977 0088 1F0000EA 		b	.L58	@
 978              	.L60:
 537:sd_raw.cpp    ****             if(!callback(buffer, offset, p))
 979              		.loc 1 537 0
 980 008c 18309DE5 		ldr	r3, [sp, #24]	@ tmp152, callback
 981 0090 08009DE5 		ldr	r0, [sp, #8]	@, buffer
 982 0094 0C109DE5 		ldr	r1, [sp, #12]	@, offset
 983 0098 1C209DE5 		ldr	r2, [sp, #28]	@, p
 984 009c 0FE0A0E1 		mov	lr, pc
 985 00a0 13FF2FE1 		bx	r3	@ tmp152
 986 00a4 0030A0E1 		mov	r3, r0	@ tmp153,
 987 00a8 000053E3 		cmp	r3, #0	@ D.10706,
 988 00ac 0030A013 		movne	r3, #0	@, tmp155
 989 00b0 0130A003 		moveq	r3, #1	@, tmp155
 990 00b4 FF3003E2 		and	r3, r3, #255	@ retval.19, tmp154,
 991 00b8 000053E3 		cmp	r3, #0	@ retval.19,
 992 00bc 1000001A 		bne	.L64	@,
 993              	.L61:
 538:sd_raw.cpp    ****                 break;
 539:sd_raw.cpp    ****             offset += interval;
 994              		.loc 1 539 0
 995 00c0 B630DDE1 		ldrh	r3, [sp, #6]	@ D.10709, interval
 996 00c4 0C209DE5 		ldr	r2, [sp, #12]	@ tmp156, offset
 997 00c8 033082E0 		add	r3, r2, r3	@ tmp157, tmp156, D.10709
 998 00cc 0C308DE5 		str	r3, [sp, #12]	@ tmp157, offset
 540:sd_raw.cpp    ****             length -= interval;
 999              		.loc 1 540 0
 1000 00d0 B420DDE1 		ldrh	r2, [sp, #4]	@ movhi	@ tmp158, length
 1001 00d4 B630DDE1 		ldrh	r3, [sp, #6]	@ movhi	@ tmp159, interval
 1002 00d8 023063E0 		rsb	r3, r3, r2	@ tmp160, tmp159, tmp158
 1003 00dc B430CDE1 		strh	r3, [sp, #4]	@ movhi	@ tmp160, length
 1004              	.L59:
 530:sd_raw.cpp    ****         while(length >= interval)
 1005              		.loc 1 530 0 discriminator 1
 1006 00e0 B420DDE1 		ldrh	r2, [sp, #4]	@ tmp162, length
 1007 00e4 B630DDE1 		ldrh	r3, [sp, #6]	@ tmp163, interval
 1008 00e8 030052E1 		cmp	r2, r3	@ tmp162, tmp163
 1009 00ec 0030A033 		movcc	r3, #0	@, tmp164
 1010 00f0 0130A023 		movcs	r3, #1	@, tmp164
 1011 00f4 FF3003E2 		and	r3, r3, #255	@ D.10700, tmp161,
ARM GAS  /tmp/ccX0J2UF.s 			page 29


 1012 00f8 000053E3 		cmp	r3, #0	@ D.10700,
 1013 00fc D4FFFF1A 		bne	.L63	@,
 1014 0100 000000EA 		b	.L62	@
 1015              	.L64:
 538:sd_raw.cpp    ****                 break;
 1016              		.loc 1 538 0
 1017 0104 0000A0E1 		mov	r0, r0	@ nop
 1018              	.L62:
 541:sd_raw.cpp    ****         }
 542:sd_raw.cpp    ****     
 543:sd_raw.cpp    ****         return 1;
 1019              		.loc 1 543 0
 1020 0108 0130A0E3 		mov	r3, #1	@ D.10696,
 1021              	.L58:
 544:sd_raw.cpp    ****     #else
 545:sd_raw.cpp    ****         /* address card */
 546:sd_raw.cpp    ****         select_card();
 547:sd_raw.cpp    ****     
 548:sd_raw.cpp    ****         unsigned short block_offset;
 549:sd_raw.cpp    ****         unsigned short read_length;
 550:sd_raw.cpp    ****         unsigned char* buffer_cur;
 551:sd_raw.cpp    ****         unsigned char finished = 0;
 552:sd_raw.cpp    ****         do
 553:sd_raw.cpp    ****         {
 554:sd_raw.cpp    ****             /* determine byte count to read at once */
 555:sd_raw.cpp    ****             block_offset = offset & 0x01ff;
 556:sd_raw.cpp    ****             read_length = 512 - block_offset;
 557:sd_raw.cpp    ****     
 558:sd_raw.cpp    ****             /* send single block request */
 559:sd_raw.cpp    ****             if(sd_raw_send_command_r1(CMD_READ_SINGLE_BLOCK, offset & 0xfffffe00))
 560:sd_raw.cpp    ****             {
 561:sd_raw.cpp    ****                 unselect_card();
 562:sd_raw.cpp    ****                 return 0;
 563:sd_raw.cpp    ****             }
 564:sd_raw.cpp    ****     
 565:sd_raw.cpp    ****             /* wait for data block (start byte 0xfe) */
 566:sd_raw.cpp    ****             while(sd_raw_rec_byte() != 0xfe);
 567:sd_raw.cpp    ****             unsigned short i;
 568:sd_raw.cpp    ****             /* read up to the data of interest */
 569:sd_raw.cpp    ****             for(i = 0; i < block_offset; ++i)
 570:sd_raw.cpp    ****                 sd_raw_rec_byte();
 571:sd_raw.cpp    ****     
 572:sd_raw.cpp    ****             /* read interval bytes of data and execute the callback */
 573:sd_raw.cpp    ****             do
 574:sd_raw.cpp    ****             {
 575:sd_raw.cpp    ****                 if(read_length < interval || length < interval)
 576:sd_raw.cpp    ****                     break;
 577:sd_raw.cpp    ****     
 578:sd_raw.cpp    ****                 buffer_cur = buffer;
 579:sd_raw.cpp    ****                 for(i = 0; i < interval; ++i)
 580:sd_raw.cpp    ****                     *buffer_cur++ = sd_raw_rec_byte();
 581:sd_raw.cpp    ****     
 582:sd_raw.cpp    ****                 if(!callback(buffer, offset + (512 - read_length), p))
 583:sd_raw.cpp    ****                 {
 584:sd_raw.cpp    ****                     finished = 1;
 585:sd_raw.cpp    ****                     break;
 586:sd_raw.cpp    ****                 }
ARM GAS  /tmp/ccX0J2UF.s 			page 30


 587:sd_raw.cpp    ****     
 588:sd_raw.cpp    ****                 read_length -= interval;
 589:sd_raw.cpp    ****                 length -= interval;
 590:sd_raw.cpp    ****     
 591:sd_raw.cpp    ****             }
 592:sd_raw.cpp    ****             while(read_length > 0 && length > 0);
 593:sd_raw.cpp    ****     
 594:sd_raw.cpp    ****             /* read rest of data block */
 595:sd_raw.cpp    ****             while(read_length-- > 0)
 596:sd_raw.cpp    ****                 sd_raw_rec_byte();
 597:sd_raw.cpp    ****     
 598:sd_raw.cpp    ****             /* read crc16 */
 599:sd_raw.cpp    ****             sd_raw_rec_byte();
 600:sd_raw.cpp    ****             sd_raw_rec_byte();
 601:sd_raw.cpp    ****     
 602:sd_raw.cpp    ****             if(length < interval)
 603:sd_raw.cpp    ****                 break;
 604:sd_raw.cpp    ****     
 605:sd_raw.cpp    ****             offset = (offset & 0xfffffe00) + 512;
 606:sd_raw.cpp    ****     
 607:sd_raw.cpp    ****         }
 608:sd_raw.cpp    ****         while(!finished);
 609:sd_raw.cpp    ****     
 610:sd_raw.cpp    ****         /* deaddress card */
 611:sd_raw.cpp    ****         unselect_card();
 612:sd_raw.cpp    ****     
 613:sd_raw.cpp    ****         /* let card some time to finish */
 614:sd_raw.cpp    ****         sd_raw_rec_byte();
 615:sd_raw.cpp    ****     
 616:sd_raw.cpp    ****         return 1;
 617:sd_raw.cpp    ****     #endif
 618:sd_raw.cpp    **** }
 1022              		.loc 1 618 0
 1023 010c 0300A0E1 		mov	r0, r3	@, <retval>
 1024 0110 14D08DE2 		add	sp, sp, #20	@,,
 1025 0114 04E09DE4 		ldr	lr, [sp], #4
 1026 0118 1EFF2FE1 		bx	lr
 1027              		.cfi_endproc
 1028              	.LFE116:
 1029              		.size	_Z20sd_raw_read_intervaljPhttPFhS_jPvES0_, .-_Z20sd_raw_read_intervaljPhttPFhS_jPvES0_
 1030              		.section	.text._Z12sd_raw_writejPKht,"ax",%progbits
 1031              		.align	2
 1032              		.global	_Z12sd_raw_writejPKht
 1033              		.type	_Z12sd_raw_writejPKht, %function
 1034              	_Z12sd_raw_writejPKht:
 1035              	.LFB117:
 619:sd_raw.cpp    **** 
 620:sd_raw.cpp    **** /**
 621:sd_raw.cpp    ****  * \ingroup sd_raw
 622:sd_raw.cpp    ****  * Writes raw data to the card.
 623:sd_raw.cpp    ****  *
 624:sd_raw.cpp    ****  * \note If write buffering is enabled, you might have to
 625:sd_raw.cpp    ****  *       call sd_raw_sync() before disconnecting the card
 626:sd_raw.cpp    ****  *       to ensure all remaining data has been written.
 627:sd_raw.cpp    ****  *
 628:sd_raw.cpp    ****  * \param[in] offset The offset where to start writing.
 629:sd_raw.cpp    ****  * \param[in] buffer The buffer containing the data to be written.
ARM GAS  /tmp/ccX0J2UF.s 			page 31


 630:sd_raw.cpp    ****  * \param[in] length The number of bytes to write.
 631:sd_raw.cpp    ****  * \returns 0 on failure, 1 on success.
 632:sd_raw.cpp    ****  * \see sd_raw_read
 633:sd_raw.cpp    ****  */
 634:sd_raw.cpp    **** unsigned char sd_raw_write(unsigned int offset, const unsigned char* buffer, unsigned short length)
 635:sd_raw.cpp    **** {
 1036              		.loc 1 635 0
 1037              		.cfi_startproc
 1038              		@ Function supports interworking.
 1039              		@ args = 0, pretend = 0, frame = 40
 1040              		@ frame_needed = 0, uses_anonymous_args = 0
 1041 0000 04E02DE5 		str	lr, [sp, #-4]!	@,
 1042              	.LCFI10:
 1043              		.cfi_def_cfa_offset 4
 1044 0004 2CD04DE2 		sub	sp, sp, #44	@,,
 1045              	.LCFI11:
 1046              		.cfi_def_cfa_offset 48
 1047 0008 0C008DE5 		str	r0, [sp, #12]	@ offset, offset
 1048 000c 08108DE5 		str	r1, [sp, #8]	@ buffer, buffer
 1049 0010 0230A0E1 		mov	r3, r2	@ tmp167, length
 1050 0014 B630CDE1 		strh	r3, [sp, #6]	@ movhi	@ tmp167, length
 1051              	.LBB9:
 636:sd_raw.cpp    ****     #if SD_RAW_WRITE_SUPPORT
 637:sd_raw.cpp    ****     
 638:sd_raw.cpp    ****         if(get_pin_locked())
 639:sd_raw.cpp    ****             return 0;
 640:sd_raw.cpp    ****     
 641:sd_raw.cpp    ****         unsigned int block_address;
 642:sd_raw.cpp    ****         unsigned short block_offset;
 643:sd_raw.cpp    ****         unsigned short write_length;
 644:sd_raw.cpp    ****         while(length > 0)
 1052              		.loc 1 644 0
 1053 0018 A70000EA 		b	.L66	@
 1054              		.cfi_offset 14, -4
 1055              	.L78:
 1056              	.LBB10:
 645:sd_raw.cpp    ****         {
 646:sd_raw.cpp    ****             /* determine byte count to write at once */
 647:sd_raw.cpp    ****             block_address = offset & 0xfffffe00;
 1057              		.loc 1 647 0
 1058 001c 0C309DE5 		ldr	r3, [sp, #12]	@ tmp168, offset
 1059 0020 7F3FC3E3 		bic	r3, r3, #508	@ tmp169, tmp168,
 1060 0024 0330C3E3 		bic	r3, r3, #3	@ tmp169, tmp169,
 1061 0028 18308DE5 		str	r3, [sp, #24]	@ tmp169, block_address
 648:sd_raw.cpp    ****             block_offset = offset & 0x01ff;
 1062              		.loc 1 648 0
 1063 002c 0C309DE5 		ldr	r3, [sp, #12]	@ tmp170, offset
 1064 0030 0338A0E1 		mov	r3, r3, asl #16	@ tmp171, tmp170,
 1065 0034 2338A0E1 		mov	r3, r3, lsr #16	@ D.10629, tmp171,
 1066 0038 833BA0E1 		mov	r3, r3, asl #23	@ tmp172, D.10629,
 1067 003c A33BA0E1 		mov	r3, r3, lsr #23	@ tmp172, tmp172,
 1068 0040 B631CDE1 		strh	r3, [sp, #22]	@ movhi	@ tmp172, block_offset
 649:sd_raw.cpp    ****             write_length = 512 - block_offset; /* write up to block border */
 1069              		.loc 1 649 0
 1070 0044 B631DDE1 		ldrh	r3, [sp, #22]	@ movhi	@ tmp173, block_offset
 1071 0048 023C63E2 		rsb	r3, r3, #512	@ tmp174, tmp173,
 1072 004c B632CDE1 		strh	r3, [sp, #38]	@ movhi	@ tmp174, write_length
ARM GAS  /tmp/ccX0J2UF.s 			page 32


 650:sd_raw.cpp    ****             if(write_length > length)
 1073              		.loc 1 650 0
 1074 0050 B622DDE1 		ldrh	r2, [sp, #38]	@ tmp175, write_length
 1075 0054 B630DDE1 		ldrh	r3, [sp, #6]	@ tmp176, length
 1076 0058 030052E1 		cmp	r2, r3	@ tmp175, tmp176
 1077 005c 0100009A 		bls	.L67	@,
 651:sd_raw.cpp    ****                 write_length = length;
 1078              		.loc 1 651 0
 1079 0060 B630DDE1 		ldrh	r3, [sp, #6]	@ movhi	@ tmp177, length
 1080 0064 B632CDE1 		strh	r3, [sp, #38]	@ movhi	@ tmp177, write_length
 1081              	.L67:
 652:sd_raw.cpp    ****     
 653:sd_raw.cpp    ****             /* Merge the data to write with the content of the block.
 654:sd_raw.cpp    ****                      * Use the cached block if available.
 655:sd_raw.cpp    ****                      */
 656:sd_raw.cpp    ****             if(block_address != raw_block_address)
 1082              		.loc 1 656 0
 1083 0068 7C329FE5 		ldr	r3, .L79	@ tmp178,
 1084 006c 003093E5 		ldr	r3, [r3, #0]	@ raw_block_address.11, raw_block_address
 1085 0070 18209DE5 		ldr	r2, [sp, #24]	@ tmp179, block_address
 1086 0074 030052E1 		cmp	r2, r3	@ tmp179, raw_block_address.11
 1087 0078 2900000A 		beq	.L68	@,
 657:sd_raw.cpp    ****             {
 658:sd_raw.cpp    ****                 #if SD_RAW_WRITE_BUFFERING
 659:sd_raw.cpp    ****                 if(!raw_block_written)
 1088              		.loc 1 659 0
 1089 007c 6C329FE5 		ldr	r3, .L79+4	@ tmp180,
 1090 0080 0030D3E5 		ldrb	r3, [r3, #0]	@ zero_extendqisi2	@ raw_block_written.12, raw_block_written
 1091 0084 000053E3 		cmp	r3, #0	@ raw_block_written.12,
 1092 0088 0E00001A 		bne	.L69	@,
 660:sd_raw.cpp    ****                 {
 661:sd_raw.cpp    ****                     if(!sd_raw_write(raw_block_address, raw_block, sizeof(raw_block)))
 1093              		.loc 1 661 0
 1094 008c 58329FE5 		ldr	r3, .L79	@ tmp181,
 1095 0090 003093E5 		ldr	r3, [r3, #0]	@ raw_block_address.14, raw_block_address
 1096 0094 0300A0E1 		mov	r0, r3	@, raw_block_address.14
 1097 0098 54129FE5 		ldr	r1, .L79+8	@,
 1098 009c 022CA0E3 		mov	r2, #512	@,
 1099 00a0 FEFFFFEB 		bl	_Z12sd_raw_writejPKht	@
 1100 00a4 0030A0E1 		mov	r3, r0	@ tmp182,
 1101 00a8 000053E3 		cmp	r3, #0	@ D.10641,
 1102 00ac 0030A013 		movne	r3, #0	@, tmp184
 1103 00b0 0130A003 		moveq	r3, #1	@, tmp184
 1104 00b4 FF3003E2 		and	r3, r3, #255	@ retval.13, tmp183,
 1105 00b8 000053E3 		cmp	r3, #0	@ retval.13,
 1106 00bc 0100000A 		beq	.L69	@,
 662:sd_raw.cpp    ****                         return 0;
 1107              		.loc 1 662 0
 1108 00c0 0030A0E3 		mov	r3, #0	@ D.10624,
 1109 00c4 840000EA 		b	.L70	@
 1110              	.L69:
 663:sd_raw.cpp    ****                 }
 664:sd_raw.cpp    ****             #endif
 665:sd_raw.cpp    **** 
 666:sd_raw.cpp    ****             if(block_offset || write_length < 512)
 1111              		.loc 1 666 0
 1112 00c8 B631DDE1 		ldrh	r3, [sp, #22]	@ tmp185, block_offset
ARM GAS  /tmp/ccX0J2UF.s 			page 33


 1113 00cc 000053E3 		cmp	r3, #0	@ tmp185,
 1114 00d0 0300001A 		bne	.L71	@,
 1115              		.loc 1 666 0 is_stmt 0 discriminator 1
 1116 00d4 B622DDE1 		ldrh	r2, [sp, #38]	@ tmp186, write_length
 1117 00d8 18329FE5 		ldr	r3, .L79+12	@ tmp187,
 1118 00dc 030052E1 		cmp	r2, r3	@ tmp186, tmp187
 1119 00e0 0C00008A 		bhi	.L72	@,
 1120              	.L71:
 667:sd_raw.cpp    ****             {
 668:sd_raw.cpp    ****                 if(!sd_raw_read(block_address, raw_block, sizeof(raw_block)))
 1121              		.loc 1 668 0 is_stmt 1
 1122 00e4 18009DE5 		ldr	r0, [sp, #24]	@, block_address
 1123 00e8 04129FE5 		ldr	r1, .L79+8	@,
 1124 00ec 022CA0E3 		mov	r2, #512	@,
 1125 00f0 FEFFFFEB 		bl	_Z11sd_raw_readjPht	@
 1126 00f4 0030A0E1 		mov	r3, r0	@ tmp188,
 1127 00f8 000053E3 		cmp	r3, #0	@ D.10649,
 1128 00fc 0030A013 		movne	r3, #0	@, tmp190
 1129 0100 0130A003 		moveq	r3, #1	@, tmp190
 1130 0104 FF3003E2 		and	r3, r3, #255	@ retval.15, tmp189,
 1131 0108 000053E3 		cmp	r3, #0	@ retval.15,
 1132 010c 0100000A 		beq	.L72	@,
 669:sd_raw.cpp    ****                     return 0;
 1133              		.loc 1 669 0
 1134 0110 0030A0E3 		mov	r3, #0	@ D.10624,
 1135 0114 700000EA 		b	.L70	@
 1136              	.L72:
 670:sd_raw.cpp    ****             }
 671:sd_raw.cpp    ****             raw_block_address = block_address;
 1137              		.loc 1 671 0
 1138 0118 CC319FE5 		ldr	r3, .L79	@ tmp191,
 1139 011c 18209DE5 		ldr	r2, [sp, #24]	@ tmp192, block_address
 1140 0120 002083E5 		str	r2, [r3, #0]	@ tmp192, raw_block_address
 1141              	.L68:
 672:sd_raw.cpp    ****         }
 673:sd_raw.cpp    **** 
 674:sd_raw.cpp    ****         if(buffer != raw_block)
 1142              		.loc 1 674 0
 1143 0124 08209DE5 		ldr	r2, [sp, #8]	@ tmp193, buffer
 1144 0128 C4319FE5 		ldr	r3, .L79+8	@ tmp194,
 1145 012c 030052E1 		cmp	r2, r3	@ tmp193, tmp194
 1146 0130 1000000A 		beq	.L73	@,
 675:sd_raw.cpp    ****         {
 676:sd_raw.cpp    ****             memcpy(raw_block + block_offset, buffer, write_length);
 1147              		.loc 1 676 0
 1148 0134 B621DDE1 		ldrh	r2, [sp, #22]	@ D.10655, block_offset
 1149 0138 B4319FE5 		ldr	r3, .L79+8	@ tmp195,
 1150 013c 032082E0 		add	r2, r2, r3	@ D.10656, D.10655, tmp195
 1151 0140 B632DDE1 		ldrh	r3, [sp, #38]	@ D.10657, write_length
 1152 0144 0200A0E1 		mov	r0, r2	@, D.10656
 1153 0148 08109DE5 		ldr	r1, [sp, #8]	@, buffer
 1154 014c 0320A0E1 		mov	r2, r3	@, D.10657
 1155 0150 FEFFFFEB 		bl	memcpy	@
 677:sd_raw.cpp    **** 
 678:sd_raw.cpp    ****             #if SD_RAW_WRITE_BUFFERING
 679:sd_raw.cpp    ****                 raw_block_written = 0;
 1156              		.loc 1 679 0
ARM GAS  /tmp/ccX0J2UF.s 			page 34


 1157 0154 94319FE5 		ldr	r3, .L79+4	@ tmp196,
 1158 0158 0020A0E3 		mov	r2, #0	@ tmp197,
 1159 015c 0020C3E5 		strb	r2, [r3, #0]	@ tmp198, raw_block_written
 680:sd_raw.cpp    ****     
 681:sd_raw.cpp    ****                 if(length == write_length)
 1160              		.loc 1 681 0
 1161 0160 B620DDE1 		ldrh	r2, [sp, #6]	@ tmp199, length
 1162 0164 B632DDE1 		ldrh	r3, [sp, #38]	@ tmp200, write_length
 1163 0168 030052E1 		cmp	r2, r3	@ tmp199, tmp200
 1164 016c 0100001A 		bne	.L73	@,
 682:sd_raw.cpp    ****                     return 1;
 1165              		.loc 1 682 0
 1166 0170 0130A0E3 		mov	r3, #1	@ D.10624,
 1167 0174 580000EA 		b	.L70	@
 1168              	.L73:
 683:sd_raw.cpp    ****             #endif
 684:sd_raw.cpp    ****         }
 685:sd_raw.cpp    **** 
 686:sd_raw.cpp    ****         buffer += write_length;
 1169              		.loc 1 686 0
 1170 0178 B632DDE1 		ldrh	r3, [sp, #38]	@ D.10661, write_length
 1171 017c 08209DE5 		ldr	r2, [sp, #8]	@ tmp201, buffer
 1172 0180 033082E0 		add	r3, r2, r3	@ tmp202, tmp201, D.10661
 1173 0184 08308DE5 		str	r3, [sp, #8]	@ tmp202, buffer
 687:sd_raw.cpp    **** 
 688:sd_raw.cpp    ****         /* address card */
 689:sd_raw.cpp    ****         select_card();
 1174              		.loc 1 689 0
 1175 0188 6C319FE5 		ldr	r3, .L79+16	@ D.10662,
 1176 018c 68219FE5 		ldr	r2, .L79+16	@ D.10663,
 1177 0190 002092E5 		ldr	r2, [r2, #0]	@ D.10664,* D.10663
 1178 0194 012682E3 		orr	r2, r2, #1048576	@ D.10665, D.10664,
 1179 0198 002083E5 		str	r2, [r3, #0]	@ D.10665,* D.10662
 690:sd_raw.cpp    **** 
 691:sd_raw.cpp    ****         /* send single block request */
 692:sd_raw.cpp    ****         if(sd_raw_send_command_r1(CMD_WRITE_SINGLE_BLOCK, block_address))
 1180              		.loc 1 692 0
 1181 019c 1800A0E3 		mov	r0, #24	@,
 1182 01a0 18109DE5 		ldr	r1, [sp, #24]	@, block_address
 1183 01a4 FEFFFFEB 		bl	_ZL22sd_raw_send_command_r1hj	@
 1184 01a8 0030A0E1 		mov	r3, r0	@ tmp203,
 1185 01ac 000053E3 		cmp	r3, #0	@ D.10667,
 1186 01b0 0030A003 		moveq	r3, #0	@, tmp205
 1187 01b4 0130A013 		movne	r3, #1	@, tmp205
 1188 01b8 FF3003E2 		and	r3, r3, #255	@ retval.16, tmp204,
 1189 01bc 000053E3 		cmp	r3, #0	@ retval.16,
 1190 01c0 0600000A 		beq	.L74	@,
 693:sd_raw.cpp    ****         {
 694:sd_raw.cpp    ****             unselect_card();
 1191              		.loc 1 694 0
 1192 01c4 34319FE5 		ldr	r3, .L79+20	@ D.10670,
 1193 01c8 30219FE5 		ldr	r2, .L79+20	@ D.10671,
 1194 01cc 002092E5 		ldr	r2, [r2, #0]	@ D.10672,* D.10671
 1195 01d0 012682E3 		orr	r2, r2, #1048576	@ D.10673, D.10672,
 1196 01d4 002083E5 		str	r2, [r3, #0]	@ D.10673,* D.10670
 695:sd_raw.cpp    ****             return 0;
 1197              		.loc 1 695 0
ARM GAS  /tmp/ccX0J2UF.s 			page 35


 1198 01d8 0030A0E3 		mov	r3, #0	@ D.10624,
 1199 01dc 3E0000EA 		b	.L70	@
 1200              	.L74:
 696:sd_raw.cpp    ****         }
 697:sd_raw.cpp    **** 
 698:sd_raw.cpp    ****         /* send start byte */
 699:sd_raw.cpp    ****         sd_raw_send_byte(0xfe);
 1201              		.loc 1 699 0
 1202 01e0 FE00A0E3 		mov	r0, #254	@,
 1203 01e4 FEFFFFEB 		bl	_ZL16sd_raw_send_byteh	@
 700:sd_raw.cpp    **** 
 701:sd_raw.cpp    ****         /* write byte block */
 702:sd_raw.cpp    ****         unsigned char* cache = raw_block;
 1204              		.loc 1 702 0
 1205 01e8 04319FE5 		ldr	r3, .L79+8	@ tmp206,
 1206 01ec 20308DE5 		str	r3, [sp, #32]	@ tmp206, cache
 703:sd_raw.cpp    ****         unsigned short i;
 704:sd_raw.cpp    ****         for(i = 0; i < 512; ++i)
 1207              		.loc 1 704 0
 1208 01f0 0030A0E3 		mov	r3, #0	@ tmp208,
 1209 01f4 BE31CDE1 		strh	r3, [sp, #30]	@ movhi	@ tmp207, i
 1210 01f8 090000EA 		b	.L75	@
 1211              	.L76:
 705:sd_raw.cpp    ****             sd_raw_send_byte(*cache++);
 1212              		.loc 1 705 0 discriminator 2
 1213 01fc 20309DE5 		ldr	r3, [sp, #32]	@ tmp209, cache
 1214 0200 0030D3E5 		ldrb	r3, [r3, #0]	@ zero_extendqisi2	@ D.10679,
 1215 0204 20209DE5 		ldr	r2, [sp, #32]	@ tmp210, cache
 1216 0208 012082E2 		add	r2, r2, #1	@ tmp211, tmp210,
 1217 020c 20208DE5 		str	r2, [sp, #32]	@ tmp211, cache
 1218 0210 0300A0E1 		mov	r0, r3	@, D.10679
 1219 0214 FEFFFFEB 		bl	_ZL16sd_raw_send_byteh	@
 704:sd_raw.cpp    ****         for(i = 0; i < 512; ++i)
 1220              		.loc 1 704 0 discriminator 2
 1221 0218 BE31DDE1 		ldrh	r3, [sp, #30]	@ movhi	@ tmp212, i
 1222 021c 013083E2 		add	r3, r3, #1	@ tmp213, tmp212,
 1223 0220 BE31CDE1 		strh	r3, [sp, #30]	@ movhi	@ tmp213, i
 1224              	.L75:
 704:sd_raw.cpp    ****         for(i = 0; i < 512; ++i)
 1225              		.loc 1 704 0 is_stmt 0 discriminator 1
 1226 0224 BE21DDE1 		ldrh	r2, [sp, #30]	@ tmp215, i
 1227 0228 C8309FE5 		ldr	r3, .L79+12	@ tmp217,
 1228 022c 030052E1 		cmp	r2, r3	@ tmp215, tmp217
 1229 0230 0030A083 		movhi	r3, #0	@, tmp216
 1230 0234 0130A093 		movls	r3, #1	@, tmp216
 1231 0238 FF3003E2 		and	r3, r3, #255	@ D.10677, tmp214,
 1232 023c 000053E3 		cmp	r3, #0	@ D.10677,
 1233 0240 EDFFFF1A 		bne	.L76	@,
 706:sd_raw.cpp    **** 
 707:sd_raw.cpp    ****         /* write dummy crc16 */
 708:sd_raw.cpp    ****         sd_raw_send_byte(0xff);
 1234              		.loc 1 708 0 is_stmt 1
 1235 0244 FF00A0E3 		mov	r0, #255	@,
 1236 0248 FEFFFFEB 		bl	_ZL16sd_raw_send_byteh	@
 709:sd_raw.cpp    ****         sd_raw_send_byte(0xff);
 1237              		.loc 1 709 0
 1238 024c FF00A0E3 		mov	r0, #255	@,
ARM GAS  /tmp/ccX0J2UF.s 			page 36


 1239 0250 FEFFFFEB 		bl	_ZL16sd_raw_send_byteh	@
 710:sd_raw.cpp    **** 
 711:sd_raw.cpp    ****         /* wait while card is busy */
 712:sd_raw.cpp    ****         while(sd_raw_rec_byte() != 0xff);
 1240              		.loc 1 712 0
 1241 0254 0000A0E1 		mov	r0, r0	@ nop
 1242              	.L77:
 1243              		.loc 1 712 0 is_stmt 0 discriminator 1
 1244 0258 FEFFFFEB 		bl	_ZL15sd_raw_rec_bytev	@
 1245 025c 0030A0E1 		mov	r3, r0	@ tmp218,
 1246 0260 FF0053E3 		cmp	r3, #255	@ D.10684,
 1247 0264 0030A003 		moveq	r3, #0	@, tmp220
 1248 0268 0130A013 		movne	r3, #1	@, tmp220
 1249 026c FF3003E2 		and	r3, r3, #255	@ retval.17, tmp219,
 1250 0270 000053E3 		cmp	r3, #0	@ retval.17,
 1251 0274 F7FFFF1A 		bne	.L77	@,
 713:sd_raw.cpp    ****         sd_raw_rec_byte();
 1252              		.loc 1 713 0 is_stmt 1
 1253 0278 FEFFFFEB 		bl	_ZL15sd_raw_rec_bytev	@
 714:sd_raw.cpp    **** 
 715:sd_raw.cpp    ****         /* deaddress card */
 716:sd_raw.cpp    ****         unselect_card();
 1254              		.loc 1 716 0
 1255 027c 7C309FE5 		ldr	r3, .L79+20	@ D.10685,
 1256 0280 78209FE5 		ldr	r2, .L79+20	@ D.10686,
 1257 0284 002092E5 		ldr	r2, [r2, #0]	@ D.10687,* D.10686
 1258 0288 012682E3 		orr	r2, r2, #1048576	@ D.10688, D.10687,
 1259 028c 002083E5 		str	r2, [r3, #0]	@ D.10688,* D.10685
 717:sd_raw.cpp    **** 
 718:sd_raw.cpp    ****         length -= write_length;
 1260              		.loc 1 718 0
 1261 0290 B620DDE1 		ldrh	r2, [sp, #6]	@ movhi	@ tmp221, length
 1262 0294 B632DDE1 		ldrh	r3, [sp, #38]	@ movhi	@ tmp222, write_length
 1263 0298 023063E0 		rsb	r3, r3, r2	@ tmp223, tmp222, tmp221
 1264 029c B630CDE1 		strh	r3, [sp, #6]	@ movhi	@ tmp223, length
 719:sd_raw.cpp    ****         offset += write_length;
 1265              		.loc 1 719 0
 1266 02a0 B632DDE1 		ldrh	r3, [sp, #38]	@ D.10689, write_length
 1267 02a4 0C209DE5 		ldr	r2, [sp, #12]	@ tmp224, offset
 1268 02a8 033082E0 		add	r3, r2, r3	@ tmp225, tmp224, D.10689
 1269 02ac 0C308DE5 		str	r3, [sp, #12]	@ tmp225, offset
 720:sd_raw.cpp    **** 
 721:sd_raw.cpp    ****         #if SD_RAW_WRITE_BUFFERING
 722:sd_raw.cpp    ****             raw_block_written = 1;
 1270              		.loc 1 722 0
 1271 02b0 38309FE5 		ldr	r3, .L79+4	@ tmp226,
 1272 02b4 0120A0E3 		mov	r2, #1	@ tmp227,
 1273 02b8 0020C3E5 		strb	r2, [r3, #0]	@ tmp228, raw_block_written
 1274              	.L66:
 1275              	.LBE10:
 644:sd_raw.cpp    ****         while(length > 0)
 1276              		.loc 1 644 0 discriminator 1
 1277 02bc B630DDE1 		ldrh	r3, [sp, #6]	@ tmp230, length
 1278 02c0 000053E3 		cmp	r3, #0	@ tmp230,
 1279 02c4 0030A003 		moveq	r3, #0	@, tmp231
 1280 02c8 0130A013 		movne	r3, #1	@, tmp231
 1281 02cc FF3003E2 		and	r3, r3, #255	@ D.10628, tmp229,
ARM GAS  /tmp/ccX0J2UF.s 			page 37


 1282 02d0 000053E3 		cmp	r3, #0	@ D.10628,
 1283 02d4 50FFFF1A 		bne	.L78	@,
 723:sd_raw.cpp    ****         #endif
 724:sd_raw.cpp    ****     }
 725:sd_raw.cpp    **** 
 726:sd_raw.cpp    ****     return 1;
 1284              		.loc 1 726 0
 1285 02d8 0130A0E3 		mov	r3, #1	@ D.10624,
 1286              	.L70:
 1287              	.LBE9:
 727:sd_raw.cpp    ****     #else
 728:sd_raw.cpp    ****         return 0;
 729:sd_raw.cpp    ****     #endif
 730:sd_raw.cpp    **** }
 1288              		.loc 1 730 0
 1289 02dc 0300A0E1 		mov	r0, r3	@, <retval>
 1290 02e0 2CD08DE2 		add	sp, sp, #44	@,,
 1291 02e4 04E09DE4 		ldr	lr, [sp], #4
 1292 02e8 1EFF2FE1 		bx	lr
 1293              	.L80:
 1294              		.align	2
 1295              	.L79:
 1296 02ec 00020000 		.word	_ZL17raw_block_address
 1297 02f0 04020000 		.word	_ZL17raw_block_written
 1298 02f4 00000000 		.word	_ZL9raw_block
 1299 02f8 FF010000 		.word	511
 1300 02fc 1CC0FF3F 		.word	1073725468
 1301 0300 18C0FF3F 		.word	1073725464
 1302              		.cfi_endproc
 1303              	.LFE117:
 1304              		.size	_Z12sd_raw_writejPKht, .-_Z12sd_raw_writejPKht
 1305              		.section	.text._Z11sd_raw_syncv,"ax",%progbits
 1306              		.align	2
 1307              		.global	_Z11sd_raw_syncv
 1308              		.type	_Z11sd_raw_syncv, %function
 1309              	_Z11sd_raw_syncv:
 1310              	.LFB118:
 731:sd_raw.cpp    **** 
 732:sd_raw.cpp    **** /**
 733:sd_raw.cpp    ****  * \ingroup sd_raw
 734:sd_raw.cpp    ****  * Writes the write buffer's content to the card.
 735:sd_raw.cpp    ****  *
 736:sd_raw.cpp    ****  * \note When write buffering is enabled, you should
 737:sd_raw.cpp    ****  *       call this function before disconnecting the
 738:sd_raw.cpp    ****  *       card to ensure all remaining data has been
 739:sd_raw.cpp    ****  *       written.
 740:sd_raw.cpp    ****  *
 741:sd_raw.cpp    ****  * \returns 0 on failure, 1 on success.
 742:sd_raw.cpp    ****  * \see sd_raw_write
 743:sd_raw.cpp    ****  */
 744:sd_raw.cpp    **** unsigned char sd_raw_sync()
 745:sd_raw.cpp    **** {
 1311              		.loc 1 745 0
 1312              		.cfi_startproc
 1313              		@ Function supports interworking.
 1314              		@ args = 0, pretend = 0, frame = 0
 1315              		@ frame_needed = 0, uses_anonymous_args = 0
ARM GAS  /tmp/ccX0J2UF.s 			page 38


 1316 0000 08402DE9 		stmfd	sp!, {r3, lr}	@,
 1317              	.LCFI12:
 1318              		.cfi_def_cfa_offset 8
 746:sd_raw.cpp    ****     #if SD_RAW_WRITE_SUPPORT
 747:sd_raw.cpp    ****         #if SD_RAW_WRITE_BUFFERING
 748:sd_raw.cpp    ****         if(raw_block_written)
 1319              		.loc 1 748 0
 1320 0004 5C309FE5 		ldr	r3, .L85	@ tmp139,
 1321              		.cfi_offset 14, -4
 1322              		.cfi_offset 3, -8
 1323 0008 0030D3E5 		ldrb	r3, [r3, #0]	@ zero_extendqisi2	@ raw_block_written.8, raw_block_written
 1324 000c 000053E3 		cmp	r3, #0	@ raw_block_written.8,
 1325 0010 0100000A 		beq	.L82	@,
 749:sd_raw.cpp    ****             return 1;
 1326              		.loc 1 749 0
 1327 0014 0130A0E3 		mov	r3, #1	@ D.10615,
 1328 0018 0F0000EA 		b	.L83	@
 1329              	.L82:
 750:sd_raw.cpp    ****         if(!sd_raw_write(raw_block_address, raw_block, sizeof(raw_block)))
 1330              		.loc 1 750 0
 1331 001c 48309FE5 		ldr	r3, .L85+4	@ tmp140,
 1332 0020 003093E5 		ldr	r3, [r3, #0]	@ raw_block_address.10, raw_block_address
 1333 0024 0300A0E1 		mov	r0, r3	@, raw_block_address.10
 1334 0028 40109FE5 		ldr	r1, .L85+8	@,
 1335 002c 022CA0E3 		mov	r2, #512	@,
 1336 0030 FEFFFFEB 		bl	_Z12sd_raw_writejPKht	@
 1337 0034 0030A0E1 		mov	r3, r0	@ tmp141,
 1338 0038 000053E3 		cmp	r3, #0	@ D.10618,
 1339 003c 0030A013 		movne	r3, #0	@, tmp143
 1340 0040 0130A003 		moveq	r3, #1	@, tmp143
 1341 0044 FF3003E2 		and	r3, r3, #255	@ retval.9, tmp142,
 1342 0048 000053E3 		cmp	r3, #0	@ retval.9,
 1343 004c 0100000A 		beq	.L84	@,
 751:sd_raw.cpp    ****             return 0;
 1344              		.loc 1 751 0
 1345 0050 0030A0E3 		mov	r3, #0	@ D.10615,
 1346 0054 000000EA 		b	.L83	@
 1347              	.L84:
 752:sd_raw.cpp    ****     #endif
 753:sd_raw.cpp    ****     return 1;
 1348              		.loc 1 753 0
 1349 0058 0130A0E3 		mov	r3, #1	@ D.10615,
 1350              	.L83:
 754:sd_raw.cpp    ****     #else
 755:sd_raw.cpp    ****     return 0;
 756:sd_raw.cpp    ****     #endif
 757:sd_raw.cpp    **** }
 1351              		.loc 1 757 0
 1352 005c 0300A0E1 		mov	r0, r3	@, <retval>
 1353 0060 0840BDE8 		ldmfd	sp!, {r3, lr}
 1354 0064 1EFF2FE1 		bx	lr
 1355              	.L86:
 1356              		.align	2
 1357              	.L85:
 1358 0068 04020000 		.word	_ZL17raw_block_written
 1359 006c 00020000 		.word	_ZL17raw_block_address
 1360 0070 00000000 		.word	_ZL9raw_block
ARM GAS  /tmp/ccX0J2UF.s 			page 39


 1361              		.cfi_endproc
 1362              	.LFE118:
 1363              		.size	_Z11sd_raw_syncv, .-_Z11sd_raw_syncv
 1364              		.section	.text._Z15sd_raw_get_infoP11sd_raw_info,"ax",%progbits
 1365              		.align	2
 1366              		.global	_Z15sd_raw_get_infoP11sd_raw_info
 1367              		.type	_Z15sd_raw_get_infoP11sd_raw_info, %function
 1368              	_Z15sd_raw_get_infoP11sd_raw_info:
 1369              	.LFB119:
 758:sd_raw.cpp    **** 
 759:sd_raw.cpp    **** /**
 760:sd_raw.cpp    ****  * \ingroup sd_raw
 761:sd_raw.cpp    ****  * Reads informational data from the card.
 762:sd_raw.cpp    ****  *
 763:sd_raw.cpp    ****  * This function reads and returns the card's registers
 764:sd_raw.cpp    ****  * containing manufacturing and status information.
 765:sd_raw.cpp    ****  *
 766:sd_raw.cpp    ****  * \note: The information retrieved by this function is
 767:sd_raw.cpp    ****  *        not required in any way to operate on the card,
 768:sd_raw.cpp    ****  *        but it might be nice to display some of the data
 769:sd_raw.cpp    ****  *        to the user.
 770:sd_raw.cpp    ****  *
 771:sd_raw.cpp    ****  * \param[in] info A pointer to the structure into which to save the information.
 772:sd_raw.cpp    ****  * \returns 0 on failure, 1 on success.
 773:sd_raw.cpp    ****  */
 774:sd_raw.cpp    **** unsigned char sd_raw_get_info(struct sd_raw_info* info)
 775:sd_raw.cpp    **** {
 1370              		.loc 1 775 0
 1371              		.cfi_startproc
 1372              		@ Function supports interworking.
 1373              		@ args = 0, pretend = 0, frame = 16
 1374              		@ frame_needed = 0, uses_anonymous_args = 0
 1375 0000 04E02DE5 		str	lr, [sp, #-4]!	@,
 1376              	.LCFI13:
 1377              		.cfi_def_cfa_offset 4
 1378 0004 14D04DE2 		sub	sp, sp, #20	@,,
 1379              	.LCFI14:
 1380              		.cfi_def_cfa_offset 24
 1381 0008 04008DE5 		str	r0, [sp, #4]	@ info, info
 1382              	.LBB11:
 776:sd_raw.cpp    ****     if(!info || !sd_raw_available())
 1383              		.loc 1 776 0
 1384 000c 04309DE5 		ldr	r3, [sp, #4]	@ tmp216, info
 1385 0010 000053E3 		cmp	r3, #0	@ tmp216,
 1386 0014 0300000A 		beq	.L88	@,
 1387              		.cfi_offset 14, -4
 1388              		.loc 1 776 0 is_stmt 0 discriminator 2
 1389 0018 FEFFFFEB 		bl	_Z16sd_raw_availablev	@
 1390 001c 0030A0E1 		mov	r3, r0	@ tmp217,
 1391 0020 000053E3 		cmp	r3, #0	@ D.10498,
 1392 0024 0100001A 		bne	.L89	@,
 1393              	.L88:
 1394              		.loc 1 776 0 discriminator 1
 1395 0028 0130A0E3 		mov	r3, #1	@ iftmp.1,
 1396 002c 000000EA 		b	.L90	@
 1397              	.L89:
 1398              		.loc 1 776 0 discriminator 3
ARM GAS  /tmp/ccX0J2UF.s 			page 40


 1399 0030 0030A0E3 		mov	r3, #0	@ iftmp.1,
 1400              	.L90:
 1401              		.loc 1 776 0 discriminator 4
 1402 0034 000053E3 		cmp	r3, #0	@ retval.0,
 1403 0038 0100000A 		beq	.L91	@,
 777:sd_raw.cpp    ****         return 0;
 1404              		.loc 1 777 0 is_stmt 1
 1405 003c 0030A0E3 		mov	r3, #0	@ D.10501,
 1406 0040 1C0100EA 		b	.L92	@
 1407              	.L91:
 778:sd_raw.cpp    **** 
 779:sd_raw.cpp    ****     memset(info, 0, sizeof(*info));
 1408              		.loc 1 779 0
 1409 0044 04009DE5 		ldr	r0, [sp, #4]	@, info
 1410 0048 0010A0E3 		mov	r1, #0	@,
 1411 004c 1C20A0E3 		mov	r2, #28	@,
 1412 0050 FEFFFFEB 		bl	memset	@
 780:sd_raw.cpp    **** 
 781:sd_raw.cpp    ****     select_card();
 1413              		.loc 1 781 0
 1414 0054 6C349FE5 		ldr	r3, .L124	@ D.10502,
 1415 0058 68249FE5 		ldr	r2, .L124	@ D.10503,
 1416 005c 002092E5 		ldr	r2, [r2, #0]	@ D.10504,* D.10503
 1417 0060 012682E3 		orr	r2, r2, #1048576	@ D.10505, D.10504,
 1418 0064 002083E5 		str	r2, [r3, #0]	@ D.10505,* D.10502
 782:sd_raw.cpp    **** 
 783:sd_raw.cpp    ****     /* read cid register */
 784:sd_raw.cpp    ****     if(sd_raw_send_command_r1(CMD_SEND_CID, 0))
 1419              		.loc 1 784 0
 1420 0068 0A00A0E3 		mov	r0, #10	@,
 1421 006c 0010A0E3 		mov	r1, #0	@,
 1422 0070 FEFFFFEB 		bl	_ZL22sd_raw_send_command_r1hj	@
 1423 0074 0030A0E1 		mov	r3, r0	@ tmp218,
 1424 0078 000053E3 		cmp	r3, #0	@ D.10507,
 1425 007c 0030A003 		moveq	r3, #0	@, tmp220
 1426 0080 0130A013 		movne	r3, #1	@, tmp220
 1427 0084 FF3003E2 		and	r3, r3, #255	@ retval.2, tmp219,
 1428 0088 000053E3 		cmp	r3, #0	@ retval.2,
 1429 008c 0600000A 		beq	.L122	@,
 785:sd_raw.cpp    ****     {
 786:sd_raw.cpp    ****         unselect_card();
 1430              		.loc 1 786 0
 1431 0090 34349FE5 		ldr	r3, .L124+4	@ D.10510,
 1432 0094 30249FE5 		ldr	r2, .L124+4	@ D.10511,
 1433 0098 002092E5 		ldr	r2, [r2, #0]	@ D.10512,* D.10511
 1434 009c 012682E3 		orr	r2, r2, #1048576	@ D.10513, D.10512,
 1435 00a0 002083E5 		str	r2, [r3, #0]	@ D.10513,* D.10510
 787:sd_raw.cpp    ****         return 0;
 1436              		.loc 1 787 0
 1437 00a4 0030A0E3 		mov	r3, #0	@ D.10501,
 1438 00a8 020100EA 		b	.L92	@
 1439              	.L122:
 788:sd_raw.cpp    ****     }
 789:sd_raw.cpp    ****     while(sd_raw_rec_byte() != 0xfe);
 1440              		.loc 1 789 0
 1441 00ac 0000A0E1 		mov	r0, r0	@ nop
 1442              	.L94:
ARM GAS  /tmp/ccX0J2UF.s 			page 41


 1443              		.loc 1 789 0 is_stmt 0 discriminator 1
 1444 00b0 FEFFFFEB 		bl	_ZL15sd_raw_rec_bytev	@
 1445 00b4 0030A0E1 		mov	r3, r0	@ tmp221,
 1446 00b8 FE0053E3 		cmp	r3, #254	@ D.10518,
 1447 00bc 0030A003 		moveq	r3, #0	@, tmp223
 1448 00c0 0130A013 		movne	r3, #1	@, tmp223
 1449 00c4 FF3003E2 		and	r3, r3, #255	@ retval.3, tmp222,
 1450 00c8 000053E3 		cmp	r3, #0	@ retval.3,
 1451 00cc F7FFFF1A 		bne	.L94	@,
 1452              	.LBB12:
 790:sd_raw.cpp    ****     unsigned char i;
 791:sd_raw.cpp    ****     for(i = 0; i < 18; ++i)
 1453              		.loc 1 791 0 is_stmt 1
 1454 00d0 0030A0E3 		mov	r3, #0	@ tmp224,
 1455 00d4 0F30CDE5 		strb	r3, [sp, #15]	@ tmp225, i
 1456 00d8 540000EA 		b	.L95	@
 1457              	.L105:
 1458              	.LBB13:
 792:sd_raw.cpp    ****     {
 793:sd_raw.cpp    ****         unsigned char b = sd_raw_rec_byte();
 1459              		.loc 1 793 0
 1460 00dc FEFFFFEB 		bl	_ZL15sd_raw_rec_bytev	@
 1461 00e0 0030A0E1 		mov	r3, r0	@ tmp226,
 1462 00e4 0930CDE5 		strb	r3, [sp, #9]	@ tmp227, b
 794:sd_raw.cpp    **** 
 795:sd_raw.cpp    ****         switch(i)
 1463              		.loc 1 795 0
 1464 00e8 0F30DDE5 		ldrb	r3, [sp, #15]	@ zero_extendqisi2	@ D.10525, i
 1465 00ec 0E0053E3 		cmp	r3, #14	@ D.10525,
 1466 00f0 03F19F97 		ldrls	pc, [pc, r3, asl #2]	@ D.10525
 1467 00f4 4A0000EA 		b	.L96	@
 1468              	.L104:
 1469 00f8 34010000 		.word	.L97
 1470 00fc 44010000 		.word	.L98
 1471 0100 44010000 		.word	.L98
 1472 0104 68010000 		.word	.L99
 1473 0108 68010000 		.word	.L99
 1474 010c 68010000 		.word	.L99
 1475 0110 68010000 		.word	.L99
 1476 0114 68010000 		.word	.L99
 1477 0118 8C010000 		.word	.L100
 1478 011c 9C010000 		.word	.L101
 1479 0120 9C010000 		.word	.L101
 1480 0124 9C010000 		.word	.L101
 1481 0128 9C010000 		.word	.L101
 1482 012c C8010000 		.word	.L102
 1483 0130 E0010000 		.word	.L103
 1484              	.L97:
 796:sd_raw.cpp    ****         {
 797:sd_raw.cpp    ****             case 0:
 798:sd_raw.cpp    ****                 info->manufacturer = b;
 1485              		.loc 1 798 0
 1486 0134 04309DE5 		ldr	r3, [sp, #4]	@ tmp228, info
 1487 0138 0920DDE5 		ldrb	r2, [sp, #9]	@ tmp229, b
 1488 013c 0020C3E5 		strb	r2, [r3, #0]	@ tmp229, info_11(D)->manufacturer
 799:sd_raw.cpp    ****                 break;
 1489              		.loc 1 799 0
ARM GAS  /tmp/ccX0J2UF.s 			page 42


 1490 0140 370000EA 		b	.L96	@
 1491              	.L98:
 800:sd_raw.cpp    ****             case 1:
 801:sd_raw.cpp    ****             case 2:
 802:sd_raw.cpp    ****                 info->oem[i - 1] = b;
 1492              		.loc 1 802 0
 1493 0144 0F30DDE5 		ldrb	r3, [sp, #15]	@ zero_extendqisi2	@ D.10526, i
 1494 0148 012043E2 		sub	r2, r3, #1	@ D.10527, D.10526,
 1495 014c 04109DE5 		ldr	r1, [sp, #4]	@ tmp230, info
 1496 0150 0130A0E3 		mov	r3, #1	@ tmp231,
 1497 0154 022081E0 		add	r2, r1, r2	@ tmp232, tmp230, D.10527
 1498 0158 033082E0 		add	r3, r2, r3	@ tmp233, tmp232, tmp231
 1499 015c 0920DDE5 		ldrb	r2, [sp, #9]	@ tmp234, b
 1500 0160 0020C3E5 		strb	r2, [r3, #0]	@ tmp234, info_11(D)->oem
 803:sd_raw.cpp    ****                 break;
 1501              		.loc 1 803 0
 1502 0164 2E0000EA 		b	.L96	@
 1503              	.L99:
 804:sd_raw.cpp    ****             case 3:
 805:sd_raw.cpp    ****             case 4:
 806:sd_raw.cpp    ****             case 5:
 807:sd_raw.cpp    ****             case 6:
 808:sd_raw.cpp    ****             case 7:
 809:sd_raw.cpp    ****                 info->product[i - 3] = b;
 1504              		.loc 1 809 0
 1505 0168 0F30DDE5 		ldrb	r3, [sp, #15]	@ zero_extendqisi2	@ D.10528, i
 1506 016c 032043E2 		sub	r2, r3, #3	@ D.10529, D.10528,
 1507 0170 04109DE5 		ldr	r1, [sp, #4]	@ tmp235, info
 1508 0174 0430A0E3 		mov	r3, #4	@ tmp236,
 1509 0178 022081E0 		add	r2, r1, r2	@ tmp237, tmp235, D.10529
 1510 017c 033082E0 		add	r3, r2, r3	@ tmp238, tmp237, tmp236
 1511 0180 0920DDE5 		ldrb	r2, [sp, #9]	@ tmp239, b
 1512 0184 0020C3E5 		strb	r2, [r3, #0]	@ tmp239, info_11(D)->product
 810:sd_raw.cpp    ****                 break;
 1513              		.loc 1 810 0
 1514 0188 250000EA 		b	.L96	@
 1515              	.L100:
 811:sd_raw.cpp    ****             case 8:
 812:sd_raw.cpp    ****                 info->revision = b;
 1516              		.loc 1 812 0
 1517 018c 04309DE5 		ldr	r3, [sp, #4]	@ tmp240, info
 1518 0190 0920DDE5 		ldrb	r2, [sp, #9]	@ tmp241, b
 1519 0194 0A20C3E5 		strb	r2, [r3, #10]	@ tmp241, info_11(D)->revision
 813:sd_raw.cpp    ****                 break;
 1520              		.loc 1 813 0
 1521 0198 210000EA 		b	.L96	@
 1522              	.L101:
 814:sd_raw.cpp    ****             case 9:
 815:sd_raw.cpp    ****             case 10:
 816:sd_raw.cpp    ****             case 11:
 817:sd_raw.cpp    ****             case 12:
 818:sd_raw.cpp    ****                 info->serial |= (unsigned int) b << ((12 - i) * 8);
 1523              		.loc 1 818 0
 1524 019c 04309DE5 		ldr	r3, [sp, #4]	@ tmp242, info
 1525 01a0 0C2093E5 		ldr	r2, [r3, #12]	@ D.10530, info_11(D)->serial
 1526 01a4 0910DDE5 		ldrb	r1, [sp, #9]	@ zero_extendqisi2	@ D.10531, b
 1527 01a8 0F30DDE5 		ldrb	r3, [sp, #15]	@ zero_extendqisi2	@ D.10532, i
ARM GAS  /tmp/ccX0J2UF.s 			page 43


 1528 01ac 0C3063E2 		rsb	r3, r3, #12	@ D.10533, D.10532,
 1529 01b0 8331A0E1 		mov	r3, r3, asl #3	@ D.10534, D.10533,
 1530 01b4 1133A0E1 		mov	r3, r1, asl r3	@ D.10535, D.10531,
 1531 01b8 032082E1 		orr	r2, r2, r3	@ D.10536, D.10530, D.10535
 1532 01bc 04309DE5 		ldr	r3, [sp, #4]	@ tmp243, info
 1533 01c0 0C2083E5 		str	r2, [r3, #12]	@ D.10536, info_11(D)->serial
 819:sd_raw.cpp    ****                 break;
 1534              		.loc 1 819 0
 1535 01c4 160000EA 		b	.L96	@
 1536              	.L102:
 820:sd_raw.cpp    ****             case 13:
 821:sd_raw.cpp    ****                 info->manufacturing_year = b << 4;
 1537              		.loc 1 821 0
 1538 01c8 0930DDE5 		ldrb	r3, [sp, #9]	@ tmp244, b
 1539 01cc 0332A0E1 		mov	r3, r3, asl #4	@ tmp245, tmp244,
 1540 01d0 FF2003E2 		and	r2, r3, #255	@ D.10537, tmp245,
 1541 01d4 04309DE5 		ldr	r3, [sp, #4]	@ tmp246, info
 1542 01d8 1020C3E5 		strb	r2, [r3, #16]	@ tmp247, info_11(D)->manufacturing_year
 822:sd_raw.cpp    ****                 break;
 1543              		.loc 1 822 0
 1544 01dc 100000EA 		b	.L96	@
 1545              	.L103:
 823:sd_raw.cpp    ****             case 14:
 824:sd_raw.cpp    ****                 info->manufacturing_year |= b >> 4;
 1546              		.loc 1 824 0
 1547 01e0 04309DE5 		ldr	r3, [sp, #4]	@ tmp248, info
 1548 01e4 1030D3E5 		ldrb	r3, [r3, #16]	@ zero_extendqisi2	@ D.10538, info_11(D)->manufacturing_year
 1549 01e8 FF2003E2 		and	r2, r3, #255	@ D.10539, D.10538,
 1550 01ec 0930DDE5 		ldrb	r3, [sp, #9]	@ zero_extendqisi2	@ D.10540, b
 1551 01f0 4332A0E1 		mov	r3, r3, asr #4	@ D.10541, D.10540,
 1552 01f4 FF3003E2 		and	r3, r3, #255	@ D.10542, D.10541,
 1553 01f8 033082E1 		orr	r3, r2, r3	@ tmp251, tmp249, tmp250
 1554 01fc FF3003E2 		and	r3, r3, #255	@ D.10543, tmp251,
 1555 0200 FF2003E2 		and	r2, r3, #255	@ D.10544, D.10543,
 1556 0204 04309DE5 		ldr	r3, [sp, #4]	@ tmp252, info
 1557 0208 1020C3E5 		strb	r2, [r3, #16]	@ tmp253, info_11(D)->manufacturing_year
 825:sd_raw.cpp    ****                 info->manufacturing_month = b & 0x0f;
 1558              		.loc 1 825 0
 1559 020c 0930DDE5 		ldrb	r3, [sp, #9]	@ tmp254, b
 1560 0210 0F3003E2 		and	r3, r3, #15	@ tmp255, tmp254,
 1561 0214 FF2003E2 		and	r2, r3, #255	@ D.10545, tmp255,
 1562 0218 04309DE5 		ldr	r3, [sp, #4]	@ tmp256, info
 1563 021c 1120C3E5 		strb	r2, [r3, #17]	@ tmp257, info_11(D)->manufacturing_month
 826:sd_raw.cpp    ****                 break;
 1564              		.loc 1 826 0
 1565 0220 0000A0E1 		mov	r0, r0	@ nop
 1566              	.L96:
 1567              	.LBE13:
 791:sd_raw.cpp    ****     for(i = 0; i < 18; ++i)
 1568              		.loc 1 791 0
 1569 0224 0F30DDE5 		ldrb	r3, [sp, #15]	@ tmp258, i
 1570 0228 013083E2 		add	r3, r3, #1	@ tmp259, tmp258,
 1571 022c 0F30CDE5 		strb	r3, [sp, #15]	@ tmp260, i
 1572              	.L95:
 791:sd_raw.cpp    ****     for(i = 0; i < 18; ++i)
 1573              		.loc 1 791 0 is_stmt 0 discriminator 1
 1574 0230 0F30DDE5 		ldrb	r3, [sp, #15]	@ zero_extendqisi2	@ tmp262, i
ARM GAS  /tmp/ccX0J2UF.s 			page 44


 1575 0234 110053E3 		cmp	r3, #17	@ tmp262,
 1576 0238 0030A083 		movhi	r3, #0	@, tmp263
 1577 023c 0130A093 		movls	r3, #1	@, tmp263
 1578 0240 FF3003E2 		and	r3, r3, #255	@ D.10522, tmp261,
 1579 0244 000053E3 		cmp	r3, #0	@ D.10522,
 1580 0248 A3FFFF1A 		bne	.L105	@,
 1581              	.LBE12:
 827:sd_raw.cpp    ****         }
 828:sd_raw.cpp    ****     }
 829:sd_raw.cpp    **** 
 830:sd_raw.cpp    ****     /* read csd register */
 831:sd_raw.cpp    ****     unsigned char csd_read_bl_len = 0;
 1582              		.loc 1 831 0 is_stmt 1
 1583 024c 0030A0E3 		mov	r3, #0	@ tmp264,
 1584 0250 0E30CDE5 		strb	r3, [sp, #14]	@ tmp265, csd_read_bl_len
 832:sd_raw.cpp    ****     unsigned char csd_c_size_mult = 0;
 1585              		.loc 1 832 0
 1586 0254 0030A0E3 		mov	r3, #0	@ tmp266,
 1587 0258 0D30CDE5 		strb	r3, [sp, #13]	@ tmp267, csd_c_size_mult
 833:sd_raw.cpp    ****     unsigned short csd_c_size = 0;
 1588              		.loc 1 833 0
 1589 025c 0030A0E3 		mov	r3, #0	@ tmp269,
 1590 0260 BA30CDE1 		strh	r3, [sp, #10]	@ movhi	@ tmp268, csd_c_size
 834:sd_raw.cpp    ****     if(sd_raw_send_command_r1(CMD_SEND_CSD, 0))
 1591              		.loc 1 834 0
 1592 0264 0900A0E3 		mov	r0, #9	@,
 1593 0268 0010A0E3 		mov	r1, #0	@,
 1594 026c FEFFFFEB 		bl	_ZL22sd_raw_send_command_r1hj	@
 1595 0270 0030A0E1 		mov	r3, r0	@ tmp270,
 1596 0274 000053E3 		cmp	r3, #0	@ D.10548,
 1597 0278 0030A003 		moveq	r3, #0	@, tmp272
 1598 027c 0130A013 		movne	r3, #1	@, tmp272
 1599 0280 FF3003E2 		and	r3, r3, #255	@ retval.4, tmp271,
 1600 0284 000053E3 		cmp	r3, #0	@ retval.4,
 1601 0288 0600000A 		beq	.L123	@,
 835:sd_raw.cpp    ****     {
 836:sd_raw.cpp    ****         unselect_card();
 1602              		.loc 1 836 0
 1603 028c 38329FE5 		ldr	r3, .L124+4	@ D.10551,
 1604 0290 34229FE5 		ldr	r2, .L124+4	@ D.10552,
 1605 0294 002092E5 		ldr	r2, [r2, #0]	@ D.10553,* D.10552
 1606 0298 012682E3 		orr	r2, r2, #1048576	@ D.10554, D.10553,
 1607 029c 002083E5 		str	r2, [r3, #0]	@ D.10554,* D.10551
 837:sd_raw.cpp    ****         return 0;
 1608              		.loc 1 837 0
 1609 02a0 0030A0E3 		mov	r3, #0	@ D.10501,
 1610 02a4 830000EA 		b	.L92	@
 1611              	.L123:
 838:sd_raw.cpp    ****     }
 839:sd_raw.cpp    ****     while(sd_raw_rec_byte() != 0xfe);
 1612              		.loc 1 839 0
 1613 02a8 0000A0E1 		mov	r0, r0	@ nop
 1614              	.L107:
 1615              		.loc 1 839 0 is_stmt 0 discriminator 1
 1616 02ac FEFFFFEB 		bl	_ZL15sd_raw_rec_bytev	@
 1617 02b0 0030A0E1 		mov	r3, r0	@ tmp273,
 1618 02b4 FE0053E3 		cmp	r3, #254	@ D.10559,
ARM GAS  /tmp/ccX0J2UF.s 			page 45


 1619 02b8 0030A003 		moveq	r3, #0	@, tmp275
 1620 02bc 0130A013 		movne	r3, #1	@, tmp275
 1621 02c0 FF3003E2 		and	r3, r3, #255	@ retval.5, tmp274,
 1622 02c4 000053E3 		cmp	r3, #0	@ retval.5,
 1623 02c8 F7FFFF1A 		bne	.L107	@,
 1624              	.LBB14:
 840:sd_raw.cpp    ****     for(i = 0; i < 18; ++i)
 1625              		.loc 1 840 0 is_stmt 1
 1626 02cc 0030A0E3 		mov	r3, #0	@ tmp276,
 1627 02d0 0F30CDE5 		strb	r3, [sp, #15]	@ tmp277, i
 1628 02d4 6A0000EA 		b	.L108	@
 1629              	.L121:
 1630              	.LBB15:
 841:sd_raw.cpp    ****     {
 842:sd_raw.cpp    ****         unsigned char b = sd_raw_rec_byte();
 1631              		.loc 1 842 0
 1632 02d8 FEFFFFEB 		bl	_ZL15sd_raw_rec_bytev	@
 1633 02dc 0030A0E1 		mov	r3, r0	@ tmp278,
 1634 02e0 0830CDE5 		strb	r3, [sp, #8]	@ tmp279, b
 843:sd_raw.cpp    **** 
 844:sd_raw.cpp    ****         switch(i)
 1635              		.loc 1 844 0
 1636 02e4 0F30DDE5 		ldrb	r3, [sp, #15]	@ zero_extendqisi2	@ D.10566, i
 1637 02e8 053043E2 		sub	r3, r3, #5	@ tmp280, D.10566,
 1638 02ec 090053E3 		cmp	r3, #9	@ tmp280,
 1639 02f0 03F19F97 		ldrls	pc, [pc, r3, asl #2]	@ tmp280
 1640 02f4 5F0000EA 		b	.L109	@
 1641              	.L117:
 1642 02f8 20030000 		.word	.L110
 1643 02fc 30030000 		.word	.L111
 1644 0300 54030000 		.word	.L112
 1645 0304 7C030000 		.word	.L113
 1646 0308 B0030000 		.word	.L114
 1647 030c C8030000 		.word	.L115
 1648 0310 78040000 		.word	.L109
 1649 0314 78040000 		.word	.L109
 1650 0318 78040000 		.word	.L109
 1651 031c 08040000 		.word	.L116
 1652              	.L110:
 845:sd_raw.cpp    ****         {
 846:sd_raw.cpp    ****             case 5:
 847:sd_raw.cpp    ****                 csd_read_bl_len = b & 0x0f;
 1653              		.loc 1 847 0
 1654 0320 0830DDE5 		ldrb	r3, [sp, #8]	@ tmp281, b
 1655 0324 0F3003E2 		and	r3, r3, #15	@ tmp282, tmp281,
 1656 0328 0E30CDE5 		strb	r3, [sp, #14]	@ tmp283, csd_read_bl_len
 848:sd_raw.cpp    ****                 break;
 1657              		.loc 1 848 0
 1658 032c 510000EA 		b	.L109	@
 1659              	.L111:
 849:sd_raw.cpp    ****             case 6:
 850:sd_raw.cpp    ****                 csd_c_size = (unsigned short) (b & 0x03) << 8;
 1660              		.loc 1 850 0
 1661 0330 0830DDE5 		ldrb	r3, [sp, #8]	@ zero_extendqisi2	@ tmp285, b
 1662 0334 0338A0E1 		mov	r3, r3, asl #16	@ tmp286, tmp284,
 1663 0338 2338A0E1 		mov	r3, r3, lsr #16	@ D.10567, tmp286,
 1664 033c 033003E2 		and	r3, r3, #3	@ tmp287, D.10567,
ARM GAS  /tmp/ccX0J2UF.s 			page 46


 1665 0340 0338A0E1 		mov	r3, r3, asl #16	@ tmp288, tmp287,
 1666 0344 2338A0E1 		mov	r3, r3, lsr #16	@ D.10568, tmp288,
 1667 0348 0334A0E1 		mov	r3, r3, asl #8	@ tmp289, D.10568,
 1668 034c BA30CDE1 		strh	r3, [sp, #10]	@ movhi	@ tmp289, csd_c_size
 851:sd_raw.cpp    ****                 break;
 1669              		.loc 1 851 0
 1670 0350 480000EA 		b	.L109	@
 1671              	.L112:
 852:sd_raw.cpp    ****             case 7:
 853:sd_raw.cpp    ****                 csd_c_size |= b;
 1672              		.loc 1 853 0
 1673 0354 0830DDE5 		ldrb	r3, [sp, #8]	@ zero_extendqisi2	@ tmp291, b
 1674 0358 0338A0E1 		mov	r3, r3, asl #16	@ tmp292, tmp290,
 1675 035c 2328A0E1 		mov	r2, r3, lsr #16	@ D.10569, tmp292,
 1676 0360 BA30DDE1 		ldrh	r3, [sp, #10]	@ movhi	@ tmp293, csd_c_size
 1677 0364 033082E1 		orr	r3, r2, r3	@ tmp294, D.10569, tmp293
 1678 0368 BA30CDE1 		strh	r3, [sp, #10]	@ movhi	@ tmp294, csd_c_size
 854:sd_raw.cpp    ****                 csd_c_size <<= 2;
 1679              		.loc 1 854 0
 1680 036c BA30DDE1 		ldrh	r3, [sp, #10]	@ movhi	@ tmp295, csd_c_size
 1681 0370 0331A0E1 		mov	r3, r3, asl #2	@ tmp296, tmp295,
 1682 0374 BA30CDE1 		strh	r3, [sp, #10]	@ movhi	@ tmp296, csd_c_size
 855:sd_raw.cpp    ****                 break;
 1683              		.loc 1 855 0
 1684 0378 3E0000EA 		b	.L109	@
 1685              	.L113:
 856:sd_raw.cpp    ****             case 8:
 857:sd_raw.cpp    ****                 csd_c_size |= b >> 6;
 1686              		.loc 1 857 0
 1687 037c 0830DDE5 		ldrb	r3, [sp, #8]	@ zero_extendqisi2	@ D.10570, b
 1688 0380 4333A0E1 		mov	r3, r3, asr #6	@ D.10571, D.10570,
 1689 0384 0338A0E1 		mov	r3, r3, asl #16	@ tmp297, D.10571,
 1690 0388 2328A0E1 		mov	r2, r3, lsr #16	@ D.10572, tmp297,
 1691 038c BA30DDE1 		ldrh	r3, [sp, #10]	@ csd_c_size.6, csd_c_size
 1692 0390 033082E1 		orr	r3, r2, r3	@ tmp300, tmp298, tmp299
 1693 0394 0338A0E1 		mov	r3, r3, asl #16	@ tmp301, tmp300,
 1694 0398 2338A0E1 		mov	r3, r3, lsr #16	@ D.10574, tmp301,
 1695 039c BA30CDE1 		strh	r3, [sp, #10]	@ movhi	@ D.10574, csd_c_size
 858:sd_raw.cpp    ****                 ++csd_c_size;
 1696              		.loc 1 858 0
 1697 03a0 BA30DDE1 		ldrh	r3, [sp, #10]	@ movhi	@ tmp302, csd_c_size
 1698 03a4 013083E2 		add	r3, r3, #1	@ tmp303, tmp302,
 1699 03a8 BA30CDE1 		strh	r3, [sp, #10]	@ movhi	@ tmp303, csd_c_size
 859:sd_raw.cpp    ****                 break;
 1700              		.loc 1 859 0
 1701 03ac 310000EA 		b	.L109	@
 1702              	.L114:
 860:sd_raw.cpp    ****             case 9:
 861:sd_raw.cpp    ****                 csd_c_size_mult = (b & 0x03) << 1;
 1703              		.loc 1 861 0
 1704 03b0 0830DDE5 		ldrb	r3, [sp, #8]	@ tmp304, b
 1705 03b4 033003E2 		and	r3, r3, #3	@ tmp305, tmp304,
 1706 03b8 FF3003E2 		and	r3, r3, #255	@ D.10575, tmp305,
 1707 03bc 8330A0E1 		mov	r3, r3, asl #1	@ tmp306, D.10575,
 1708 03c0 0D30CDE5 		strb	r3, [sp, #13]	@ tmp307, csd_c_size_mult
 862:sd_raw.cpp    ****                 break;
 1709              		.loc 1 862 0
ARM GAS  /tmp/ccX0J2UF.s 			page 47


 1710 03c4 2B0000EA 		b	.L109	@
 1711              	.L115:
 863:sd_raw.cpp    ****             case 10:
 864:sd_raw.cpp    ****                 csd_c_size_mult |= b >> 7;
 1712              		.loc 1 864 0
 1713 03c8 0830DDE5 		ldrb	r3, [sp, #8]	@ zero_extendqisi2	@ D.10576, b
 1714 03cc C333A0E1 		mov	r3, r3, asr #7	@ D.10577, D.10576,
 1715 03d0 FF2003E2 		and	r2, r3, #255	@ D.10578, D.10577,
 1716 03d4 0D30DDE5 		ldrb	r3, [sp, #13]	@ zero_extendqisi2	@ csd_c_size_mult.7, csd_c_size_mult
 1717 03d8 033082E1 		orr	r3, r2, r3	@ tmp310, tmp308, tmp309
 1718 03dc FF3003E2 		and	r3, r3, #255	@ D.10580, tmp310,
 1719 03e0 0D30CDE5 		strb	r3, [sp, #13]	@ tmp311, csd_c_size_mult
 865:sd_raw.cpp    **** 
 866:sd_raw.cpp    ****                 info->capacity = (unsigned int) csd_c_size << (csd_c_size_mult + csd_read_bl_len + 
 1720              		.loc 1 866 0
 1721 03e4 BA20DDE1 		ldrh	r2, [sp, #10]	@ D.10581, csd_c_size
 1722 03e8 0D10DDE5 		ldrb	r1, [sp, #13]	@ zero_extendqisi2	@ D.10582, csd_c_size_mult
 1723 03ec 0E30DDE5 		ldrb	r3, [sp, #14]	@ zero_extendqisi2	@ D.10583, csd_read_bl_len
 1724 03f0 033081E0 		add	r3, r1, r3	@ D.10584, D.10582, D.10583
 1725 03f4 023083E2 		add	r3, r3, #2	@ D.10585, D.10584,
 1726 03f8 1223A0E1 		mov	r2, r2, asl r3	@ D.10586, D.10581,
 1727 03fc 04309DE5 		ldr	r3, [sp, #4]	@ tmp312, info
 1728 0400 142083E5 		str	r2, [r3, #20]	@ D.10586, info_11(D)->capacity
 867:sd_raw.cpp    **** 
 868:sd_raw.cpp    ****                 break;
 1729              		.loc 1 868 0
 1730 0404 1B0000EA 		b	.L109	@
 1731              	.L116:
 869:sd_raw.cpp    ****             case 14:
 870:sd_raw.cpp    ****                 if(b & 0x40)
 1732              		.loc 1 870 0
 1733 0408 0830DDE5 		ldrb	r3, [sp, #8]	@ zero_extendqisi2	@ D.10587, b
 1734 040c 403003E2 		and	r3, r3, #64	@ D.10588, D.10587,
 1735 0410 000053E3 		cmp	r3, #0	@ D.10588,
 1736 0414 0200000A 		beq	.L118	@,
 871:sd_raw.cpp    ****                     info->flag_copy = 1;
 1737              		.loc 1 871 0
 1738 0418 04309DE5 		ldr	r3, [sp, #4]	@ tmp313, info
 1739 041c 0120A0E3 		mov	r2, #1	@ tmp314,
 1740 0420 1820C3E5 		strb	r2, [r3, #24]	@ tmp315, info_11(D)->flag_copy
 1741              	.L118:
 872:sd_raw.cpp    ****                 if(b & 0x20)
 1742              		.loc 1 872 0
 1743 0424 0830DDE5 		ldrb	r3, [sp, #8]	@ zero_extendqisi2	@ D.10592, b
 1744 0428 203003E2 		and	r3, r3, #32	@ D.10593, D.10592,
 1745 042c 000053E3 		cmp	r3, #0	@ D.10593,
 1746 0430 0200000A 		beq	.L119	@,
 873:sd_raw.cpp    ****                     info->flag_write_protect = 1;
 1747              		.loc 1 873 0
 1748 0434 04309DE5 		ldr	r3, [sp, #4]	@ tmp316, info
 1749 0438 0120A0E3 		mov	r2, #1	@ tmp317,
 1750 043c 1920C3E5 		strb	r2, [r3, #25]	@ tmp318, info_11(D)->flag_write_protect
 1751              	.L119:
 874:sd_raw.cpp    ****                 if(b & 0x10)
 1752              		.loc 1 874 0
 1753 0440 0830DDE5 		ldrb	r3, [sp, #8]	@ zero_extendqisi2	@ D.10597, b
 1754 0444 103003E2 		and	r3, r3, #16	@ D.10598, D.10597,
ARM GAS  /tmp/ccX0J2UF.s 			page 48


 1755 0448 000053E3 		cmp	r3, #0	@ D.10598,
 1756 044c 0200000A 		beq	.L120	@,
 875:sd_raw.cpp    ****                     info->flag_write_protect_temp = 1;
 1757              		.loc 1 875 0
 1758 0450 04309DE5 		ldr	r3, [sp, #4]	@ tmp319, info
 1759 0454 0120A0E3 		mov	r2, #1	@ tmp320,
 1760 0458 1A20C3E5 		strb	r2, [r3, #26]	@ tmp321, info_11(D)->flag_write_protect_temp
 1761              	.L120:
 876:sd_raw.cpp    ****                 info->format = (b & 0x0c) >> 2;
 1762              		.loc 1 876 0
 1763 045c 0830DDE5 		ldrb	r3, [sp, #8]	@ zero_extendqisi2	@ D.10602, b
 1764 0460 0C3003E2 		and	r3, r3, #12	@ D.10603, D.10602,
 1765 0464 4331A0E1 		mov	r3, r3, asr #2	@ D.10604, D.10603,
 1766 0468 FF2003E2 		and	r2, r3, #255	@ D.10605, D.10604,
 1767 046c 04309DE5 		ldr	r3, [sp, #4]	@ tmp322, info
 1768 0470 1B20C3E5 		strb	r2, [r3, #27]	@ tmp323, info_11(D)->format
 877:sd_raw.cpp    ****                 break;
 1769              		.loc 1 877 0
 1770 0474 0000A0E1 		mov	r0, r0	@ nop
 1771              	.L109:
 1772              	.LBE15:
 840:sd_raw.cpp    ****     for(i = 0; i < 18; ++i)
 1773              		.loc 1 840 0
 1774 0478 0F30DDE5 		ldrb	r3, [sp, #15]	@ tmp324, i
 1775 047c 013083E2 		add	r3, r3, #1	@ tmp325, tmp324,
 1776 0480 0F30CDE5 		strb	r3, [sp, #15]	@ tmp326, i
 1777              	.L108:
 840:sd_raw.cpp    ****     for(i = 0; i < 18; ++i)
 1778              		.loc 1 840 0 is_stmt 0 discriminator 1
 1779 0484 0F30DDE5 		ldrb	r3, [sp, #15]	@ zero_extendqisi2	@ tmp328, i
 1780 0488 110053E3 		cmp	r3, #17	@ tmp328,
 1781 048c 0030A083 		movhi	r3, #0	@, tmp329
 1782 0490 0130A093 		movls	r3, #1	@, tmp329
 1783 0494 FF3003E2 		and	r3, r3, #255	@ D.10563, tmp327,
 1784 0498 000053E3 		cmp	r3, #0	@ D.10563,
 1785 049c 8DFFFF1A 		bne	.L121	@,
 1786              	.LBE14:
 878:sd_raw.cpp    ****         }
 879:sd_raw.cpp    ****     }
 880:sd_raw.cpp    **** 
 881:sd_raw.cpp    ****     unselect_card();
 1787              		.loc 1 881 0 is_stmt 1
 1788 04a0 24309FE5 		ldr	r3, .L124+4	@ D.10607,
 1789 04a4 20209FE5 		ldr	r2, .L124+4	@ D.10608,
 1790 04a8 002092E5 		ldr	r2, [r2, #0]	@ D.10609,* D.10608
 1791 04ac 012682E3 		orr	r2, r2, #1048576	@ D.10610, D.10609,
 1792 04b0 002083E5 		str	r2, [r3, #0]	@ D.10610,* D.10607
 882:sd_raw.cpp    **** 
 883:sd_raw.cpp    ****     return 1;
 1793              		.loc 1 883 0
 1794 04b4 0130A0E3 		mov	r3, #1	@ D.10501,
 1795              	.L92:
 1796              	.LBE11:
 884:sd_raw.cpp    **** }
 1797              		.loc 1 884 0
 1798 04b8 0300A0E1 		mov	r0, r3	@, <retval>
 1799 04bc 14D08DE2 		add	sp, sp, #20	@,,
ARM GAS  /tmp/ccX0J2UF.s 			page 49


 1800 04c0 04E09DE4 		ldr	lr, [sp], #4
 1801 04c4 1EFF2FE1 		bx	lr
 1802              	.L125:
 1803              		.align	2
 1804              	.L124:
 1805 04c8 1CC0FF3F 		.word	1073725468
 1806 04cc 18C0FF3F 		.word	1073725464
 1807              		.cfi_endproc
 1808              	.LFE119:
 1809              		.size	_Z15sd_raw_get_infoP11sd_raw_info, .-_Z15sd_raw_get_infoP11sd_raw_info
 1810              		.section	.text._Z5SDoffv,"ax",%progbits
 1811              		.align	2
 1812              		.global	_Z5SDoffv
 1813              		.type	_Z5SDoffv, %function
 1814              	_Z5SDoffv:
 1815              	.LFB120:
 885:sd_raw.cpp    **** 
 886:sd_raw.cpp    **** void SDoff(void)
 887:sd_raw.cpp    **** {
 1816              		.loc 1 887 0
 1817              		.cfi_startproc
 1818              		@ Function supports interworking.
 1819              		@ args = 0, pretend = 0, frame = 0
 1820              		@ frame_needed = 0, uses_anonymous_args = 0
 1821              		@ link register save eliminated.
 888:sd_raw.cpp    ****     SPI_SS_IODIR &= ~(1<<SPI_SS_PIN);
 1822              		.loc 1 888 0
 1823 0000 24309FE5 		ldr	r3, .L127	@ D.10484,
 1824 0004 20209FE5 		ldr	r2, .L127	@ D.10485,
 1825 0008 002092E5 		ldr	r2, [r2, #0]	@ D.10486,* D.10485
 1826 000c 0126C2E3 		bic	r2, r2, #1048576	@ D.10487, D.10486,
 1827 0010 002083E5 		str	r2, [r3, #0]	@ D.10487,* D.10484
 889:sd_raw.cpp    ****     PINSEL0 &= ~(0x1500);
 1828              		.loc 1 889 0
 1829 0014 14309FE5 		ldr	r3, .L127+4	@ D.10488,
 1830 0018 10209FE5 		ldr	r2, .L127+4	@ D.10489,
 1831 001c 002092E5 		ldr	r2, [r2, #0]	@ D.10490,* D.10489
 1832 0020 152CC2E3 		bic	r2, r2, #5376	@ D.10491, D.10490,
 1833 0024 002083E5 		str	r2, [r3, #0]	@ D.10491,* D.10488
 890:sd_raw.cpp    **** }
 1834              		.loc 1 890 0
 1835 0028 1EFF2FE1 		bx	lr	@
 1836              	.L128:
 1837              		.align	2
 1838              	.L127:
 1839 002c 00C0FF3F 		.word	1073725440
 1840 0030 00C002E0 		.word	-536690688
 1841              		.cfi_endproc
 1842              	.LFE120:
 1843              		.size	_Z5SDoffv, .-_Z5SDoffv
 1844              		.section	.text._Z11format_cardc,"ax",%progbits
 1845              		.align	2
 1846              		.global	_Z11format_cardc
 1847              		.type	_Z11format_cardc, %function
 1848              	_Z11format_cardc:
 1849              	.LFB121:
 891:sd_raw.cpp    **** 
ARM GAS  /tmp/ccX0J2UF.s 			page 50


 892:sd_raw.cpp    **** //NES : 10-28-7 
 893:sd_raw.cpp    **** //Low-level formats a 512MB card
 894:sd_raw.cpp    **** //Assumes *many* things
 895:sd_raw.cpp    **** //You must pass this fuction 0xAA to get it to work (safety check)
 896:sd_raw.cpp    **** char format_card(char make_sure)
 897:sd_raw.cpp    **** {
 1850              		.loc 1 897 0
 1851              		.cfi_startproc
 1852              		@ Function supports interworking.
 1853              		@ args = 0, pretend = 0, frame = 528
 1854              		@ frame_needed = 0, uses_anonymous_args = 0
 1855 0000 04E02DE5 		str	lr, [sp, #-4]!	@,
 1856              	.LCFI15:
 1857              		.cfi_def_cfa_offset 4
 1858 0004 85DF4DE2 		sub	sp, sp, #532	@,,
 1859              	.LCFI16:
 1860              		.cfi_def_cfa_offset 536
 1861 0008 0030A0E1 		mov	r3, r0	@ tmp140, make_sure
 1862 000c 0730CDE5 		strb	r3, [sp, #7]	@ tmp141, make_sure
 1863              	.LBB16:
 898:sd_raw.cpp    **** 	#define MBR_LOCATION	0x00
 899:sd_raw.cpp    **** 	#define BR_LOCATION		(MBR_LOCATION+0x80000)
 900:sd_raw.cpp    **** 	#define FAT_TABLE		(BR_LOCATION + (0x200 * 512))
 901:sd_raw.cpp    **** 	#define ROOT_DIR		(BR_LOCATION + (0x0200 * 512) + (0x00F5 * 2 * 512))
 902:sd_raw.cpp    **** 
 903:sd_raw.cpp    **** 	//Safety check
 904:sd_raw.cpp    **** 	if (make_sure != 0xAA) return 0;
 1864              		.loc 1 904 0
 1865 0010 0730DDE5 		ldrb	r3, [sp, #7]	@ zero_extendqisi2	@ tmp142, make_sure
 1866 0014 AA0053E3 		cmp	r3, #170	@ tmp142,
 1867 0018 0100000A 		beq	.L130	@,
 1868              		.cfi_offset 14, -4
 1869              		.loc 1 904 0 is_stmt 0 discriminator 1
 1870 001c 0030A0E3 		mov	r3, #0	@ D.10469,
 1871 0020 9D0000EA 		b	.L131	@
 1872              	.L130:
 905:sd_raw.cpp    **** 	
 906:sd_raw.cpp    **** 	int i;
 907:sd_raw.cpp    **** 	unsigned char my_buff[512];
 908:sd_raw.cpp    **** 	for(i = 0 ; i < 512 ; i++) my_buff[i] = 0x00;
 1873              		.loc 1 908 0 is_stmt 1
 1874 0024 0030A0E3 		mov	r3, #0	@ tmp143,
 1875 0028 0C328DE5 		str	r3, [sp, #524]	@ tmp143, i
 1876 002c 090000EA 		b	.L132	@
 1877              	.L133:
 1878              		.loc 1 908 0 is_stmt 0 discriminator 2
 1879 0030 74329FE5 		ldr	r3, .L136	@ tmp144,
 1880 0034 0C229DE5 		ldr	r2, [sp, #524]	@ tmp146, i
 1881 0038 211E8DE2 		add	r1, sp, #528	@,,
 1882 003c 022081E0 		add	r2, r1, r2	@ tmp145,, tmp146
 1883 0040 033082E0 		add	r3, r2, r3	@ tmp147, tmp145, tmp144
 1884 0044 0020A0E3 		mov	r2, #0	@ tmp148,
 1885 0048 0020C3E5 		strb	r2, [r3, #0]	@ tmp149, my_buff
 1886 004c 0C329DE5 		ldr	r3, [sp, #524]	@ tmp150, i
 1887 0050 013083E2 		add	r3, r3, #1	@ tmp151, tmp150,
 1888 0054 0C328DE5 		str	r3, [sp, #524]	@ tmp151, i
 1889              	.L132:
ARM GAS  /tmp/ccX0J2UF.s 			page 51


 1890              		.loc 1 908 0 discriminator 1
 1891 0058 0C229DE5 		ldr	r2, [sp, #524]	@ tmp153, i
 1892 005c 4C329FE5 		ldr	r3, .L136+4	@ tmp155,
 1893 0060 030052E1 		cmp	r2, r3	@ tmp153, tmp155
 1894 0064 0030A0C3 		movgt	r3, #0	@, tmp154
 1895 0068 0130A0D3 		movle	r3, #1	@, tmp154
 1896 006c FF3003E2 		and	r3, r3, #255	@ D.10473, tmp152,
 1897 0070 000053E3 		cmp	r3, #0	@ D.10473,
 1898 0074 EDFFFF1A 		bne	.L133	@,
 909:sd_raw.cpp    **** 	
 910:sd_raw.cpp    **** 	//Init SD card interface
 911:sd_raw.cpp    **** 	sd_raw_init();
 1899              		.loc 1 911 0 is_stmt 1
 1900 0078 FEFFFFEB 		bl	_Z11sd_raw_initv	@
 912:sd_raw.cpp    **** 
 913:sd_raw.cpp    **** 	//Erase Master Boot record
 914:sd_raw.cpp    **** 	sd_raw_sync();
 1901              		.loc 1 914 0
 1902 007c FEFFFFEB 		bl	_Z11sd_raw_syncv	@
 915:sd_raw.cpp    **** 	sd_raw_write(MBR_LOCATION, my_buff, 512);
 1903              		.loc 1 915 0
 1904 0080 0C308DE2 		add	r3, sp, #12	@ tmp156,,
 1905 0084 0000A0E3 		mov	r0, #0	@,
 1906 0088 0310A0E1 		mov	r1, r3	@, tmp156
 1907 008c 022CA0E3 		mov	r2, #512	@,
 1908 0090 FEFFFFEB 		bl	_Z12sd_raw_writejPKht	@
 916:sd_raw.cpp    **** 
 917:sd_raw.cpp    **** 	//Erase Boot record
 918:sd_raw.cpp    **** 	sd_raw_sync();
 1909              		.loc 1 918 0
 1910 0094 FEFFFFEB 		bl	_Z11sd_raw_syncv	@
 919:sd_raw.cpp    **** 	sd_raw_write(BR_LOCATION, my_buff, 512);
 1911              		.loc 1 919 0
 1912 0098 0C308DE2 		add	r3, sp, #12	@ tmp157,,
 1913 009c 0207A0E3 		mov	r0, #524288	@,
 1914 00a0 0310A0E1 		mov	r1, r3	@, tmp157
 1915 00a4 022CA0E3 		mov	r2, #512	@,
 1916 00a8 FEFFFFEB 		bl	_Z12sd_raw_writejPKht	@
 920:sd_raw.cpp    **** 
 921:sd_raw.cpp    **** 	//Erase FAT tables
 922:sd_raw.cpp    **** 	for(i = 0 ; i < 0x00F5 ; i++) //0x00F5 = 245 bytes : comes from byte 0x16 from Boot Record
 1917              		.loc 1 922 0
 1918 00ac 0030A0E3 		mov	r3, #0	@ tmp158,
 1919 00b0 0C328DE5 		str	r3, [sp, #524]	@ tmp158, i
 1920 00b4 0C0000EA 		b	.L134	@
 1921              	.L135:
 923:sd_raw.cpp    **** 	{
 924:sd_raw.cpp    **** 		sd_raw_sync();
 1922              		.loc 1 924 0 discriminator 2
 1923 00b8 FEFFFFEB 		bl	_Z11sd_raw_syncv	@
 925:sd_raw.cpp    **** 		sd_raw_write( (FAT_TABLE + (i*512)), my_buff, 512);
 1924              		.loc 1 925 0 discriminator 2
 1925 00bc 0C329DE5 		ldr	r3, [sp, #524]	@ tmp159, i
 1926 00c0 063C83E2 		add	r3, r3, #1536	@ D.10480, tmp159,
 1927 00c4 8334A0E1 		mov	r3, r3, asl #9	@ D.10481, D.10480,
 1928 00c8 0320A0E1 		mov	r2, r3	@ D.10482, D.10481
 1929 00cc 0C308DE2 		add	r3, sp, #12	@ tmp160,,
ARM GAS  /tmp/ccX0J2UF.s 			page 52


 1930 00d0 0200A0E1 		mov	r0, r2	@, D.10482
 1931 00d4 0310A0E1 		mov	r1, r3	@, tmp160
 1932 00d8 022CA0E3 		mov	r2, #512	@,
 1933 00dc FEFFFFEB 		bl	_Z12sd_raw_writejPKht	@
 922:sd_raw.cpp    **** 	for(i = 0 ; i < 0x00F5 ; i++) //0x00F5 = 245 bytes : comes from byte 0x16 from Boot Record
 1934              		.loc 1 922 0 discriminator 2
 1935 00e0 0C329DE5 		ldr	r3, [sp, #524]	@ tmp161, i
 1936 00e4 013083E2 		add	r3, r3, #1	@ tmp162, tmp161,
 1937 00e8 0C328DE5 		str	r3, [sp, #524]	@ tmp162, i
 1938              	.L134:
 922:sd_raw.cpp    **** 	for(i = 0 ; i < 0x00F5 ; i++) //0x00F5 = 245 bytes : comes from byte 0x16 from Boot Record
 1939              		.loc 1 922 0 is_stmt 0 discriminator 1
 1940 00ec 0C329DE5 		ldr	r3, [sp, #524]	@ tmp164, i
 1941 00f0 F40053E3 		cmp	r3, #244	@ tmp164,
 1942 00f4 0030A0C3 		movgt	r3, #0	@, tmp165
 1943 00f8 0130A0D3 		movle	r3, #1	@, tmp165
 1944 00fc FF3003E2 		and	r3, r3, #255	@ D.10478, tmp163,
 1945 0100 000053E3 		cmp	r3, #0	@ D.10478,
 1946 0104 EBFFFF1A 		bne	.L135	@,
 926:sd_raw.cpp    **** 	}
 927:sd_raw.cpp    **** 	
 928:sd_raw.cpp    **** 	//Write Master Boot Record
 929:sd_raw.cpp    **** 	#define PART1	0x01BE
 930:sd_raw.cpp    **** 	my_buff[PART1 + 0] = 0x00;
 1947              		.loc 1 930 0 is_stmt 1
 1948 0108 0030A0E3 		mov	r3, #0	@ tmp166,
 1949 010c CA31CDE5 		strb	r3, [sp, #458]	@ tmp167, my_buff
 931:sd_raw.cpp    **** 	my_buff[PART1 + 1] = 0x00;
 1950              		.loc 1 931 0
 1951 0110 0030A0E3 		mov	r3, #0	@ tmp168,
 1952 0114 CB31CDE5 		strb	r3, [sp, #459]	@ tmp169, my_buff
 932:sd_raw.cpp    **** 	my_buff[PART1 + 2] = 0x01;
 1953              		.loc 1 932 0
 1954 0118 0130A0E3 		mov	r3, #1	@ tmp170,
 1955 011c CC31CDE5 		strb	r3, [sp, #460]	@ tmp171, my_buff
 933:sd_raw.cpp    **** 	my_buff[PART1 + 3] = 0x01;
 1956              		.loc 1 933 0
 1957 0120 0130A0E3 		mov	r3, #1	@ tmp172,
 1958 0124 CD31CDE5 		strb	r3, [sp, #461]	@ tmp173, my_buff
 934:sd_raw.cpp    **** 	my_buff[PART1 + 4] = 0x06;
 1959              		.loc 1 934 0
 1960 0128 0630A0E3 		mov	r3, #6	@ tmp174,
 1961 012c CE31CDE5 		strb	r3, [sp, #462]	@ tmp175, my_buff
 935:sd_raw.cpp    **** 	my_buff[PART1 + 5] = 0x1F;
 1962              		.loc 1 935 0
 1963 0130 1F30A0E3 		mov	r3, #31	@ tmp176,
 1964 0134 CF31CDE5 		strb	r3, [sp, #463]	@ tmp177, my_buff
 936:sd_raw.cpp    **** 	my_buff[PART1 + 6] = 0xE0;
 1965              		.loc 1 936 0
 1966 0138 1F30E0E3 		mvn	r3, #31	@ tmp178,
 1967 013c D031CDE5 		strb	r3, [sp, #464]	@ tmp179, my_buff
 937:sd_raw.cpp    **** 	my_buff[PART1 + 7] = 0xD3;
 1968              		.loc 1 937 0
 1969 0140 2C30E0E3 		mvn	r3, #44	@ tmp180,
 1970 0144 D131CDE5 		strb	r3, [sp, #465]	@ tmp181, my_buff
 938:sd_raw.cpp    **** 	my_buff[PART1 + 8] = 0x00;
 1971              		.loc 1 938 0
ARM GAS  /tmp/ccX0J2UF.s 			page 53


 1972 0148 0030A0E3 		mov	r3, #0	@ tmp182,
 1973 014c D231CDE5 		strb	r3, [sp, #466]	@ tmp183, my_buff
 939:sd_raw.cpp    **** 	my_buff[PART1 + 9] = 0x04;
 1974              		.loc 1 939 0
 1975 0150 0430A0E3 		mov	r3, #4	@ tmp184,
 1976 0154 D331CDE5 		strb	r3, [sp, #467]	@ tmp185, my_buff
 940:sd_raw.cpp    **** 	my_buff[PART1 + 10] = 0x00;
 1977              		.loc 1 940 0
 1978 0158 0030A0E3 		mov	r3, #0	@ tmp186,
 1979 015c D431CDE5 		strb	r3, [sp, #468]	@ tmp187, my_buff
 941:sd_raw.cpp    **** 	my_buff[PART1 + 11] = 0x00;
 1980              		.loc 1 941 0
 1981 0160 0030A0E3 		mov	r3, #0	@ tmp188,
 1982 0164 D531CDE5 		strb	r3, [sp, #469]	@ tmp189, my_buff
 942:sd_raw.cpp    **** 	my_buff[PART1 + 12] = 0x00;
 1983              		.loc 1 942 0
 1984 0168 0030A0E3 		mov	r3, #0	@ tmp190,
 1985 016c D631CDE5 		strb	r3, [sp, #470]	@ tmp191, my_buff
 943:sd_raw.cpp    **** 	my_buff[PART1 + 13] = 0x4C;
 1986              		.loc 1 943 0
 1987 0170 4C30A0E3 		mov	r3, #76	@ tmp192,
 1988 0174 D731CDE5 		strb	r3, [sp, #471]	@ tmp193, my_buff
 944:sd_raw.cpp    **** 	my_buff[PART1 + 14] = 0x0F;
 1989              		.loc 1 944 0
 1990 0178 0F30A0E3 		mov	r3, #15	@ tmp194,
 1991 017c D831CDE5 		strb	r3, [sp, #472]	@ tmp195, my_buff
 945:sd_raw.cpp    **** 	my_buff[510] = 0x55;
 1992              		.loc 1 945 0
 1993 0180 5530A0E3 		mov	r3, #85	@ tmp196,
 1994 0184 0A32CDE5 		strb	r3, [sp, #522]	@ tmp197, my_buff
 946:sd_raw.cpp    **** 	my_buff[511] = 0xAA;
 1995              		.loc 1 946 0
 1996 0188 5530E0E3 		mvn	r3, #85	@ tmp198,
 1997 018c 0B32CDE5 		strb	r3, [sp, #523]	@ tmp199, my_buff
 947:sd_raw.cpp    **** 
 948:sd_raw.cpp    **** 	sd_raw_sync();
 1998              		.loc 1 948 0
 1999 0190 FEFFFFEB 		bl	_Z11sd_raw_syncv	@
 949:sd_raw.cpp    **** 	sd_raw_write(MBR_LOCATION, my_buff, 512);
 2000              		.loc 1 949 0
 2001 0194 0C308DE2 		add	r3, sp, #12	@ tmp200,,
 2002 0198 0000A0E3 		mov	r0, #0	@,
 2003 019c 0310A0E1 		mov	r1, r3	@, tmp200
 2004 01a0 022CA0E3 		mov	r2, #512	@,
 2005 01a4 FEFFFFEB 		bl	_Z12sd_raw_writejPKht	@
 950:sd_raw.cpp    **** 	sd_raw_sync();
 2006              		.loc 1 950 0
 2007 01a8 FEFFFFEB 		bl	_Z11sd_raw_syncv	@
 951:sd_raw.cpp    **** 
 952:sd_raw.cpp    **** 	//Write Boot Record
 953:sd_raw.cpp    **** 	#define BOOTRECORD1	0x80000
 954:sd_raw.cpp    **** 	my_buff[0] = 0xEB;
 2008              		.loc 1 954 0
 2009 01ac 1430E0E3 		mvn	r3, #20	@ tmp201,
 2010 01b0 0C30CDE5 		strb	r3, [sp, #12]	@ tmp202, my_buff
 955:sd_raw.cpp    **** 	my_buff[1] = 0xFE;
 2011              		.loc 1 955 0
ARM GAS  /tmp/ccX0J2UF.s 			page 54


 2012 01b4 0130E0E3 		mvn	r3, #1	@ tmp203,
 2013 01b8 0D30CDE5 		strb	r3, [sp, #13]	@ tmp204, my_buff
 956:sd_raw.cpp    **** 	my_buff[2] = 0x90;
 2014              		.loc 1 956 0
 2015 01bc 6F30E0E3 		mvn	r3, #111	@ tmp205,
 2016 01c0 0E30CDE5 		strb	r3, [sp, #14]	@ tmp206, my_buff
 957:sd_raw.cpp    **** 	my_buff[12] = 0x02;
 2017              		.loc 1 957 0
 2018 01c4 0230A0E3 		mov	r3, #2	@ tmp207,
 2019 01c8 1830CDE5 		strb	r3, [sp, #24]	@ tmp208, my_buff
 958:sd_raw.cpp    **** 	my_buff[13] = 0x10;
 2020              		.loc 1 958 0
 2021 01cc 1030A0E3 		mov	r3, #16	@ tmp209,
 2022 01d0 1930CDE5 		strb	r3, [sp, #25]	@ tmp210, my_buff
 959:sd_raw.cpp    **** 	my_buff[14] = 0x16;
 2023              		.loc 1 959 0
 2024 01d4 1630A0E3 		mov	r3, #22	@ tmp211,
 2025 01d8 1A30CDE5 		strb	r3, [sp, #26]	@ tmp212, my_buff
 960:sd_raw.cpp    **** 	my_buff[16] = 0x02;
 2026              		.loc 1 960 0
 2027 01dc 0230A0E3 		mov	r3, #2	@ tmp213,
 2028 01e0 1C30CDE5 		strb	r3, [sp, #28]	@ tmp214, my_buff
 961:sd_raw.cpp    **** 	my_buff[18] = 0x02;
 2029              		.loc 1 961 0
 2030 01e4 0230A0E3 		mov	r3, #2	@ tmp215,
 2031 01e8 1E30CDE5 		strb	r3, [sp, #30]	@ tmp216, my_buff
 962:sd_raw.cpp    **** 	my_buff[21] = 0xF8;
 2032              		.loc 1 962 0
 2033 01ec 0730E0E3 		mvn	r3, #7	@ tmp217,
 2034 01f0 2130CDE5 		strb	r3, [sp, #33]	@ tmp218, my_buff
 963:sd_raw.cpp    **** 	my_buff[22] = 0xF5;
 2035              		.loc 1 963 0
 2036 01f4 0A30E0E3 		mvn	r3, #10	@ tmp219,
 2037 01f8 2230CDE5 		strb	r3, [sp, #34]	@ tmp220, my_buff
 964:sd_raw.cpp    **** 	my_buff[24] = 0x20;
 2038              		.loc 1 964 0
 2039 01fc 2030A0E3 		mov	r3, #32	@ tmp221,
 2040 0200 2430CDE5 		strb	r3, [sp, #36]	@ tmp222, my_buff
 965:sd_raw.cpp    **** 	my_buff[26] = 0x20;
 2041              		.loc 1 965 0
 2042 0204 2030A0E3 		mov	r3, #32	@ tmp223,
 2043 0208 2630CDE5 		strb	r3, [sp, #38]	@ tmp224, my_buff
 966:sd_raw.cpp    **** 	my_buff[29] = 0x04;
 2044              		.loc 1 966 0
 2045 020c 0430A0E3 		mov	r3, #4	@ tmp225,
 2046 0210 2930CDE5 		strb	r3, [sp, #41]	@ tmp226, my_buff
 967:sd_raw.cpp    **** 	my_buff[33] = 0x4C;
 2047              		.loc 1 967 0
 2048 0214 4C30A0E3 		mov	r3, #76	@ tmp227,
 2049 0218 2D30CDE5 		strb	r3, [sp, #45]	@ tmp228, my_buff
 968:sd_raw.cpp    **** 	my_buff[34] = 0x0F;
 2050              		.loc 1 968 0
 2051 021c 0F30A0E3 		mov	r3, #15	@ tmp229,
 2052 0220 2E30CDE5 		strb	r3, [sp, #46]	@ tmp230, my_buff
 969:sd_raw.cpp    **** 	my_buff[38] = 0x29;
 2053              		.loc 1 969 0
 2054 0224 2930A0E3 		mov	r3, #41	@ tmp231,
ARM GAS  /tmp/ccX0J2UF.s 			page 55


 2055 0228 3230CDE5 		strb	r3, [sp, #50]	@ tmp232, my_buff
 970:sd_raw.cpp    **** 	my_buff[54] = 0x46;
 2056              		.loc 1 970 0
 2057 022c 4630A0E3 		mov	r3, #70	@ tmp233,
 2058 0230 4230CDE5 		strb	r3, [sp, #66]	@ tmp234, my_buff
 971:sd_raw.cpp    **** 	my_buff[55] = 0x41;
 2059              		.loc 1 971 0
 2060 0234 4130A0E3 		mov	r3, #65	@ tmp235,
 2061 0238 4330CDE5 		strb	r3, [sp, #67]	@ tmp236, my_buff
 972:sd_raw.cpp    **** 	my_buff[56] = 0x54;
 2062              		.loc 1 972 0
 2063 023c 5430A0E3 		mov	r3, #84	@ tmp237,
 2064 0240 4430CDE5 		strb	r3, [sp, #68]	@ tmp238, my_buff
 973:sd_raw.cpp    **** 	my_buff[57] = 0x31;
 2065              		.loc 1 973 0
 2066 0244 3130A0E3 		mov	r3, #49	@ tmp239,
 2067 0248 4530CDE5 		strb	r3, [sp, #69]	@ tmp240, my_buff
 974:sd_raw.cpp    **** 	my_buff[58] = 0x36;
 2068              		.loc 1 974 0
 2069 024c 3630A0E3 		mov	r3, #54	@ tmp241,
 2070 0250 4630CDE5 		strb	r3, [sp, #70]	@ tmp242, my_buff
 975:sd_raw.cpp    **** 	my_buff[59] = 0x20;
 2071              		.loc 1 975 0
 2072 0254 2030A0E3 		mov	r3, #32	@ tmp243,
 2073 0258 4730CDE5 		strb	r3, [sp, #71]	@ tmp244, my_buff
 976:sd_raw.cpp    **** 	my_buff[60] = 0x20;
 2074              		.loc 1 976 0
 2075 025c 2030A0E3 		mov	r3, #32	@ tmp245,
 2076 0260 4830CDE5 		strb	r3, [sp, #72]	@ tmp246, my_buff
 977:sd_raw.cpp    **** 	my_buff[61] = 0x20;
 2077              		.loc 1 977 0
 2078 0264 2030A0E3 		mov	r3, #32	@ tmp247,
 2079 0268 4930CDE5 		strb	r3, [sp, #73]	@ tmp248, my_buff
 978:sd_raw.cpp    **** 	my_buff[510] = 0x55;
 2080              		.loc 1 978 0
 2081 026c 5530A0E3 		mov	r3, #85	@ tmp249,
 2082 0270 0A32CDE5 		strb	r3, [sp, #522]	@ tmp250, my_buff
 979:sd_raw.cpp    **** 	my_buff[511] = 0xAA;
 2083              		.loc 1 979 0
 2084 0274 5530E0E3 		mvn	r3, #85	@ tmp251,
 2085 0278 0B32CDE5 		strb	r3, [sp, #523]	@ tmp252, my_buff
 980:sd_raw.cpp    **** 	
 981:sd_raw.cpp    **** 	sd_raw_sync();
 2086              		.loc 1 981 0
 2087 027c FEFFFFEB 		bl	_Z11sd_raw_syncv	@
 982:sd_raw.cpp    **** 	sd_raw_write(BR_LOCATION, my_buff, 512);
 2088              		.loc 1 982 0
 2089 0280 0C308DE2 		add	r3, sp, #12	@ tmp253,,
 2090 0284 0207A0E3 		mov	r0, #524288	@,
 2091 0288 0310A0E1 		mov	r1, r3	@, tmp253
 2092 028c 022CA0E3 		mov	r2, #512	@,
 2093 0290 FEFFFFEB 		bl	_Z12sd_raw_writejPKht	@
 983:sd_raw.cpp    **** 	sd_raw_sync();
 2094              		.loc 1 983 0
 2095 0294 FEFFFFEB 		bl	_Z11sd_raw_syncv	@
 984:sd_raw.cpp    **** 	
 985:sd_raw.cpp    **** 	return(0x55); //Successful format
ARM GAS  /tmp/ccX0J2UF.s 			page 56


 2096              		.loc 1 985 0
 2097 0298 5530A0E3 		mov	r3, #85	@ D.10469,
 2098              	.L131:
 2099              	.LBE16:
 986:sd_raw.cpp    **** }
 2100              		.loc 1 986 0
 2101 029c 0300A0E1 		mov	r0, r3	@, <retval>
 2102 02a0 85DF8DE2 		add	sp, sp, #532	@,,
 2103 02a4 04E09DE4 		ldr	lr, [sp], #4
 2104 02a8 1EFF2FE1 		bx	lr
 2105              	.L137:
 2106              		.align	2
 2107              	.L136:
 2108 02ac FCFDFFFF 		.word	-516
 2109 02b0 FF010000 		.word	511
 2110              		.cfi_endproc
 2111              	.LFE121:
 2112              		.size	_Z11format_cardc, .-_Z11format_cardc
 2113              		.section	.rodata
 2114              		.align	2
 2115              		.type	_ZL12VIC_USB_Intr, %object
 2116              		.size	_ZL12VIC_USB_Intr, 4
 2117              	_ZL12VIC_USB_Intr:
 2118 0068 00004000 		.word	4194304
 2119              		.align	2
 2120              		.type	_ZL9CCR_CLKEN, %object
 2121              		.size	_ZL9CCR_CLKEN, 4
 2122              	_ZL9CCR_CLKEN:
 2123 006c 01000000 		.word	1
 2124              		.align	2
 2125              		.type	_ZL10CCR_CTCRST, %object
 2126              		.size	_ZL10CCR_CTCRST, 4
 2127              	_ZL10CCR_CTCRST:
 2128 0070 02000000 		.word	2
 2129              		.align	2
 2130              		.type	_ZL16CCR_CLKSRC_32KHZ, %object
 2131              		.size	_ZL16CCR_CLKSRC_32KHZ, 4
 2132              	_ZL16CCR_CLKSRC_32KHZ:
 2133 0074 10000000 		.word	16
 2134              		.align	2
 2135              		.type	_ZL18VIC_Channel_Timer0, %object
 2136              		.size	_ZL18VIC_Channel_Timer0, 4
 2137              	_ZL18VIC_Channel_Timer0:
 2138 0078 04000000 		.word	4
 2139              		.align	2
 2140              		.type	_ZL18VIC_Channel_Timer1, %object
 2141              		.size	_ZL18VIC_Channel_Timer1, 4
 2142              	_ZL18VIC_Channel_Timer1:
 2143 007c 05000000 		.word	5
 2144              		.align	2
 2145              		.type	_ZL17VIC_Channel_UART0, %object
 2146              		.size	_ZL17VIC_Channel_UART0, 4
 2147              	_ZL17VIC_Channel_UART0:
 2148 0080 06000000 		.word	6
 2149              		.align	2
 2150              		.type	_ZL17VIC_Channel_UART1, %object
 2151              		.size	_ZL17VIC_Channel_UART1, 4
ARM GAS  /tmp/ccX0J2UF.s 			page 57


 2152              	_ZL17VIC_Channel_UART1:
 2153 0084 07000000 		.word	7
 2154              		.align	2
 2155              		.type	_ZL15VIC_Channel_USB, %object
 2156              		.size	_ZL15VIC_Channel_USB, 4
 2157              	_ZL15VIC_Channel_USB:
 2158 0088 16000000 		.word	22
 2159              		.align	2
 2160              		.type	_ZL18VICVectCntl_ENABLE, %object
 2161              		.size	_ZL18VICVectCntl_ENABLE, 4
 2162              	_ZL18VICVectCntl_ENABLE:
 2163 008c 20000000 		.word	32
 2164              		.align	2
 2165              		.type	_ZL10UIER_ERBFI, %object
 2166              		.size	_ZL10UIER_ERBFI, 4
 2167              	_ZL10UIER_ERBFI:
 2168 0090 01000000 		.word	1
 2169              		.align	2
 2170              		.type	_ZL12UIIR_ID_MASK, %object
 2171              		.size	_ZL12UIIR_ID_MASK, 4
 2172              	_ZL12UIIR_ID_MASK:
 2173 0094 0E000000 		.word	14
 2174              		.align	2
 2175              		.type	_ZL12UIIR_RDA_INT, %object
 2176              		.size	_ZL12UIIR_RDA_INT, 4
 2177              	_ZL12UIIR_RDA_INT:
 2178 0098 04000000 		.word	4
 2179              		.align	2
 2180              		.type	_ZL8ULSR_RDR, %object
 2181              		.size	_ZL8ULSR_RDR, 4
 2182              	_ZL8ULSR_RDR:
 2183 009c 01000000 		.word	1
 2184              		.align	2
 2185              		.type	_ZL5SSEL1, %object
 2186              		.size	_ZL5SSEL1, 4
 2187              	_ZL5SSEL1:
 2188 00a0 00001000 		.word	1048576
 2189              		.align	2
 2190              		.type	_ZL9SSPSR_TFE, %object
 2191              		.size	_ZL9SSPSR_TFE, 4
 2192              	_ZL9SSPSR_TFE:
 2193 00a4 01000000 		.word	1
 2194              		.align	2
 2195              		.type	_ZL9SSPSR_TNF, %object
 2196              		.size	_ZL9SSPSR_TNF, 4
 2197              	_ZL9SSPSR_TNF:
 2198 00a8 02000000 		.word	2
 2199              		.align	2
 2200              		.type	_ZL9SSPSR_RNE, %object
 2201              		.size	_ZL9SSPSR_RNE, 4
 2202              	_ZL9SSPSR_RNE:
 2203 00ac 04000000 		.word	4
 2204              		.align	2
 2205              		.type	_ZL9SSPSR_BSY, %object
 2206              		.size	_ZL9SSPSR_BSY, 4
 2207              	_ZL9SSPSR_BSY:
 2208 00b0 10000000 		.word	16
ARM GAS  /tmp/ccX0J2UF.s 			page 58


 2209              		.align	2
 2210              		.type	_ZL11SSPCR0_CPOL, %object
 2211              		.size	_ZL11SSPCR0_CPOL, 4
 2212              	_ZL11SSPCR0_CPOL:
 2213 00b4 40000000 		.word	64
 2214              		.align	2
 2215              		.type	_ZL11SSPCR0_CPHA, %object
 2216              		.size	_ZL11SSPCR0_CPHA, 4
 2217              	_ZL11SSPCR0_CPHA:
 2218 00b8 80000000 		.word	128
 2219              		.align	2
 2220              		.type	_ZL13I2CxCONCLR_AA, %object
 2221              		.size	_ZL13I2CxCONCLR_AA, 4
 2222              	_ZL13I2CxCONCLR_AA:
 2223 00bc 04000000 		.word	4
 2224              		.align	2
 2225              		.type	_ZL13I2CxCONCLR_SI, %object
 2226              		.size	_ZL13I2CxCONCLR_SI, 4
 2227              	_ZL13I2CxCONCLR_SI:
 2228 00c0 08000000 		.word	8
 2229              		.align	2
 2230              		.type	_ZL15I2CxCONCLR_STAC, %object
 2231              		.size	_ZL15I2CxCONCLR_STAC, 4
 2232              	_ZL15I2CxCONCLR_STAC:
 2233 00c4 20000000 		.word	32
 2234              		.align	2
 2235              		.type	_ZL16I2CxCONCLR_I2ENC, %object
 2236              		.size	_ZL16I2CxCONCLR_I2ENC, 4
 2237              	_ZL16I2CxCONCLR_I2ENC:
 2238 00c8 40000000 		.word	64
 2239              		.align	2
 2240              		.type	_ZL13I2CxCONSET_AA, %object
 2241              		.size	_ZL13I2CxCONSET_AA, 4
 2242              	_ZL13I2CxCONSET_AA:
 2243 00cc 04000000 		.word	4
 2244              		.align	2
 2245              		.type	_ZL13I2CxCONSET_SI, %object
 2246              		.size	_ZL13I2CxCONSET_SI, 4
 2247              	_ZL13I2CxCONSET_SI:
 2248 00d0 08000000 		.word	8
 2249              		.align	2
 2250              		.type	_ZL14I2CxCONSET_STO, %object
 2251              		.size	_ZL14I2CxCONSET_STO, 4
 2252              	_ZL14I2CxCONSET_STO:
 2253 00d4 10000000 		.word	16
 2254              		.align	2
 2255              		.type	_ZL14I2CxCONSET_STA, %object
 2256              		.size	_ZL14I2CxCONSET_STA, 4
 2257              	_ZL14I2CxCONSET_STA:
 2258 00d8 20000000 		.word	32
 2259              		.align	2
 2260              		.type	_ZL15I2CxCONSET_I2EN, %object
 2261              		.size	_ZL15I2CxCONSET_I2EN, 4
 2262              	_ZL15I2CxCONSET_I2EN:
 2263 00dc 40000000 		.word	64
 2264              		.align	2
 2265              		.type	_ZL20TxTCR_COUNTER_ENABLE, %object
ARM GAS  /tmp/ccX0J2UF.s 			page 59


 2266              		.size	_ZL20TxTCR_COUNTER_ENABLE, 4
 2267              	_ZL20TxTCR_COUNTER_ENABLE:
 2268 00e0 01000000 		.word	1
 2269              		.align	2
 2270              		.type	_ZL19TxTCR_COUNTER_RESET, %object
 2271              		.size	_ZL19TxTCR_COUNTER_RESET, 4
 2272              	_ZL19TxTCR_COUNTER_RESET:
 2273 00e4 02000000 		.word	2
 2274              		.align	2
 2275              		.type	_ZL16TxMCR_INT_ON_MR0, %object
 2276              		.size	_ZL16TxMCR_INT_ON_MR0, 4
 2277              	_ZL16TxMCR_INT_ON_MR0:
 2278 00e8 01000000 		.word	1
 2279              		.align	2
 2280              		.type	_ZL18TxMCR_RESET_ON_MR0, %object
 2281              		.size	_ZL18TxMCR_RESET_ON_MR0, 4
 2282              	_ZL18TxMCR_RESET_ON_MR0:
 2283 00ec 02000000 		.word	2
 2284              		.align	2
 2285              		.type	_ZL13TxIR_MR0_FLAG, %object
 2286              		.size	_ZL13TxIR_MR0_FLAG, 4
 2287              	_ZL13TxIR_MR0_FLAG:
 2288 00f0 01000000 		.word	1
 2289              		.align	2
 2290              		.type	_ZL13TxIR_MR1_FLAG, %object
 2291              		.size	_ZL13TxIR_MR1_FLAG, 4
 2292              	_ZL13TxIR_MR1_FLAG:
 2293 00f4 02000000 		.word	2
 2294              		.align	2
 2295              		.type	_ZL13TxIR_MR2_FLAG, %object
 2296              		.size	_ZL13TxIR_MR2_FLAG, 4
 2297              	_ZL13TxIR_MR2_FLAG:
 2298 00f8 04000000 		.word	4
 2299              		.align	2
 2300              		.type	_ZL13TxIR_MR3_FLAG, %object
 2301              		.size	_ZL13TxIR_MR3_FLAG, 4
 2302              	_ZL13TxIR_MR3_FLAG:
 2303 00fc 08000000 		.word	8
 2304              		.align	2
 2305              		.type	_ZL13TxIR_CR0_FLAG, %object
 2306              		.size	_ZL13TxIR_CR0_FLAG, 4
 2307              	_ZL13TxIR_CR0_FLAG:
 2308 0100 10000000 		.word	16
 2309              		.align	2
 2310              		.type	_ZL13TxIR_CR1_FLAG, %object
 2311              		.size	_ZL13TxIR_CR1_FLAG, 4
 2312              	_ZL13TxIR_CR1_FLAG:
 2313 0104 20000000 		.word	32
 2314              		.align	2
 2315              		.type	_ZL13TxIR_CR2_FLAG, %object
 2316              		.size	_ZL13TxIR_CR2_FLAG, 4
 2317              	_ZL13TxIR_CR2_FLAG:
 2318 0108 40000000 		.word	64
 2319              		.align	2
 2320              		.type	_ZL13TxIR_CR3_FLAG, %object
 2321              		.size	_ZL13TxIR_CR3_FLAG, 4
 2322              	_ZL13TxIR_CR3_FLAG:
ARM GAS  /tmp/ccX0J2UF.s 			page 60


 2323 010c 80000000 		.word	128
 2324              		.align	2
 2325              		.type	_ZL12TxCCR_CAP0RE, %object
 2326              		.size	_ZL12TxCCR_CAP0RE, 4
 2327              	_ZL12TxCCR_CAP0RE:
 2328 0110 01000000 		.word	1
 2329              		.align	2
 2330              		.type	_ZL12TxCCR_CAP0FE, %object
 2331              		.size	_ZL12TxCCR_CAP0FE, 4
 2332              	_ZL12TxCCR_CAP0FE:
 2333 0114 02000000 		.word	2
 2334              		.align	2
 2335              		.type	_ZL11TxCCR_CAP0I, %object
 2336              		.size	_ZL11TxCCR_CAP0I, 4
 2337              	_ZL11TxCCR_CAP0I:
 2338 0118 04000000 		.word	4
 2339              		.align	2
 2340              		.type	_ZL12TxCCR_CAP1RE, %object
 2341              		.size	_ZL12TxCCR_CAP1RE, 4
 2342              	_ZL12TxCCR_CAP1RE:
 2343 011c 08000000 		.word	8
 2344              		.align	2
 2345              		.type	_ZL12TxCCR_CAP1FE, %object
 2346              		.size	_ZL12TxCCR_CAP1FE, 4
 2347              	_ZL12TxCCR_CAP1FE:
 2348 0120 10000000 		.word	16
 2349              		.align	2
 2350              		.type	_ZL11TxCCR_CAP1I, %object
 2351              		.size	_ZL11TxCCR_CAP1I, 4
 2352              	_ZL11TxCCR_CAP1I:
 2353 0124 20000000 		.word	32
 2354              		.align	2
 2355              		.type	_ZL12TxCCR_CAP2RE, %object
 2356              		.size	_ZL12TxCCR_CAP2RE, 4
 2357              	_ZL12TxCCR_CAP2RE:
 2358 0128 40000000 		.word	64
 2359              		.align	2
 2360              		.type	_ZL12TxCCR_CAP2FE, %object
 2361              		.size	_ZL12TxCCR_CAP2FE, 4
 2362              	_ZL12TxCCR_CAP2FE:
 2363 012c 80000000 		.word	128
 2364              		.align	2
 2365              		.type	_ZL11TxCCR_CAP2I, %object
 2366              		.size	_ZL11TxCCR_CAP2I, 4
 2367              	_ZL11TxCCR_CAP2I:
 2368 0130 00010000 		.word	256
 2369              		.align	2
 2370              		.type	_ZL12TxCCR_CAP3RE, %object
 2371              		.size	_ZL12TxCCR_CAP3RE, 4
 2372              	_ZL12TxCCR_CAP3RE:
 2373 0134 00020000 		.word	512
 2374              		.align	2
 2375              		.type	_ZL12TxCCR_CAP3FE, %object
 2376              		.size	_ZL12TxCCR_CAP3FE, 4
 2377              	_ZL12TxCCR_CAP3FE:
 2378 0138 00040000 		.word	1024
 2379              		.align	2
ARM GAS  /tmp/ccX0J2UF.s 			page 61


 2380              		.type	_ZL11TxCCR_CAP3I, %object
 2381              		.size	_ZL11TxCCR_CAP3I, 4
 2382              	_ZL11TxCCR_CAP3I:
 2383 013c 00080000 		.word	2048
 2384              		.align	2
 2385              		.type	_ZL9ADxCR_PDN, %object
 2386              		.size	_ZL9ADxCR_PDN, 4
 2387              	_ZL9ADxCR_PDN:
 2388 0140 00002000 		.word	2097152
 2389              		.align	2
 2390              		.type	_ZL15ADxCR_START_NOW, %object
 2391              		.size	_ZL15ADxCR_START_NOW, 4
 2392              	_ZL15ADxCR_START_NOW:
 2393 0144 00000001 		.word	16777216
 2394              		.align	2
 2395              		.type	_ZL11ADxGDR_DONE, %object
 2396              		.size	_ZL11ADxGDR_DONE, 4
 2397              	_ZL11ADxGDR_DONE:
 2398 0148 00000080 		.word	-2147483648
 2399              		.align	2
 2400              		.type	_ZL7PWMMR0R, %object
 2401              		.size	_ZL7PWMMR0R, 4
 2402              	_ZL7PWMMR0R:
 2403 014c 02000000 		.word	2
 2404              		.align	2
 2405              		.type	_ZL7LER0_EN, %object
 2406              		.size	_ZL7LER0_EN, 4
 2407              	_ZL7LER0_EN:
 2408 0150 01000000 		.word	1
 2409              		.align	2
 2410              		.type	_ZL7LER1_EN, %object
 2411              		.size	_ZL7LER1_EN, 4
 2412              	_ZL7LER1_EN:
 2413 0154 02000000 		.word	2
 2414              		.align	2
 2415              		.type	_ZL7LER2_EN, %object
 2416              		.size	_ZL7LER2_EN, 4
 2417              	_ZL7LER2_EN:
 2418 0158 04000000 		.word	4
 2419              		.align	2
 2420              		.type	_ZL7LER3_EN, %object
 2421              		.size	_ZL7LER3_EN, 4
 2422              	_ZL7LER3_EN:
 2423 015c 08000000 		.word	8
 2424              		.align	2
 2425              		.type	_ZL7LER4_EN, %object
 2426              		.size	_ZL7LER4_EN, 4
 2427              	_ZL7LER4_EN:
 2428 0160 10000000 		.word	16
 2429              		.align	2
 2430              		.type	_ZL7LER5_EN, %object
 2431              		.size	_ZL7LER5_EN, 4
 2432              	_ZL7LER5_EN:
 2433 0164 20000000 		.word	32
 2434              		.align	2
 2435              		.type	_ZL7LER6_EN, %object
 2436              		.size	_ZL7LER6_EN, 4
ARM GAS  /tmp/ccX0J2UF.s 			page 62


 2437              	_ZL7LER6_EN:
 2438 0168 40000000 		.word	64
 2439              		.align	2
 2440              		.type	_ZL7PWMENA1, %object
 2441              		.size	_ZL7PWMENA1, 4
 2442              	_ZL7PWMENA1:
 2443 016c 00020000 		.word	512
 2444              		.align	2
 2445              		.type	_ZL7PWMENA2, %object
 2446              		.size	_ZL7PWMENA2, 4
 2447              	_ZL7PWMENA2:
 2448 0170 00040000 		.word	1024
 2449              		.align	2
 2450              		.type	_ZL7PWMENA3, %object
 2451              		.size	_ZL7PWMENA3, 4
 2452              	_ZL7PWMENA3:
 2453 0174 00080000 		.word	2048
 2454              		.align	2
 2455              		.type	_ZL7PWMENA4, %object
 2456              		.size	_ZL7PWMENA4, 4
 2457              	_ZL7PWMENA4:
 2458 0178 00100000 		.word	4096
 2459              		.align	2
 2460              		.type	_ZL7PWMENA5, %object
 2461              		.size	_ZL7PWMENA5, 4
 2462              	_ZL7PWMENA5:
 2463 017c 00200000 		.word	8192
 2464              		.align	2
 2465              		.type	_ZL7PWMENA6, %object
 2466              		.size	_ZL7PWMENA6, 4
 2467              	_ZL7PWMENA6:
 2468 0180 00400000 		.word	16384
 2469              		.align	2
 2470              		.type	_ZL21PWMTCR_COUNTER_ENABLE, %object
 2471              		.size	_ZL21PWMTCR_COUNTER_ENABLE, 4
 2472              	_ZL21PWMTCR_COUNTER_ENABLE:
 2473 0184 01000000 		.word	1
 2474              		.align	2
 2475              		.type	_ZL12PWMTCR_RESET, %object
 2476              		.size	_ZL12PWMTCR_RESET, 4
 2477              	_ZL12PWMTCR_RESET:
 2478 0188 02000000 		.word	2
 2479              		.align	2
 2480              		.type	_ZL17PWMTCR_PWM_ENABLE, %object
 2481              		.size	_ZL17PWMTCR_PWM_ENABLE, 4
 2482              	_ZL17PWMTCR_PWM_ENABLE:
 2483 018c 08000000 		.word	8
 2484              		.align	2
 2485              		.type	_ZL10WDMOD_WDEN, %object
 2486              		.size	_ZL10WDMOD_WDEN, 4
 2487              	_ZL10WDMOD_WDEN:
 2488 0190 01000000 		.word	1
 2489              		.align	2
 2490              		.type	_ZL13WDMOD_WDRESET, %object
 2491              		.size	_ZL13WDMOD_WDRESET, 4
 2492              	_ZL13WDMOD_WDRESET:
 2493 0194 02000000 		.word	2
ARM GAS  /tmp/ccX0J2UF.s 			page 63


 2494              		.align	2
 2495              		.type	_ZL27HID_MESSAGE_ID_SYSTEM_DEBUG, %object
 2496              		.size	_ZL27HID_MESSAGE_ID_SYSTEM_DEBUG, 4
 2497              	_ZL27HID_MESSAGE_ID_SYSTEM_DEBUG:
 2498 0198 C0000000 		.word	192
 2499              		.text
 2500              	.Letext0: